Archive member included because of file (symbol)

..\..\..\..\..\microchip\harmony\v1_07\bin\framework\peripheral\PIC32MZ2048ECG064_peripherals.a(plib_eth_lib.o)
                              build/default/production/_ext/508588874/drv_ethmac.o (PLIB_ETH_MACSetAddress)
c:/program files (x86)/microchip/xc32/v1.43/bin/bin/../../lib/gcc/pic32mx/4.8.3\libgcc.a(_udivdi3.o)
                              build/default/production/_ext/1046770110/tfm.o (__udivdi3)
c:/program files (x86)/microchip/xc32/v1.43/bin/bin/../../lib/gcc/pic32mx/4.8.3/../../../../pic32mx/lib\libpic32.a(memcmp.o)
                              build/default/production/_ext/1046770110/asn.o (memcmp)
c:/program files (x86)/microchip/xc32/v1.43/bin/bin/../../lib/gcc/pic32mx/4.8.3/../../../../pic32mx/lib\libpic32.a(memcpy.o)
                              build/default/production/_ext/1046770110/pwdbased.o (memcpy)
c:/program files (x86)/microchip/xc32/v1.43/bin/bin/../../lib/gcc/pic32mx/4.8.3/../../../../pic32mx/lib\libpic32.a(memset.o)
                              build/default/production/_ext/1046770110/pwdbased.o (memset)
c:/program files (x86)/microchip/xc32/v1.43/bin/bin/../../lib/gcc/pic32mx/4.8.3/../../../../pic32mx/lib\libpic32.a(strcmp.o)
                              build/default/production/_ext/1333902316/sys_command.o (strcmp)
c:/program files (x86)/microchip/xc32/v1.43/bin/bin/../../lib/gcc/pic32mx/4.8.3/../../../../pic32mx/lib\libpic32.a(strcpy.o)
                              build/default/production/_ext/1333902316/sys_command.o (strcpy)
c:/program files (x86)/microchip/xc32/v1.43/bin/bin/../../lib/gcc/pic32mx/4.8.3/../../../../pic32mx/lib\libpic32.a(strlen.o)
                              build/default/production/_ext/1046770110/asn.o (strlen)
c:/program files (x86)/microchip/xc32/v1.43/bin/bin/../../lib/gcc/pic32mx/4.8.3/../../../../pic32mx/lib\libpic32.a(default-bootstrap-exception-handler.o)
                              c:/program files (x86)/microchip/xc32/v1.43/bin/bin/../../lib/gcc/pic32mx/4.8.3/../../../../pic32mx/lib/./proc/32MZ2048ECG064/crt0_mips32r2.o (_bootstrap_exception_handler)
c:/program files (x86)/microchip/xc32/v1.43/bin/bin/../../lib/gcc/pic32mx/4.8.3/../../../../pic32mx/lib\libpic32.a(default-on-reset.o)
                              c:/program files (x86)/microchip/xc32/v1.43/bin/bin/../../lib/gcc/pic32mx/4.8.3/../../../../pic32mx/lib/./proc/32MZ2048ECG064/crt0_mips32r2.o (_on_reset)
c:/program files (x86)/microchip/xc32/v1.43/bin/bin/../../lib/gcc/pic32mx/4.8.3/../../../../pic32mx/lib\libpic32.a(default-on-bootstrap.o)
                              c:/program files (x86)/microchip/xc32/v1.43/bin/bin/../../lib/gcc/pic32mx/4.8.3/../../../../pic32mx/lib/./proc/32MZ2048ECG064/crt0_mips32r2.o (_on_bootstrap)
c:/program files (x86)/microchip/xc32/v1.43/bin/bin/../../lib/gcc/pic32mx/4.8.3/../../../../pic32mx/lib\libpic32.a(default-nmi-handler.o)
                              c:/program files (x86)/microchip/xc32/v1.43/bin/bin/../../lib/gcc/pic32mx/4.8.3/../../../../pic32mx/lib/./proc/32MZ2048ECG064/crt0_mips32r2.o (_nmi_handler)
c:/program files (x86)/microchip/xc32/v1.43/bin/bin/../../lib/gcc/pic32mx/4.8.3/../../../../pic32mx/lib\libpic32.a(pic32_init_cache.o)
                              c:/program files (x86)/microchip/xc32/v1.43/bin/bin/../../lib/gcc/pic32mx/4.8.3/../../../../pic32mx/lib/./proc/32MZ2048ECG064/crt0_mips32r2.o (__pic32_init_cache)
c:/program files (x86)/microchip/xc32/v1.43/bin/bin/../../lib/gcc/pic32mx/4.8.3/../../../../pic32mx/lib\libpic32.a(pic32_init_tlb_ebi_sqi.o)
                              c:/program files (x86)/microchip/xc32/v1.43/bin/bin/../../lib/gcc/pic32mx/4.8.3/../../../../pic32mx/lib/./proc/32MZ2048ECG064/crt0_mips32r2.o (__pic32_tlb_init_ebi_sqi)
c:/program files (x86)/microchip/xc32/v1.43/bin/bin/../../lib/gcc/pic32mx/4.8.3/../../../../pic32mx/lib\libpic32.a(general-exception.o)
                              c:/program files (x86)/microchip/xc32/v1.43/bin/bin/../../lib/gcc/pic32mx/4.8.3/../../../../pic32mx/lib/./proc/32MZ2048ECG064/crt0_mips32r2.o (_general_exception_context)
c:/program files (x86)/microchip/xc32/v1.43/bin/bin/../../lib/gcc/pic32mx/4.8.3/../../../../pic32mx/lib\libpic32.a(cache-err-exception.o)
                              c:/program files (x86)/microchip/xc32/v1.43/bin/bin/../../lib/gcc/pic32mx/4.8.3/../../../../pic32mx/lib/./proc/32MZ2048ECG064/crt0_mips32r2.o (_cache_err_exception_context)
c:/program files (x86)/microchip/xc32/v1.43/bin/bin/../../lib/gcc/pic32mx/4.8.3/../../../../pic32mx/lib\libpic32.a(simple-tlb-refill-exception.o)
                              c:/program files (x86)/microchip/xc32/v1.43/bin/bin/../../lib/gcc/pic32mx/4.8.3/../../../../pic32mx/lib/./proc/32MZ2048ECG064/crt0_mips32r2.o (_simple_tlb_refill_exception_context)
c:/program files (x86)/microchip/xc32/v1.43/bin/bin/../../lib/gcc/pic32mx/4.8.3/../../../../pic32mx/lib\libpic32.a(defaultinterrupt.o)
                              c:/program files (x86)/microchip/xc32/v1.43/bin/bin/../../lib/gcc/pic32mx/4.8.3/../../../../pic32mx/lib/./proc/32MZ2048ECG064\default_isr_vectors.o (_DefaultInterrupt)
c:/program files (x86)/microchip/xc32/v1.43/bin/bin/../../lib/gcc/pic32mx/4.8.3/../../../../pic32mx/lib\libpic32.a(default-cache-err-exception-handler.o)
                              c:/program files (x86)/microchip/xc32/v1.43/bin/bin/../../lib/gcc/pic32mx/4.8.3/../../../../pic32mx/lib\libpic32.a(cache-err-exception.o) (_cache_err_exception_handler)
c:/program files (x86)/microchip/xc32/v1.43/bin/bin/../../lib/gcc/pic32mx/4.8.3/../../../../pic32mx/lib\libpic32.a(default-simple-tlb-refill-exception-handler.o)
                              c:/program files (x86)/microchip/xc32/v1.43/bin/bin/../../lib/gcc/pic32mx/4.8.3/../../../../pic32mx/lib\libpic32.a(simple-tlb-refill-exception.o) (_simple_tlb_refill_exception_handler)
c:/program files (x86)/microchip/xc32/v1.43/bin/bin/../../lib/gcc/pic32mx/4.8.3/../../../../pic32mx/lib\libc.a(calloc.o)
                              build/default/production/_ext/1688732426/system_init.o (calloc)
c:/program files (x86)/microchip/xc32/v1.43/bin/bin/../../lib/gcc/pic32mx/4.8.3/../../../../pic32mx/lib\libc.a(ctime.o)
                              build/default/production/_ext/1046770110/asn.o (gmtime)
c:/program files (x86)/microchip/xc32/v1.43/bin/bin/../../lib/gcc/pic32mx/4.8.3/../../../../pic32mx/lib\libc.a(ctype.o)
                              build/default/production/_ext/1406599153/dhcp.o (_ctype)
c:/program files (x86)/microchip/xc32/v1.43/bin/bin/../../lib/gcc/pic32mx/4.8.3/../../../../pic32mx/lib\libc.a(ctypef.o)
                              build/default/production/_ext/1046770110/asn.o (tolower)
c:/program files (x86)/microchip/xc32/v1.43/bin/bin/../../lib/gcc/pic32mx/4.8.3/../../../../pic32mx/lib\libc.a(malloc.o)
                              build/default/production/_ext/1107806295/zutil.o (malloc)
c:/program files (x86)/microchip/xc32/v1.43/bin/bin/../../lib/gcc/pic32mx/4.8.3/../../../../pic32mx/lib\libc.a(memmove.o)
                              build/default/production/_ext/1046770110/asn.o (memmove)
c:/program files (x86)/microchip/xc32/v1.43/bin/bin/../../lib/gcc/pic32mx/4.8.3/../../../../pic32mx/lib\libc.a(rand.o)
                              build/default/production/_ext/1046770110/random.o (srand)
c:/program files (x86)/microchip/xc32/v1.43/bin/bin/../../lib/gcc/pic32mx/4.8.3/../../../../pic32mx/lib\libc.a(strncpy.o)
                              build/default/production/_ext/1046770110/error.o (strncpy)
c:/program files (x86)/microchip/xc32/v1.43/bin/bin/../../lib/gcc/pic32mx/4.8.3/../../../../pic32mx/lib\libc.a(strtol.o)
                              build/default/production/_ext/1406599153/tcpip_helpers.o (strtol)
c:/program files (x86)/microchip/xc32/v1.43/bin/bin/../../lib/gcc/pic32mx/4.8.3/../../../../pic32mx/lib\libc.a(time.o)
                              build/default/production/_ext/1046770110/asn.o (time)
c:/program files (x86)/microchip/xc32/v1.43/bin/bin/../../lib/gcc/pic32mx/4.8.3/../../../../pic32mx/lib\libc.a(sprintf_cdnopuxX.eo)
                              build/default/production/_ext/1406599153/tcpip_helpers.o (_sprintf_cdnopuxX)
c:/program files (x86)/microchip/xc32/v1.43/bin/bin/../../lib/gcc/pic32mx/4.8.3/../../../../pic32mx/lib\libc.a(vsnprintf.o)
                              build/default/production/_ext/1333902316/sys_command.o (vsnprintf)
c:/program files (x86)/microchip/xc32/v1.43/bin/bin/../../lib/gcc/pic32mx/4.8.3/../../../../pic32mx/lib\libc.a(errno.o)
                              c:/program files (x86)/microchip/xc32/v1.43/bin/bin/../../lib/gcc/pic32mx/4.8.3/../../../../pic32mx/lib\libc.a(strtol.o) (errno)
c:/program files (x86)/microchip/xc32/v1.43/bin/bin/../../lib/gcc/pic32mx/4.8.3/../../../../pic32mx/lib\libc.a(doprnt_cdnopuxX.eo)
                              c:/program files (x86)/microchip/xc32/v1.43/bin/bin/../../lib/gcc/pic32mx/4.8.3/../../../../pic32mx/lib\libc.a(sprintf_cdnopuxX.eo) (_vfprintf_cdnopuxX)
c:/program files (x86)/microchip/xc32/v1.43/bin/bin/../../lib/gcc/pic32mx/4.8.3/../../../../pic32mx/lib\libc.a(doprnt.o)
                              c:/program files (x86)/microchip/xc32/v1.43/bin/bin/../../lib/gcc/pic32mx/4.8.3/../../../../pic32mx/lib\libc.a(vsnprintf.o) (vfprintf)
c:/program files (x86)/microchip/xc32/v1.43/bin/bin/../../lib/gcc/pic32mx/4.8.3/../../../../pic32mx/lib\libc.a(_fputc_simple.o)
                              c:/program files (x86)/microchip/xc32/v1.43/bin/bin/../../lib/gcc/pic32mx/4.8.3/../../../../pic32mx/lib\libc.a(doprnt_cdnopuxX.eo) (fputc)
c:/program files (x86)/microchip/xc32/v1.43/bin/bin/../../lib/gcc/pic32mx/4.8.3/../../../../pic32mx/lib\libc.a(ldpowers.o)
                              c:/program files (x86)/microchip/xc32/v1.43/bin/bin/../../lib/gcc/pic32mx/4.8.3/../../../../pic32mx/lib\libc.a(doprnt.o) (_npowers_)
c:/program files (x86)/microchip/xc32/v1.43/bin/bin/../../lib/gcc/pic32mx/4.8.3/../../../../pic32mx/lib\libc.a(_iob.o)
                              c:/program files (x86)/microchip/xc32/v1.43/bin/bin/../../lib/gcc/pic32mx/4.8.3/../../../../pic32mx/lib\libc.a(_fputc_simple.o) (_outdone)
c:/program files (x86)/microchip/xc32/v1.43/bin/bin/../../lib/gcc/pic32mx/4.8.3/../../../../pic32mx/lib\libc.a(_flsbuf_simple.o)
                              c:/program files (x86)/microchip/xc32/v1.43/bin/bin/../../lib/gcc/pic32mx/4.8.3/../../../../pic32mx/lib\libc.a(_fputc_simple.o) (_flsbuf)
c:/program files (x86)/microchip/xc32/v1.43/bin/bin/../../lib/gcc/pic32mx/4.8.3/../../../../pic32mx/lib\libm.a(dpfrexp.o)
                              c:/program files (x86)/microchip/xc32/v1.43/bin/bin/../../lib/gcc/pic32mx/4.8.3/../../../../pic32mx/lib\libc.a(doprnt.o) (frexpl)
c:/program files (x86)/microchip/xc32/v1.43/bin/bin/../../lib/gcc/pic32mx/4.8.3/../../../../pic32mx/lib\libm.a(dp32div.o)
                              c:/program files (x86)/microchip/xc32/v1.43/bin/bin/../../lib/gcc/pic32mx/4.8.3/../../../../pic32mx/lib\libc.a(doprnt.o) (dpdiv)
c:/program files (x86)/microchip/xc32/v1.43/bin/bin/../../lib/gcc/pic32mx/4.8.3/../../../../pic32mx/lib\libm.a(dp32mul.o)
                              c:/program files (x86)/microchip/xc32/v1.43/bin/bin/../../lib/gcc/pic32mx/4.8.3/../../../../pic32mx/lib\libc.a(doprnt.o) (dpmul)
c:/program files (x86)/microchip/xc32/v1.43/bin/bin/../../lib/gcc/pic32mx/4.8.3/../../../../pic32mx/lib\libm.a(dp32subadd.o)
                              c:/program files (x86)/microchip/xc32/v1.43/bin/bin/../../lib/gcc/pic32mx/4.8.3/../../../../pic32mx/lib\libc.a(doprnt.o) (dpsub)
c:/program files (x86)/microchip/xc32/v1.43/bin/bin/../../lib/gcc/pic32mx/4.8.3/../../../../pic32mx/lib\libm.a(dpcmp.o)
                              c:/program files (x86)/microchip/xc32/v1.43/bin/bin/../../lib/gcc/pic32mx/4.8.3/../../../../pic32mx/lib\libc.a(doprnt.o) (dpcmp)
c:/program files (x86)/microchip/xc32/v1.43/bin/bin/../../lib/gcc/pic32mx/4.8.3/../../../../pic32mx/lib\libm.a(dptoul.o)
                              c:/program files (x86)/microchip/xc32/v1.43/bin/bin/../../lib/gcc/pic32mx/4.8.3/../../../../pic32mx/lib\libc.a(doprnt.o) (dptoul)
c:/program files (x86)/microchip/xc32/v1.43/bin/bin/../../lib/gcc/pic32mx/4.8.3/../../../../pic32mx/lib\libm.a(fptodp.o)
                              c:/program files (x86)/microchip/xc32/v1.43/bin/bin/../../lib/gcc/pic32mx/4.8.3/../../../../pic32mx/lib\libc.a(doprnt.o) (fptodp)
c:/program files (x86)/microchip/xc32/v1.43/bin/bin/../../lib/gcc/pic32mx/4.8.3/../../../../pic32mx/lib\libe.a(_fixunsdfdi.o)
                              c:/program files (x86)/microchip/xc32/v1.43/bin/bin/../../lib/gcc/pic32mx/4.8.3/../../../../pic32mx/lib\libc.a(doprnt.o) (__fixunsdfdi)
c:/program files (x86)/microchip/xc32/v1.43/bin/bin/../../lib/gcc/pic32mx/4.8.3/../../../../pic32mx/lib\libe.a(_orderdf2.o)
                              c:/program files (x86)/microchip/xc32/v1.43/bin/bin/../../lib/gcc/pic32mx/4.8.3/../../../../pic32mx/lib\libe.a(_fixunsdfdi.o) (__orderdf2)
c:/program files (x86)/microchip/xc32/v1.43/bin/bin/../../lib/gcc/pic32mx/4.8.3/../../../../pic32mx/lib\libe.a(_fixdfdi.o)
                              c:/program files (x86)/microchip/xc32/v1.43/bin/bin/../../lib/gcc/pic32mx/4.8.3/../../../../pic32mx/lib\libe.a(_fixunsdfdi.o) (__fixdfdi)
c:/program files (x86)/microchip/xc32/v1.43/bin/bin/../../lib/gcc/pic32mx/4.8.3\libgcc.a(_umoddi3.o)
                              c:/program files (x86)/microchip/xc32/v1.43/bin/bin/../../lib/gcc/pic32mx/4.8.3/../../../../pic32mx/lib\libc.a(doprnt_cdnopuxX.eo) (__umoddi3)
c:/program files (x86)/microchip/xc32/v1.43/bin/bin/../../lib/gcc/pic32mx/4.8.3\libgcc.a(floatunsidf.o)
                              c:/program files (x86)/microchip/xc32/v1.43/bin/bin/../../lib/gcc/pic32mx/4.8.3/../../../../pic32mx/lib\libc.a(doprnt.o) (__floatunsidf)
c:/program files (x86)/microchip/xc32/v1.43/bin/bin/../../lib/gcc/pic32mx/4.8.3/../../../../pic32mx/lib\libpic32.a(sbrk.o)
                              c:/program files (x86)/microchip/xc32/v1.43/bin/bin/../../lib/gcc/pic32mx/4.8.3/../../../../pic32mx/lib\libc.a(malloc.o) (sbrk)
c:/program files (x86)/microchip/xc32/v1.43/bin/bin/../../lib/gcc/pic32mx/4.8.3/../../../../pic32mx/lib\libpic32.a(write.o)
                              c:/program files (x86)/microchip/xc32/v1.43/bin/bin/../../lib/gcc/pic32mx/4.8.3/../../../../pic32mx/lib\libc.a(_fputc_simple.o) (write)
c:/program files (x86)/microchip/xc32/v1.43/bin/bin/../../lib/gcc/pic32mx/4.8.3/../../../../pic32mx/lib\libpic32.a(_mon_putc.o)
                              c:/program files (x86)/microchip/xc32/v1.43/bin/bin/../../lib/gcc/pic32mx/4.8.3/../../../../pic32mx/lib\libpic32.a(write.o) (_mon_putc)
c:/program files (x86)/microchip/xc32/v1.43/bin/bin/../../lib/gcc/pic32mx/4.8.3/../../../../pic32mx/lib\libpic32.a(xc32_uart.o)
                              c:/program files (x86)/microchip/xc32/v1.43/bin/bin/../../lib/gcc/pic32mx/4.8.3/../../../../pic32mx/lib\libpic32.a(_mon_putc.o) (__XC_UART)
c:/program files (x86)/microchip/xc32/v1.43/bin/bin/../../lib/gcc/pic32mx/4.8.3/../../../../pic32mx/lib\libm.a(litodp.o)
                              c:/program files (x86)/microchip/xc32/v1.43/bin/bin/../../lib/gcc/pic32mx/4.8.3\libgcc.a(floatunsidf.o) (litodp)

Allocating common symbols
Common symbol       size              file

gDrvETHPHYClientObj
                    0x34              build/default/production/_ext/1684742680/drv_ethphy.o
sysDebugInstance    0x10              build/default/production/_ext/996864500/sys_debug.o
appData             0x4               build/default/production/_ext/1360937237/app.o
gDrvUSARTBufferObj  0x640             build/default/production/_ext/1601094287/drv_usart_buffer_queue.o
sysObj              0x20              build/default/production/_ext/1688732426/system_init.o
gblErrLvl           0x4               build/default/production/_ext/996864500/sys_debug.o
gDrvUSARTCommonDataObj
                    0x3               build/default/production/_ext/1601094287/drv_usart.o
gDrvUSARTClientObj  0xd8              build/default/production/_ext/1601094287/drv_usart.o
gDrvUSARTObj        0xc0              build/default/production/_ext/1601094287/drv_usart.o
sysDevconObj        0x8               build/default/production/_ext/1470476842/sys_devcon.o
rdQueueElements     0x8               build/default/production/_ext/877190136/sys_console_uart.o
sysRandCtx          0x108             build/default/production/_ext/1457815988/sys_random.o
gDrvETHPHYObj       0x28              build/default/production/_ext/1684742680/drv_ethphy.o
wrQueueElements     0x200             build/default/production/_ext/877190136/sys_console_uart.o

Microchip PIC32 Memory-Usage Report

kseg0 Program-Memory Usage
section                    address  length [bytes]      (dec)  Description
-------                 ----------  -------------------------  -----------
.simple_tlb_refill_excp 0x9d000000           0x10          16   
.text.SYS_DEVCON_Perfor 0x9d000010           0xf0         240   
.cache_err_excpt        0x9d000100           0x10          16   
.text.DRV_ETHMAC_PIC32M 0x9d000110           0x70         112   
.app_excpt              0x9d000180           0x10          16  General-Exception 
.text._EnetPoolFreeDcpt 0x9d000190           0x70         112   
.vectors                0x9d000200           0x88         136   
.text.vfprintf          0x9d000288         0x1c64        7268   
.text.TCPIP_TCP_Task    0x9d001eec         0x14c8        5320   
.text._DRV_USART_Hardwa 0x9d0033b4         0x1160        4448   
.text._vfprintf_cdnopux 0x9d004514          0xc8c        3212   
.text.TCPIP_STACK_Task  0x9d0051a0          0x8d0        2256   
.text.TCPIP_DHCP_Task   0x9d005a70          0x870        2160   
.text._TcpSend          0x9d0062e0          0x824        2084   
.dinit                  0x9d006b04          0x7d0        2000   
.text._DRV_USART_Buffer 0x9d0072d4          0x530        1328   
.text.DRV_ETHMAC_PIC32M 0x9d007804          0x50c        1292   
.text.SYS_CMD_Tasks     0x9d007d10          0x4f0        1264   
.text.dp32mul           0x9d008200          0x4b8        1208   
.text.DRV_USART_BaudSet 0x9d0086b8          0x4a0        1184   
.text.TCPIP_ARP_Task    0x9d008b58          0x464        1124   
.text                   0x9d008fbc          0x464        1124  App's exec code 
.rodata                 0x9d009420          0x45c        1116  Read-only const 
.text                   0x9d00987c          0x458        1112  App's exec code 
.text.dp32subadd        0x9d009cd4          0x430        1072   
.text.TCPIP_STACK_Initi 0x9d00a104          0x408        1032   
.text.DRV_USART_Read    0x9d00a50c          0x3f8        1016   
.rodata                 0x9d00a904          0x3d8         984  Read-only const 
.text._DNS_Send_Query   0x9d00acdc          0x3bc         956   
.text.Console_UART_Task 0x9d00b098          0x388         904   
.text.DRV_USART_Initial 0x9d00b420          0x384         900   
.text.TCPIP_STACK_Bring 0x9d00b7a4          0x380         896   
.text.TCPIP_DNS_ClientI 0x9d00bb24          0x37c         892   
.text.TCPIP_ARP_Initial 0x9d00bea0          0x36c         876   
.text.TCPIP_ANNOUNCE_Ta 0x9d00c20c          0x340         832   
.text.DRV_USART_BufferA 0x9d00c54c          0x334         820   
.text.TCPIP_NBNS_Task   0x9d00c880          0x330         816   
.text.dp32mul           0x9d00cbb0          0x32c         812   
.text.ParseCmdBuffer    0x9d00cedc          0x30c         780   
.text._DRV_TMR_ClockSou 0x9d00d1e8          0x308         776   
.text.SYS_TMR_Tasks     0x9d00d4f0          0x304         772   
.text.TCPIP_UDP_Task    0x9d00d7f4          0x304         772   
.text.TCPIP_IPV4_Packet 0x9d00daf8          0x2fc         764   
.text._DHCPSend         0x9d00ddf4          0x2ec         748   
.text._DNS_ProcessPacke 0x9d00e0e0          0x2e0         736   
.text.CommandHelp       0x9d00e3c0          0x2dc         732   
.text.DRV_USART_LineCon 0x9d00e69c          0x2bc         700   
.text.DRV_TMR_Initializ 0x9d00e958          0x2b4         692   
.text.TCPIP_UDP_Flush   0x9d00ec0c          0x2a4         676   
.text.DRV_TMR_AlarmRegi 0x9d00eeb0          0x294         660   
.text.malloc            0x9d00f144          0x28c         652   
.text._DRV_PHY_SMITrans 0x9d00f3d0          0x288         648   
.text._DRV_USART_Buffer 0x9d00f658          0x27c         636   
.text.DRV_USART_BufferA 0x9d00f8d4          0x26c         620   
.rodata                 0x9d00fb40          0x264         612  Read-only const 
.text                   0x9d00fda4          0x25c         604  App's exec code 
.text._DHCPReceive      0x9d010000          0x254         596   
.text.DRV_TMR_CounterFr 0x9d010254          0x250         592   
.text.DRV_ETHMAC_LibRxB 0x9d0104a4          0x24c         588   
.text.DRV_ETHMAC_PIC32M 0x9d0106f0          0x244         580   
.text.scale             0x9d010934          0x23c         572   
.text._DHCPOptionHostNa 0x9d010b70          0x234         564   
.text.TCPIP_IPV4_Task   0x9d010da4          0x228         552   
.text._UDPOpen          0x9d010fcc          0x224         548   
.rodata                 0x9d0111f0          0x434        1076  Read-only const 
.text._DRV_TMR_ClockPre 0x9d011624          0x214         532   
.text._TCPIP_HEAP_Free  0x9d011838          0x210         528   
.text.SYS_Initialize    0x9d011a48          0x20c         524   
.text._LoadNetworkConfi 0x9d011c54          0x1e8         488   
.text.DRV_USART_TasksEr 0x9d011e3c          0x1e4         484   
.text.TCPIP_UDP_Bind    0x9d012020          0x1dc         476   
.text._DNS_RESPONSE_Has 0x9d0121fc          0x1d8         472   
.text.DRV_ETHMAC_PIC32M 0x9d0123d4          0x1d4         468   
.text.DRV_TMR_CounterVa 0x9d0125a8          0x1d4         468   
.text.TCPIP_DNS_ClientT 0x9d01277c          0x1d4         468   
.text.TCPIP_Helper_Stri 0x9d012950          0x1cc         460   
.text.fround            0x9d012b1c          0x1cc         460   
.text.TCPIP_ARP_EntryRe 0x9d012ce8          0x1c8         456   
.text.DRV_ETHMAC_LibRxA 0x9d012eb0          0x1c4         452   
.text._EthAckPacket     0x9d013074          0x1bc         444   
.text._DRV_ETHPHY_Setup 0x9d013230          0x1b8         440   
.text.DRV_ETHMAC_LibIni 0x9d0133e8          0x1b4         436   
.text.TCPIP_HEAP_Create 0x9d01359c          0x1b0         432   
.text.DRV_USART_Open    0x9d01374c          0x1ac         428   
.text.TCPIP_UDP_ArrayGe 0x9d0138f8          0x1ac         428   
.text._DRV_ETHMAC_AddRx 0x9d013aa4          0x1a8         424   
.text.TCPIP_UDP_Options 0x9d013c4c          0x1a8         424   
.text.IntHandlerDrvTmrI 0x9d013df4          0x1a4         420   
.text._IntHandlerDrvUsa 0x9d013f98          0x1a4         420   
.text._IntHandlerDrvUsa 0x9d01413c          0x1a4         420   
.text._IntHandlerDrvUsa 0x9d0142e0          0x1a4         420   
.text._IntHandlerDrvUsa 0x9d014484          0x1a4         420   
.text._IntHandlerDrvUsa 0x9d014628          0x1a4         420   
.text._IntHandlerDrvUsa 0x9d0147cc          0x1a4         420   
.text._IntHandler_ETHMA 0x9d014970          0x1a0         416   
.text                   0x9d014b10          0x1a0         416  App's exec code 
.text._ARPProbeAddress  0x9d014cb0          0x198         408   
.text.DRV_ETHMAC_LibRxG 0x9d014e48          0x194         404   
.text._sbrk_init        0x9d014fdc          0x194         404   
.text.DRV_EXTPHY_MDIXCo 0x9d015170          0x18c         396   
.text.TCPIP_DHCP_Initia 0x9d0152fc          0x18c         396   
.text.DRV_ETHMAC_LibMAC 0x9d015488          0x184         388   
.text._DRV_TMR_Resume   0x9d01560c          0x184         388   
.text.TCPIP_UDP_Deiniti 0x9d015790          0x17c         380   
.text.DRV_ETHMAC_PIC32M 0x9d01590c          0x178         376   
.text.DRV_ETHMAC_LibTxS 0x9d015a84          0x178         376   
.text._SYS_TMR_ClientCr 0x9d015bfc          0x178         376   
.text._DRV_ETHPHY_NegRe 0x9d015d74          0x170         368   
.text._TCPIP_HEAP_Mallo 0x9d015ee4          0x170         368   
.text._EthAppendBusyLis 0x9d016054          0x168         360   
.text.DRV_EXTPHY_MIICon 0x9d0161bc          0x168         360   
.text                   0x9d016324          0x2d0         720  App's exec code 
.text._DRV_TMR_Suspend  0x9d0165f4          0x164         356   
.text.TCPIP_IPV4_Select 0x9d016758          0x160         352   
.rodata                 0x9d0168b8          0x160         352  Read-only const 
.text._ARPSendIfPkt     0x9d016a18          0x15c         348   
.text._DHCPProcessRecei 0x9d016b74          0x15c         348   
.text._MACDeinit        0x9d016cd0          0x158         344   
.text.DRV_ETHMAC_PIC32M 0x9d016e28          0x158         344   
.rodata                 0x9d016f80          0x2a4         676  Read-only const 
.text.TCPIP_UDP_Initial 0x9d017224          0x14c         332   
.text._TcpCloseSocket   0x9d017370          0x148         328   
.text._TcpDisconnect    0x9d0174b8          0x148         328   
.text.TCPIP_UDP_OpenSer 0x9d017600          0x148         328   
.text.fputc             0x9d017748          0x144         324   
.text._DRV_ETHPHY_Setup 0x9d01788c          0x140         320   
.text.DisplayNodeMsg    0x9d0179cc          0x140         320   
.text.TCPIP_TCP_Initial 0x9d017b0c          0x140         320   
.text.TCPIP_UDP_Options 0x9d017c4c          0x140         320   
.text._DRV_ETHPHY_Setup 0x9d017d8c          0x130         304   
.text._ARPDeleteResourc 0x9d017ebc          0x130         304   
.text.SYS_PORTS_Initial 0x9d017fec          0x130         304   
.text.DRV_ETHMAC_LibDes 0x9d01811c          0x12c         300   
.text._flsbuf           0x9d018248          0x12c         300   
.text.dpcmp             0x9d018374          0x12c         300   
.text.TCPIP_ANNOUNCE_In 0x9d0184a0          0x128         296   
.text.TCPIP_IPV4_ArpHan 0x9d0185c8          0x128         296   
.text._OAHashFindBkt    0x9d0186f0          0x124         292   
.text.TCPIP_Helper_Stri 0x9d018814          0x124         292   
.text.DRV_ETHMAC_Tasks_ 0x9d018938          0x120         288   
.text._Tcpv4TxAckFnc    0x9d018a58          0x120         288   
.text.TCPIP_Helper_Pack 0x9d018b78          0x120         288   
.text                   0x9d018c98          0x120         288  App's exec code 
.text.DRV_ETHMAC_PIC32M 0x9d018db8          0x11c         284   
.text._GetMaxSegSizeOpt 0x9d018ed4          0x11c         284   
.text.TCPIP_ARP_IsResol 0x9d018ff0          0x11c         284   
.text._DHCPSetLeaseTime 0x9d01910c          0x118         280   
.text.DRV_ETHMAC_PIC32M 0x9d019224          0x114         276   
.text.TCPIP_Helper_Pack 0x9d019338          0x114         276   
.text.DRV_ETHMAC_LibClo 0x9d01944c          0x110         272   
.text._DRV_ETHPHY_Setup 0x9d01955c          0x110         272   
.text._MacRxPacketAck   0x9d01966c          0x10c         268   
.text.PLIB_ETH_MACSetAd 0x9d019778          0x10c         268   
.text._UDPv4AllocateSkt 0x9d019884          0x108         264   
.rodata                 0x9d01998c          0x104         260  Read-only const 
.text._DHCPEnable       0x9d019a90          0x100         256   
.text._DNS_ValidateIf   0x9d019b90          0x100         256   
.rodata                 0x9d019c90           0xfc         252  Read-only const 
.text._TcpSocketSetIdle 0x9d019d8c           0xfc         252   
.text._UDPv4TxAckFnc    0x9d019e88           0xfc         252   
.text.Console_UART_Writ 0x9d019f84           0xf8         248   
.text._DHCPClose        0x9d01a07c           0xf8         248   
.text.SYS_CLK_Initializ 0x9d01a174           0xf8         248   
.text.TCPIP_DHCP_Connec 0x9d01a26c           0xf4         244   
.text._DRV_ETHPHY_Setup 0x9d01a360           0xec         236   
.text.SYS_TMR_SystemCou 0x9d01a44c           0xec         236   
.text.DRV_ETHMAC_PIC32M 0x9d01a538           0xe8         232   
.text._SYS_TMR_ClientPa 0x9d01a620           0xe8         232   
.text._DHCPPacketFilter 0x9d01a708           0xe8         232   
.text._TCPIP_StackSyncF 0x9d01a7f0           0xe8         232   
.text.TCPIP_IPV4_DeInit 0x9d01a8d8           0xe8         232   
.text.__fixdfdi         0x9d01a9c0           0xe8         232   
.text._DHCPOpenSocket   0x9d01aaa8           0xe4         228   
.text.TCPIP_NBNS_Initia 0x9d01ab8c           0xe4         228   
.text.DRV_ETHPHY_Setup  0x9d01ac70           0xe0         224   
.text._DRV_ETHPHY_NegCo 0x9d01ad50           0xe0         224   
.text.TCPIP_OAHASH_Entr 0x9d01ae30           0xe0         224   
.text.TCPIP_STACK_Bring 0x9d01af10           0xe0         224   
.text.DRV_ETHPHY_SMIClo 0x9d01aff0           0xdc         220   
.text.SYS_CMD_DELETE    0x9d01b0cc           0xdc         220   
.text.TCPIP_STACK_KillS 0x9d01b1a8           0xdc         220   
.text.general_exception 0x9d01b284           0xdc         220   
.text.SYS_CMD_Initializ 0x9d01b360           0xd8         216   
.text._ARPUpdateEntry   0x9d01b438           0xd8         216   
.text._TCPIP_PKT_Packet 0x9d01b510           0xd8         216   
.text._cache_err_except 0x9d01b5e8           0xd8         216   
.text.simple_tlb_refill 0x9d01b6c0           0xd8         216   
.text._mon_putc         0x9d01b798           0xd4         212   
.text._MacTxPendingPack 0x9d01b86c           0xd0         208   
.rodata                 0x9d01b93c            0x4           4  Read-only const 
.rodata                 0x9d01b940           0xd0         208  Read-only const 
.text._DRV_ETHMAC_LinkS 0x9d01ba10           0xcc         204   
.text._DRV_ETHPHY_Reset 0x9d01badc           0xcc         204   
.text.SYS_TMR_Initializ 0x9d01bba8           0xcc         204   
.text.TCPIP_ARP_EntryRe 0x9d01bc74           0xcc         204   
.text.DRV_TMR_Tasks     0x9d01bd40           0xc8         200   
.text._UDPsetPacketInfo 0x9d01be08           0xc8         200   
.text.TCPIP_UDP_RemoteB 0x9d01bed0           0xc8         200   
.text.TCPIP_OAHASH_Entr 0x9d01bf98           0xc8         200   
.text._sbrk             0x9d01c060           0xc8         200   
.text._DHCPOptionWriteS 0x9d01c128           0xc4         196   
.text._TCPIPStackModule 0x9d01c1ec           0xc4         196   
.text.SYS_CMD_PRINT     0x9d01c2b0           0xc0         192   
.text._DHCPOptionProces 0x9d01c370           0xc0         192   
.text.SendCommandPrint  0x9d01c430           0xbc         188   
.text.SYS_CMDIO_ADD     0x9d01c4ec           0xbc         188   
.text.TCPIP_UDP_ArrayPu 0x9d01c5a8           0xbc         188   
.text._DHCPOptionWriteI 0x9d01c664           0xbc         188   
.tlb.__pic32_tlb_init_e 0x9d01c720           0xbc         188   
.text._EthTxSchedList   0x9d01c7dc           0xb8         184   
.text._DRV_ETHPHY_NegRe 0x9d01c894           0xb8         184   
.text.TCPIP_DNS_OAHASH_ 0x9d01c94c           0xb8         184   
.text.TCPIP_PKT_DataSeg 0x9d01ca04           0xb8         184   
.text.DRV_ETHMAC_PIC32M 0x9d01cabc           0xb4         180   
.text._EthTxSchedBuffer 0x9d01cb70           0xb4         180   
.text.Console_UART_Read 0x9d01cc24           0xb4         180   
.text.TCPIP_UDP_BcastIP 0x9d01ccd8           0xb4         180   
.text._ARPNotifyClients 0x9d01cd8c           0xb4         180   
.text._DNS_DeleteHash   0x9d01ce40           0xb4         180   
.text._DNS_AddSelection 0x9d01cef4           0xb0         176   
.text.TCPIP_IPV4_Packet 0x9d01cfa4           0xb0         176   
.text._DRV_ETHMAC_LinkS 0x9d01d054           0xac         172   
.text._DRV_ETHPHY_NegCo 0x9d01d100           0xac         172   
.text.TCPIP_TCP_Deiniti 0x9d01d1ac           0xac         172   
.text._DNS_Enable       0x9d01d258           0xac         172   
.text._TCPIPStackInsert 0x9d01d304           0xac         172   
.text.fptodp            0x9d01d3b0           0xac         172   
.text.DRV_ETHMAC_PIC32M 0x9d01d45c           0xa8         168   
.text._DRV_ETHPHY_Reset 0x9d01d504           0xa8         168   
.text.DRV_ETHPHY_Vendor 0x9d01d5ac           0xa8         168   
.text.DRV_ETHPHY_Vendor 0x9d01d654           0xa8         168   
.text.DRV_USART_TasksRe 0x9d01d6fc           0xa8         168   
.text.DRV_USART_TasksTr 0x9d01d7a4           0xa8         168   
.text._SYS_TMR_ClientCh 0x9d01d84c           0xa8         168   
.text.TCPIP_PKT_PacketM 0x9d01d8f4           0xa8         168   
.text                   0x9d01d99c           0xa8         168  App's exec code 
.text.libm              0x9d01da44           0xa8         168   
.text.DRV_ETHPHY_SMIWri 0x9d01daec           0xa4         164   
.text._TCPIP_HEAP_MaxSi 0x9d01db90           0xa4         164   
.text.TCPIP_IPV4_Initia 0x9d01dc34           0xa4         164   
.text.Console_UART_Stat 0x9d01dcd8           0xa0         160   
.text._TcpAbort         0x9d01dd78           0xa0         160   
.text.TCPIP_UDP_PutIsRe 0x9d01de18           0xa0         160   
.text.TCPIP_Helper_Sing 0x9d01deb8           0xa0         160   
.text._TCPIP_PKT_Packet 0x9d01df58           0xa0         160   
.text._DRV_ETHMAC_LinkS 0x9d01dff8           0x9c         156   
.text.TCPIP_ARP_Probe   0x9d01e094           0x9c         156   
.rodata                 0x9d01e130           0x9c         156  Read-only const 
.text.TCPIP_STACK_IPAdd 0x9d01e1cc           0x9c         156   
.text.PLIB_ETH_MACGetAd 0x9d01e268           0x9c         156   
.text.write             0x9d01e304           0x9c         156   
.text.DRV_ETHMAC_LibDes 0x9d01e3a0           0x98         152   
.text._DRV_ETHPHY_Setup 0x9d01e438           0x98         152   
.text._DRV_ETHPHY_LinkS 0x9d01e4d0           0x98         152   
.text._DNS_CleanCacheEn 0x9d01e568           0x98         152   
.text                   0x9d01e600           0x98         152  App's exec code 
.text._TcpCleanup       0x9d01e698           0x94         148   
.text._UDPSetNewRxPacke 0x9d01e72c           0x94         148   
.text.TCPIP_UDP_Destina 0x9d01e7c0           0x94         148   
.text._DRV_ETHMAC_LinkS 0x9d01e854           0x90         144   
.text.DRV_ETHPHY_SMISca 0x9d01e8e4           0x90         144   
.text.TCPIP_ARP_EntryGe 0x9d01e974           0x90         144   
.text.TCPIP_Helper_Prot 0x9d01ea04           0x90         144   
.text._TCPIPStackIpAddF 0x9d01ea94           0x90         144   
.text.SYS_CONSOLE_Statu 0x9d01eb24           0x8c         140   
.text.TCPIP_UDP_SocketI 0x9d01ebb0           0x8c         140   
.text.TCPIP_UDP_TxOffse 0x9d01ec3c           0x8c         140   
.text._DHCPNotifyClient 0x9d01ecc8           0x8c         140   
.text._DNSDiscardName   0x9d01ed54           0x8c         140   
.text.TCPIP_Helper_Form 0x9d01ede0           0x8c         140   
.text.TCPIP_Helper_Prot 0x9d01ee6c           0x8c         140   
.text.TCPIP_Helper_Prot 0x9d01eef8           0x8c         140   
.text.rand              0x9d01ef84           0x8c         140   
.text.dptoul            0x9d01f010           0x8c         140   
.text.__orderdf2        0x9d01f09c           0x8c         140   
.rodata                 0x9d01f128           0x88         136  Read-only const 
.text.hexatob           0x9d01f1b0           0x88         136   
.text._TCPIPStackModule 0x9d01f238           0x88         136   
.text.DRV_ETHPHY_Vendor 0x9d01f2c0           0x84         132   
.text._DRV_TMR_ModuleOb 0x9d01f344           0x84         132   
.text.TCPIP_UDP_SourceI 0x9d01f3c8           0x84         132   
.text._DRV_ETHPHY_NegCo 0x9d01f44c           0x80         128   
.text.DRV_ETHPHY_SMISca 0x9d01f4cc           0x80         128   
.text.TCPIP_DNS_OAHASH_ 0x9d01f54c           0x80         128   
.rodata                 0x9d01f5d0           0x80         128  Read-only const 
.text.__fixunsdfdi      0x9d01f650           0x80         128   
.text.DRV_ETHPHY_SMISca 0x9d01f6d0           0x7c         124   
.text.DRV_ETHPHY_SMIRea 0x9d01f74c           0x7c         124   
.text.CommandCleanup    0x9d01f7c8           0x7c         124   
.text._UDPAllocateEphem 0x9d01f844           0x7c         124   
.text.TCPIP_ARP_Deiniti 0x9d01f8c0           0x7c         124   
.text.TCPIP_ARP_Handler 0x9d01f93c           0x7c         124   
.text.TCPIP_Helper_Prot 0x9d01f9b8           0x7c         124   
.rodata                 0x9d01fa34           0x78         120  Read-only const 
.text.SYS_CONSOLE_Read  0x9d01faac           0x78         120   
.text.TCPIP_UDP_Close   0x9d01fb24           0x78         120   
.text.TCPIP_DHCP_Handle 0x9d01fb9c           0x78         120   
.text.TCPIP_Helper_Prot 0x9d01fc14           0x78         120   
.text._TCPIP_MacEventCB 0x9d01fc8c           0x78         120   
.text._TCPIPStackAnyNet 0x9d01fd04           0x78         120   
.text.TCPIP_PKT_Initial 0x9d01fd7c           0x78         120   
.text.litodp            0x9d01fdf4           0x78         120   
.text._DRV_ETHPHY_Setup 0x9d01fe6c           0x74         116   
.text.DRV_ETHPHY_Open   0x9d01fee0           0x74         116   
.text._TcpSwapHeader    0x9d01ff54           0x74         116   
.text._DHCPOptionProces 0x9d01ffc8           0x74         116   
.text._DHCPOptionProces 0x9d02003c           0x74         116   
.text.TCPIP_Helper_Stri 0x9d0200b0           0x74         116   
.text._TCPIPStackSignal 0x9d020124           0x74         116   
.text.strncpy           0x9d020198           0x74         116   
.text.CommandQuit       0x9d02020c           0x70         112   
.text._UDPClose         0x9d02027c           0x70         112   
.text._TCPIP_HEAP_Delet 0x9d0202ec           0x70         112   
.text._ARPSetEntry      0x9d02035c           0x70         112   
.text._ARPRemoveEntry   0x9d0203cc           0x70         112   
.text._TCPIP_PKT_Packet 0x9d02043c           0x70         112   
.text._MacRxFreeCallbac 0x9d0204ac           0x6c         108   
.text._DRV_ETHPHY_Setup 0x9d020518           0x6c         108   
.text.TCPIP_UDP_SocketN 0x9d020584           0x6c         108   
.text._DHCPCleanup      0x9d0205f0           0x6c         108   
.text._DNSGetData       0x9d02065c           0x6c         108   
.text._TCPIP_AnnounceCl 0x9d0206c8           0x6c         108   
.text.TCPIP_ANNOUNCE_De 0x9d020734           0x6c         108   
.text._TCPIP_PKT_Socket 0x9d0207a0           0x6c         108   
.text._DRV_ETHPHY_Setup 0x9d02080c           0x68         104   
.text._DRV_ETHPHY_NegRe 0x9d020874           0x68         104   
.text.Console_UART_Flus 0x9d0208dc           0x68         104   
.text.SYS_RANDOM_Initia 0x9d020944           0x68         104   
.text._UDPFreeTxResourc 0x9d0209ac           0x68         104   
.text.TCPIP_UDP_OpenCli 0x9d020a14           0x68         104   
.text.TCPIP_ARP_HashEnt 0x9d020a7c           0x68         104   
.text._DHCPSetTimeout   0x9d020ae4           0x68         104   
.text.TCPIP_DNS_RemoveE 0x9d020b4c           0x68         104   
.text.TCPIP_STACK_IsBca 0x9d020bb4           0x68         104   
.text._TCPIPStackModule 0x9d020c1c           0x68         104   
.text._sprintf_cdnopuxX 0x9d020c84           0x68         104   
.text.DRV_ETHPHY_SMISca 0x9d020cec           0x64         100   
.text._DRV_ETHPHY_LinkS 0x9d020d50           0x64         100   
.text._DRV_ETHPHY_NegCo 0x9d020db4           0x64         100   
.text.DRV_TMR_Start     0x9d020e18           0x64         100   
.text._TcpSocketKill    0x9d020e7c           0x64         100   
.text.TCPIP_UDP_SignalH 0x9d020ee0           0x64         100   
.text.TCPIP_DHCP_Deinit 0x9d020f44           0x64         100   
.text.TCPIP_STACK_Addre 0x9d020fa8           0x64         100   
.text.TCPIP_IPV4_Cleanu 0x9d02100c           0x64         100   
.text.DRV_ETHMAC_PIC32M 0x9d021070           0x60          96   
.text.TCPIP_UDP_GetIsRe 0x9d0210d0           0x60          96   
.text._DHCPOptionProces 0x9d021130           0x60          96   
.text._DNSClientCleanup 0x9d021190           0x60          96   
.text.ANNOUNCE_Notify   0x9d0211f0           0x60          96   
.text.TCPIP_OAHASH_Entr 0x9d021250           0x60          96   
.rodata                 0x9d0212b0           0x60          96  Read-only const 
.text.IPv4RegisterFilte 0x9d021310           0x60          96   
.text._general_exceptio 0x9d021370           0x60          96   
.text.DRV_ETHPHY_LinkSt 0x9d0213d0           0x5c          92   
.text.DRV_ETHPHY_Negoti 0x9d02142c           0x5c          92   
.text.SYS_CONSOLE_Write 0x9d021488           0x5c          92   
.text._TCPIP_HEAP_Buffe 0x9d0214e4           0x5c          92   
.text._DNS_NetIsValid   0x9d021540           0x5c          92   
.text.fnv_32_hash       0x9d02159c           0x5c          92   
.text.vsnprintf         0x9d0215f8           0x5c          92   
.text._MacTxDiscardQueu 0x9d021654           0x58          88   
.text.DRV_TMR_Open      0x9d0216ac           0x58          88   
.text.SYS_DEVCON_System 0x9d021704           0x58          88   
.text._DHCPOptionProces 0x9d02175c           0x58          88   
.text._DHCPOptionProces 0x9d0217b4           0x58          88   
.text._DHCPOptionProces 0x9d02180c           0x58          88   
.text.TCPIP_Helper_Prot 0x9d021864           0x58          88   
.text.TCPIP_STACK_NetBy 0x9d0218bc           0x58          88   
.text.TCPIP_Notificatio 0x9d021914           0x58          88   
.text.TCPIP_STACK_Init  0x9d02196c           0x58          88   
.text.SYS_Tasks         0x9d0219c4           0x58          88   
.text.main_entry        0x9d021a1c           0x54          84   
.text.DRV_ETHMAC_PIC32M 0x9d021a70           0x54          84   
.text.DRV_ETHMAC_PIC32M 0x9d021ac4           0x54          84   
.text._DRV_ETHMAC_LinkS 0x9d021b18           0x54          84   
.text._EnetDescriptorsC 0x9d021b6c           0x54          84   
.text.DRV_ETHPHY_Initia 0x9d021bc0           0x54          84   
.text.SYS_INT_SourceDis 0x9d021c14           0x54          84   
.text.SYS_TMR_ObjectDel 0x9d021c68           0x54          84   
.text._XtlEventsTcp2Eth 0x9d021cbc           0x50          80   
.text.DRV_ETHPHY_HWConf 0x9d021d0c           0x50          80   
.text._DRV_ETHPHY_NegRe 0x9d021d5c           0x50          80   
.text._DRV_ETHPHY_NegRe 0x9d021dac           0x50          80   
.text.SYS_CONSOLE_Initi 0x9d021dfc           0x50          80   
.text._TCPSetSourceAddr 0x9d021e4c           0x50          80   
.text._TCPSetHalfFlushF 0x9d021e9c           0x50          80   
.rodata                 0x9d021eec           0x50          80  Read-only const 
.text._DHCPOptionWriteP 0x9d021f3c           0x50          80   
.text._DHCPOptionProces 0x9d021f8c           0x50          80   
.text.TCPIP_DNS_OAHASH_ 0x9d021fdc           0x50          80   
.text.TCPIP_NBNS_Deinit 0x9d02202c           0x50          80   
.text._TCPIPStackModule 0x9d02207c           0x50          80   
.text.TCPIP_Notificatio 0x9d0220cc           0x50          80   
.text.SYS_CLK_Periphera 0x9d02211c           0x50          80   
.text.sbrk              0x9d02216c           0x50          80   
.text._MACTxPacketAckCa 0x9d0221bc           0x4c          76   
.text._DRV_ETHPHY_Clien 0x9d022208           0x4c          76   
.text._DRV_PHY_NegCompl 0x9d022254           0x4c          76   
.text.DRV_ETHPHY_Reset  0x9d0222a0           0x4c          76   
.text.DRV_ETHPHY_Negoti 0x9d0222ec           0x4c          76   
.text._DRV_ETHPHY_Setup 0x9d022338           0x4c          76   
.text.ReadCommandCharac 0x9d022384           0x4c          76   
.text.SYS_CONSOLE_Tasks 0x9d0223d0           0x4c          76   
.text.UARTDeviceEventHa 0x9d02241c           0x4c          76   
.text.SYS_TMR_TickCount 0x9d022468           0x4c          76   
.text.TCPIP_UDP_Discard 0x9d0224b4           0x4c          76   
.text._TCPIP_HEAP_Callo 0x9d022500           0x4c          76   
.text._ARPRemoveCacheEn 0x9d02254c           0x4c          76   
.text.TCPIP_NBNS_Cleanu 0x9d022598           0x4c          76   
.text.TCPIP_STACK_MACId 0x9d0225e4           0x4c          76   
.text.TCPIP_STACK_DNSSe 0x9d022630           0x4c          76   
.text.TCPIP_Notificatio 0x9d02267c           0x4c          76   
.text.SYS_CLK_Secondary 0x9d0226c8           0x4c          76   
.text.calloc            0x9d022714           0x4c          76   
.text._DRV_ETHPHY_Clien 0x9d022760           0x48          72   
.text._DRV_ETHPHY_Clien 0x9d0227a8           0x48          72   
.text._DRV_ETHPHY_Clien 0x9d0227f0           0x48          72   
.text._DRV_ETHPHY_Clien 0x9d022838           0x48          72   
.text._DRV_ETHPHY_Clien 0x9d022880           0x48          72   
.text._DRV_ETHPHY_Clien 0x9d0228c8           0x48          72   
.text._DRV_ETHPHY_Setup 0x9d022910           0x48          72   
.text.DRV_ETHPHY_Restar 0x9d022958           0x48          72   
.text.DRV_TMR_Close     0x9d0229a0           0x48          72   
.text.SYS_DEVCON_System 0x9d0229e8           0x48          72   
.text.SYS_RESET_Softwar 0x9d022a30           0x48          72   
.text._UDPIsAvailablePo 0x9d022a78           0x48          72   
.text.TCPIP_HEAP_Create 0x9d022ac0           0x48          72   
.text.TCPIP_ARP_Handler 0x9d022b08           0x48          72   
.text._DHCPOptionWriteM 0x9d022b50           0x48          72   
.text.strupr            0x9d022b98           0x48          72   
.text.TCPIP_Helper_Sing 0x9d022be0           0x48          72   
.text.TCPIP_STACK_IPAdd 0x9d022c28           0x48          72   
.text._bootstrap_except 0x9d022c70           0x48          72   
.text._cache_err_except 0x9d022cb8           0x48          72   
.text._simple_tlb_refil 0x9d022d00           0x48          72   
.text.DRV_ETHPHY_Tasks  0x9d022d48           0x44          68   
.rodata                 0x9d022d8c           0x44          68  Read-only const 
.text.TCPIP_UDP_TxPoint 0x9d022dd0           0x44          68   
.text._SwapARPPacket    0x9d022e14           0x44          68   
.text.TCPIP_DHCP_Handle 0x9d022e58           0x44          68   
.text.TCPIP_DNS_ClientD 0x9d022e9c           0x44          68   
.text.TCPIP_Helper_Prot 0x9d022ee0           0x44          68   
.text._TCPIP_STACK_Tick 0x9d022f24           0x44          68   
.text.TCPIP_STACK_NetIs 0x9d022f68           0x44          68   
.text.Ipv4DeRegisterFil 0x9d022fac           0x44          68   
.text.PLIB_ETH_RxSetBuf 0x9d022ff0           0x44          68   
.text                   0x9d023034           0x88         136  App's exec code 
.text._DRV_PHY_SetOperD 0x9d0230bc           0x40          64   
.text._DRV_ETHPHY_NegCo 0x9d0230fc           0x40          64   
.text.SendCommandCharac 0x9d02313c           0x40          64   
.text.TCPIP_Helper_Prot 0x9d02317c           0x40          64   
.text._DRV_ETHMAC_LinkS 0x9d0231bc           0x3c          60   
.text.DRV_ETHMAC_Single 0x9d0231f8           0x3c          60   
.text._DRV_ETHPHY_Clien 0x9d023234           0x3c          60   
.text._DRV_ETHPHY_NegRe 0x9d023270           0x3c          60   
.text.DRV_USART_ClientS 0x9d0232ac           0x3c          60   
.text.SendCommandMessag 0x9d0232e8           0x3c          60   
.text.Console_UART_Read 0x9d023324           0x3c          60   
.text.SYS_DEBUG_Message 0x9d023360           0x3c          60   
.text._UDPTxPktValid    0x9d02339c           0x3c          60   
.text._UDPFreeRxQueue   0x9d0233d8           0x3c          60   
.text._ARPTxAckFnc      0x9d023414           0x3c          60   
.text.TCPIP_ARP_HashKey 0x9d023450           0x3c          60   
.text.LFSRRand          0x9d02348c           0x3c          60   
.text.TCPIP_OAHASH_Init 0x9d0234c8           0x3c          60   
.text.TCPIP_Helper_Sing 0x9d023504           0x3c          60   
.text._TCPIPSignalEntry 0x9d023540           0x3c          60   
.text._TCPIPStackSetCon 0x9d02357c           0x3c          60   
.text._EthMacReset      0x9d0235b8           0x38          56   
.text.DRV_ETHMAC_LibDes 0x9d0235f0           0x38          56   
.text.DRV_ETHMAC_LibRxP 0x9d023628           0x38          56   
.text.DRV_ETHMAC_LibRxS 0x9d023660           0x38          56   
.text.DRV_ETHMAC_LibTxP 0x9d023698           0x38          56   
.text._DRV_PHY_SMIReadS 0x9d0236d0           0x38          56   
.text._DRV_PHY_SMIWrite 0x9d023708           0x38          56   
.text.DRV_ETHPHY_SMISta 0x9d023740           0x38          56   
.text._DRV_ETHPHY_Reset 0x9d023778           0x38          56   
.text.CommandReset      0x9d0237b0           0x38          56   
.text._ARPAllocateTxPac 0x9d0237e8           0x38          56   
.text.TCPIP_STACK_Addre 0x9d023820           0x38          56   
.text.DRV_ETHMAC_LibTxA 0x9d023858           0x34          52   
.text.DRV_ETHPHY_PhyAdd 0x9d02388c           0x34          52   
.text.DRV_ETHPHY_Client 0x9d0238c0           0x34          52   
.text._DRV_ETHPHY_LinkS 0x9d0238f4           0x34          52   
.text._DRV_ETHPHY_NegRe 0x9d023928           0x34          52   
.text._DRV_ETHPHY_NegCo 0x9d02395c           0x34          52   
.text._DRV_ETHPHY_NegRe 0x9d023990           0x34          52   
.text._UDPSocketDcpt    0x9d0239c4           0x34          52   
.text._UDPUpdatePacketL 0x9d0239f8           0x34          52   
.text.TCPIP_STACK_Index 0x9d023a2c           0x34          52   
.text.TCPIP_STACK_NetAd 0x9d023a60           0x34          52   
.text.TCPIP_STACK_DNSSe 0x9d023a94           0x34          52   
.text.TCPIP_STACK_Addre 0x9d023ac8           0x34          52   
.text._TCPIPStackHandle 0x9d023afc           0x34          52   
.text.TCPIP_STACK_NetIs 0x9d023b30           0x34          52   
.text.SYS_INT_SourceRes 0x9d023b64           0x34          52   
.text._MacCallocCallbac 0x9d023b98           0x30          48   
.text.DRV_ETHMAC_PIC32M 0x9d023bc8           0x30          48   
.text.DRV_ETHMAC_Single 0x9d023bf8           0x30          48   
.text.DRV_ETHPHY_Vendor 0x9d023c28           0x30          48   
.text.SYS_CMDIO_GET_HAN 0x9d023c58           0x30          48   
.text.popQueue          0x9d023c88           0x30          48   
.text.SYS_DEBUG_Initial 0x9d023cb8           0x30          48   
.text._TCPIP_HEAP_FreeS 0x9d023ce8           0x30          48   
.text._DHCPSocketRxSign 0x9d023d18           0x30          48   
.text._DNSSocketRxSigna 0x9d023d48           0x30          48   
.text.NBNSSocketRxSigna 0x9d023d78           0x30          48   
.text._TCPIP_AnnounceSo 0x9d023da8           0x30          48   
.text.TCPIP_OAHASH_Entr 0x9d023dd8           0x30          48   
.text.TCPIP_Helper_Sing 0x9d023e08           0x30          48   
.text.TCPIP_STACK_NetAd 0x9d023e38           0x30          48   
.text.TCPIP_STACK_NetMa 0x9d023e68           0x30          48   
.text.TCPIP_STACK_Netwo 0x9d023e98           0x30          48   
.text._TCPIPStackModule 0x9d023ec8           0x30          48   
.rodata                 0x9d023ef8           0x30          48  Read-only const 
.text.free              0x9d023f28           0x30          48   
.text.DRV_ETHPHY_Reinit 0x9d023f58           0x2c          44   
.text.DRV_USART_BufferE 0x9d023f84           0x2c          44   
.text._SYS_TMR_AlarmCal 0x9d023fb0           0x2c          44   
.text.TCPIP_OAHASH_Entr 0x9d023fdc           0x2c          44   
.text.TCPIP_Notificatio 0x9d024008           0x2c          44   
.text._stub_sbd_memlayo 0x9d024034           0x2c          44   
.text._MacTxFreeCallbac 0x9d024060           0x28          40   
.text._DRV_USART_Driver 0x9d024088           0x28          40   
.text.Console_UART_Regi 0x9d0240b0           0x28          40   
.text.SYS_TMR_TickCount 0x9d0240d8           0x28          40   
.text._TCPIP_HEAP_Size  0x9d024100           0x28          40   
.text._TCPIP_HEAP_LastE 0x9d024128           0x28          40   
.text.TCPIP_STACK_NetMA 0x9d024150           0x28          40   
.text._TCPIPStackSignal 0x9d024178           0x28          40   
.text.PLIB_ETH_MACSetMa 0x9d0241a0           0x28          40   
.text.DRV_ETHMAC_PIC32M 0x9d0241c8           0x24          36   
.text.IsCommandReady    0x9d0241ec           0x24          36   
.text.SYS_TMR_TickCount 0x9d024210           0x24          36   
.text.SYS_TMR_SystemCou 0x9d024234           0x24          36   
.text.TCPIP_UDP_Put     0x9d024258           0x24          36   
.text._DHCPOptionWriteE 0x9d02427c           0x24          36   
.text._TCPIPSignalEntry 0x9d0242a0           0x24          36   
.text.DRV_ETHMAC_PIC32M 0x9d0242c4           0x20          32   
.text._DRV_ETHMAC_GetFr 0x9d0242e4           0x20          32   
.text._DRV_ETHMAC_GetFr 0x9d024304           0x20          32   
.text._DRV_ETHMAC_GetFr 0x9d024324           0x20          32   
.text._DRV_ETHMAC_GetFr 0x9d024344           0x20          32   
.text._DRV_ETHMAC_GetFr 0x9d024364           0x20          32   
.text._DRV_ETHMAC_GetAl 0x9d024384           0x20          32   
.text._DRV_ETHMAC_GetSC 0x9d0243a4           0x20          32   
.text._DRV_ETHMAC_GetMC 0x9d0243c4           0x20          32   
.text.DRV_ETHPHY_Close  0x9d0243e4           0x20          32   
.text._DRV_ETHPHY_Clien 0x9d024404           0x20          32   
.text.SYS_CMD_MESSAGE   0x9d024424           0x20          32   
.text.TCPIP_HEAP_Malloc 0x9d024444           0x20          32   
.text.TCPIP_HEAP_Calloc 0x9d024464           0x20          32   
.text.TCPIP_HEAP_Free   0x9d024484           0x20          32   
.text.TCPIP_DNS_OAHASH_ 0x9d0244a4           0x20          32   
.rodata                 0x9d0244c4           0x20          32  Read-only const 
.text.main              0x9d0244e4           0x20          32   
.text.PLIB_ETH_EventsGe 0x9d024504           0x20          32   
.text._DRV_ETHPHY_Clien 0x9d024524           0x1c          28   
.text.DRV_ETHPHY_Vendor 0x9d024540           0x1c          28   
.rodata                 0x9d02455c           0x1c          28  Read-only const 
.text.SYS_RANDOM_Pseudo 0x9d024578           0x1c          28   
.text.SYS_TMR_CallbackS 0x9d024594           0x1c          28   
.text.SYS_TMR_CallbackP 0x9d0245b0           0x1c          28   
.text.TCPIP_UDP_ServerO 0x9d0245cc           0x1c          28   
.text.TCPIP_UDP_ClientO 0x9d0245e8           0x1c          28   
.text.TCPIP_UDP_TxPutIs 0x9d024604           0x1c          28   
.text.TCPIP_UDP_Get     0x9d024620           0x1c          28   
.text.TCPIP_Helper_Chec 0x9d02463c           0x1c          28   
.text.TCPIP_Notificatio 0x9d024658           0x1c          28   
.text.PLIB_ETH_RxFilter 0x9d024674           0x1c          28   
.text.PLIB_ETH_RxFilter 0x9d024690           0x1c          28   
.text.PLIB_ETH_RxFilter 0x9d0246ac           0x1c          28   
.text.srand             0x9d0246c8           0x1c          28   
.text.DRV_ETHPHY_Deinit 0x9d0246e4           0x18          24   
.text.DRV_ETHPHY_Status 0x9d0246fc           0x18          24   
.text.DRV_ETHPHY_Client 0x9d024714           0x18          24   
.text.DRV_ETHPHY_Client 0x9d02472c           0x18          24   
.text.SYS_INT_Initializ 0x9d024744           0x18          24   
.text.SYS_TMR_ModuleSta 0x9d02475c           0x18          24   
.text.TCPIP_ARP_HashKey 0x9d024774           0x18          24   
.text.TCPIP_STACK_NetIx 0x9d02478c           0x18          24   
.text.TCPIP_STACK_Gatew 0x9d0247a4           0x18          24   
.text.TCPIP_STACK_Prima 0x9d0247bc           0x18          24   
.text.TCPIP_STACK_Secon 0x9d0247d4           0x18          24   
.text.APP_Tasks         0x9d0247ec           0x18          24   
.text.PLIB_ETH_EventsEn 0x9d024804           0x18          24   
.text.PLIB_ETH_EventsEn 0x9d02481c           0x18          24   
.text.PLIB_ETH_EventsCl 0x9d024834           0x18          24   
.text                   0x9d02484c           0x18          24  App's exec code 
.text.SYS_DEVCON_Initia 0x9d024864           0x14          20   
.rodata                 0x9d024878           0x10          16  Read-only const 
.text.TCPIP_ARP_HashKey 0x9d024888           0x10          16   
.text.TCPIP_Helper_Sing 0x9d024898           0x10          16   
.text.DRV_ETHMAC_PIC32M 0x9d0248a8            0xc          12   
.text.DRV_EXTPHY_SMIClo 0x9d0248b4            0xc          12   
.text.TCPIP_STACK_Numbe 0x9d0248c0            0xc          12   
.text.TCPIP_STACK_NetBI 0x9d0248cc            0xc          12   
.text.SYS_CLK_SystemFre 0x9d0248d8            0xc          12   
.text.DRV_ETHMAC_PIC32M 0x9d0248e4            0x8           8   
.text.DRV_ETHMAC_PIC32M 0x9d0248ec            0x8           8   
.text._DRV_ETHPHY_Clien 0x9d0248f4            0x8           8   
.text.GetCommandCharact 0x9d0248fc            0x8           8   
.text.SYS_DEBUG_ErrorLe 0x9d024904            0x8           8   
.text.SYS_DEVCON_Tasks  0x9d02490c            0x8           8   
.text._DHCPOptionProces 0x9d024914            0x8           8   
.text.TCPIP_STACK_NetDe 0x9d02491c            0x8           8   
.text.TCPIP_PKT_Deiniti 0x9d024924            0x8           8   
.text.APP_Initialize    0x9d02492c            0x8           8   
.text._on_reset         0x9d024934            0x8           8   
.text._on_bootstrap     0x9d02493c            0x8           8   
.rodata                 0x9d024948            0x8           8  Read-only const 
      Total kseg0_program_mem used  :     0x24948      149832  7.1% of 0x200000

kseg0 Boot-Memory Usage
section                    address  length [bytes]      (dec)  Description
-------                 ----------  -------------------------  -----------
         Total kseg0_boot_mem used  :           0           0  

kseg1 Boot-Memory Usage
section                    address  length [bytes]      (dec)  Description
-------                 ----------  -------------------------  -----------
.reset                  0xbfc00000          0x210         528  Reset handler 
.bev_excpt              0xbfc00380           0x10          16  BEV-Exception 
         Total kseg1_boot_mem used  :       0x220         544  47.2% of 0x480
        --------------------------------------------------------------------------
         Total Program Memory used  :     0x24b68      150376  7.2% of 0x200480
        --------------------------------------------------------------------------


kseg0 Data-Memory Usage
section                    address  length [bytes]      (dec)  Description
-------                 ----------  -------------------------  -----------
.sdata                  0x80000000           0x94         148  Small init data 
.sbss                   0x80000094          0x12c         300  Small uninit data 
.bss                    0x800001c0          0xa64        2660  Uninitialized data 
.bss                    0x80000c24            0xc          12  Uninitialized data 
.bss                    0x800010b0          0x2d4         724  Uninitialized data 
.bss                    0x80001384            0xc          12  Uninitialized data 
.data                   0x80001390          0x140         320  Initialized data 
.bss                    0x800014d0          0x128         296  Uninitialized data 
.data                   0x800015f8           0xb4         180  Initialized data 
.bss                    0x800016ac           0xd4         212  Uninitialized data 
.bss                    0x80001780           0x80         128  Uninitialized data 
.bss                    0x80001800           0x4c          76  Uninitialized data 
.bss                    0x8000184c           0x40          64  Uninitialized data 
.data                   0x8000188c           0x1c          28  Initialized data 
.bss                    0x800018a8           0x28          40  Uninitialized data 
.bss                    0x800018d0           0x10          16  Uninitialized data 
.bss.errno              0x800018e0            0x4           4   
.COHERENTBSS$           0x80000c30          0x480        1152   
         Total kseg0_data_mem used  :      0x18e4        6372  1.2% of 0x80000
        --------------------------------------------------------------------------
            Total Data Memory used  :      0x18e4        6372  1.2% of 0x80000
        --------------------------------------------------------------------------


Dynamic Data-Memory Reservation
section                    address  length [bytes]      (dec)  Description
-------                 ----------  -------------------------  -----------
heap                    0x800018e8        0x10000       65536  Reserved for heap 
stack                   0x80011900        0x6e6f0      452336  Reserved for stack 

        --------------------------------------------------------------------------

Discarded input sections

 .text          0x00000000        0x0 c:/program files (x86)/microchip/xc32/v1.43/bin/bin/../../lib/gcc/pic32mx/4.8.3/../../../../pic32mx/lib/./proc/32MZ2048ECG064/crt0_mips32r2.o
 .data          0x00000000        0x0 c:/program files (x86)/microchip/xc32/v1.43/bin/bin/../../lib/gcc/pic32mx/4.8.3/../../../../pic32mx/lib/./proc/32MZ2048ECG064/crt0_mips32r2.o
 .bss           0x00000000        0x0 c:/program files (x86)/microchip/xc32/v1.43/bin/bin/../../lib/gcc/pic32mx/4.8.3/../../../../pic32mx/lib/./proc/32MZ2048ECG064/crt0_mips32r2.o
 .text          0x00000000        0x0 c:/program files (x86)/microchip/xc32/v1.43/bin/bin/../../lib/gcc/pic32mx/4.8.3/../../../../pic32mx/lib\debug-exception-return.o
 .data          0x00000000        0x0 c:/program files (x86)/microchip/xc32/v1.43/bin/bin/../../lib/gcc/pic32mx/4.8.3/../../../../pic32mx/lib\debug-exception-return.o
 .bss           0x00000000        0x0 c:/program files (x86)/microchip/xc32/v1.43/bin/bin/../../lib/gcc/pic32mx/4.8.3/../../../../pic32mx/lib\debug-exception-return.o
 .reginfo       0x00000000       0x18 c:/program files (x86)/microchip/xc32/v1.43/bin/bin/../../lib/gcc/pic32mx/4.8.3/../../../../pic32mx/lib\debug-exception-return.o
 .text          0x00000000        0x0 build/default/production/_ext/1046770110/ecc.o
 .data          0x00000000        0x0 build/default/production/_ext/1046770110/ecc.o
 .bss           0x00000000        0x0 build/default/production/_ext/1046770110/ecc.o
 .reginfo       0x00000000       0x18 build/default/production/_ext/1046770110/ecc.o
 .text          0x00000000        0x0 build/default/production/_ext/1046770110/ssl-dummy.o
 .data          0x00000000        0x0 build/default/production/_ext/1046770110/ssl-dummy.o
 .bss           0x00000000        0x0 build/default/production/_ext/1046770110/ssl-dummy.o
 .reginfo       0x00000000       0x18 build/default/production/_ext/1046770110/ssl-dummy.o
 .text.GetCA    0x00000000        0x8 build/default/production/_ext/1046770110/ssl-dummy.o
 .text.wolfSSL_dtls
                0x00000000        0x8 build/default/production/_ext/1046770110/ssl-dummy.o
 .text.wolfSSL_get_using_nonblock
                0x00000000        0x8 build/default/production/_ext/1046770110/ssl-dummy.o
 .text.GetCAByName
                0x00000000        0x8 build/default/production/_ext/1046770110/ssl-dummy.o
 .text          0x00000000        0x0 build/default/production/_ext/1046770110/arc4.o
 .data          0x00000000        0x0 build/default/production/_ext/1046770110/arc4.o
 .bss           0x00000000        0x0 build/default/production/_ext/1046770110/arc4.o
 .reginfo       0x00000000       0x18 build/default/production/_ext/1046770110/arc4.o
 .text.wc_Arc4SetKey
                0x00000000       0x78 build/default/production/_ext/1046770110/arc4.o
 .text.wc_Arc4Process
                0x00000000       0x6c build/default/production/_ext/1046770110/arc4.o
 .text          0x00000000        0x0 build/default/production/_ext/1046770110/pwdbased.o
 .data          0x00000000        0x0 build/default/production/_ext/1046770110/pwdbased.o
 .bss           0x00000000        0x0 build/default/production/_ext/1046770110/pwdbased.o
 .reginfo       0x00000000       0x18 build/default/production/_ext/1046770110/pwdbased.o
 .text.wc_PBKDF1
                0x00000000      0x198 build/default/production/_ext/1046770110/pwdbased.o
 .text.GetDigestSize
                0x00000000       0x34 build/default/production/_ext/1046770110/pwdbased.o
 .text.wc_PBKDF2
                0x00000000      0x240 build/default/production/_ext/1046770110/pwdbased.o
 .text.GetPKCS12HashSizes
                0x00000000       0x88 build/default/production/_ext/1046770110/pwdbased.o
 .text.DoPKCS12Hash
                0x00000000      0x1d0 build/default/production/_ext/1046770110/pwdbased.o
 .text.wc_PKCS12_PBKDF
                0x00000000      0x45c build/default/production/_ext/1046770110/pwdbased.o
 .text          0x00000000        0x0 build/default/production/_ext/1046770110/tfm.o
 .data          0x00000000        0x0 build/default/production/_ext/1046770110/tfm.o
 .bss           0x00000000        0x0 build/default/production/_ext/1046770110/tfm.o
 .reginfo       0x00000000       0x18 build/default/production/_ext/1046770110/tfm.o
 .text.CheckRunTimeSettings
                0x00000000        0x8 build/default/production/_ext/1046770110/tfm.o
 .text.CheckRunTimeFastMath
                0x00000000        0x8 build/default/production/_ext/1046770110/tfm.o
 .text.s_fp_add
                0x00000000      0x140 build/default/production/_ext/1046770110/tfm.o
 .text.s_fp_sub
                0x00000000      0x160 build/default/production/_ext/1046770110/tfm.o
 .text.fp_mul_2
                0x00000000       0xb8 build/default/production/_ext/1046770110/tfm.o
 .text.fp_mul_d
                0x00000000      0x134 build/default/production/_ext/1046770110/tfm.o
 .text.fp_mul_comba
                0x00000000      0x24c build/default/production/_ext/1046770110/tfm.o
 .text.fp_mul   0x00000000       0x5c build/default/production/_ext/1046770110/tfm.o
 .text.fp_div_2
                0x00000000       0xec build/default/production/_ext/1046770110/tfm.o
 .text.fp_mod_2d
                0x00000000      0x190 build/default/production/_ext/1046770110/tfm.o
 .text.fp_2expt
                0x00000000       0x74 build/default/production/_ext/1046770110/tfm.o
 .text.fp_sqr_comba
                0x00000000      0x2b0 build/default/production/_ext/1046770110/tfm.o
 .text.fp_sqr   0x00000000       0x40 build/default/production/_ext/1046770110/tfm.o
 .text.fp_cmp_d
                0x00000000       0x54 build/default/production/_ext/1046770110/tfm.o
 .text.fp_cmp_mag
                0x00000000       0xc0 build/default/production/_ext/1046770110/tfm.o
 .text.fp_add   0x00000000       0xa4 build/default/production/_ext/1046770110/tfm.o
 .text.fp_sub   0x00000000       0xa0 build/default/production/_ext/1046770110/tfm.o
 .text.fp_cmp   0x00000000       0x78 build/default/production/_ext/1046770110/tfm.o
 .text.fp_montgomery_setup
                0x00000000       0x5c build/default/production/_ext/1046770110/tfm.o
 .text.fp_montgomery_reduce
                0x00000000      0x220 build/default/production/_ext/1046770110/tfm.o
 .text.fp_read_unsigned_bin
                0x00000000       0xf4 build/default/production/_ext/1046770110/tfm.o
 .text.fp_set   0x00000000       0x44 build/default/production/_ext/1046770110/tfm.o
 .text.fp_is_bit_set
                0x00000000       0x3c build/default/production/_ext/1046770110/tfm.o
 .text.fp_set_bit
                0x00000000       0x48 build/default/production/_ext/1046770110/tfm.o
 .text.fp_count_bits
                0x00000000       0x44 build/default/production/_ext/1046770110/tfm.o
 .text.fp_montgomery_calc_normalization
                0x00000000       0xec build/default/production/_ext/1046770110/tfm.o
 .text.fp_unsigned_bin_size
                0x00000000       0x38 build/default/production/_ext/1046770110/tfm.o
 .text.fp_leading_bit
                0x00000000       0x3c build/default/production/_ext/1046770110/tfm.o
 .text.fp_lshd  0x00000000       0xe8 build/default/production/_ext/1046770110/tfm.o
 .text.fp_mul_2d
                0x00000000      0x1c0 build/default/production/_ext/1046770110/tfm.o
 .text.fp_rshb  0x00000000       0x68 build/default/production/_ext/1046770110/tfm.o
 .text.fp_rshd  0x00000000      0x104 build/default/production/_ext/1046770110/tfm.o
 .text.fp_div_2d
                0x00000000      0x290 build/default/production/_ext/1046770110/tfm.o
 .text.fp_div   0x00000000      0x764 build/default/production/_ext/1046770110/tfm.o
 .text.fp_mod   0x00000000       0xf0 build/default/production/_ext/1046770110/tfm.o
 .text.fp_invmod
                0x00000000      0x8fc build/default/production/_ext/1046770110/tfm.o
 .text.fp_mulmod
                0x00000000       0x74 build/default/production/_ext/1046770110/tfm.o
 .text._fp_exptmod
                0x00000000      0x280 build/default/production/_ext/1046770110/tfm.o
 .text.fp_exptmod
                0x00000000      0x108 build/default/production/_ext/1046770110/tfm.o
 .text.fp_reverse
                0x00000000       0x44 build/default/production/_ext/1046770110/tfm.o
 .text.fp_to_unsigned_bin
                0x00000000       0xd8 build/default/production/_ext/1046770110/tfm.o
 .text.fp_sub_d
                0x00000000       0x64 build/default/production/_ext/1046770110/tfm.o
 .text.mp_init  0x00000000       0x30 build/default/production/_ext/1046770110/tfm.o
 .text.mp_clear
                0x00000000       0x20 build/default/production/_ext/1046770110/tfm.o
 .text.mp_init_multi
                0x00000000       0xc8 build/default/production/_ext/1046770110/tfm.o
 .text.mp_add   0x00000000       0x20 build/default/production/_ext/1046770110/tfm.o
 .text.mp_sub   0x00000000       0x20 build/default/production/_ext/1046770110/tfm.o
 .text.mp_mul   0x00000000       0x20 build/default/production/_ext/1046770110/tfm.o
 .text.mp_mulmod
                0x00000000       0x1c build/default/production/_ext/1046770110/tfm.o
 .text.mp_mod   0x00000000       0x1c build/default/production/_ext/1046770110/tfm.o
 .text.mp_invmod
                0x00000000       0x1c build/default/production/_ext/1046770110/tfm.o
 .text.mp_exptmod
                0x00000000       0x1c build/default/production/_ext/1046770110/tfm.o
 .text.mp_cmp   0x00000000       0x1c build/default/production/_ext/1046770110/tfm.o
 .text.mp_cmp_d
                0x00000000       0x1c build/default/production/_ext/1046770110/tfm.o
 .text.mp_unsigned_bin_size
                0x00000000       0x1c build/default/production/_ext/1046770110/tfm.o
 .text.mp_to_unsigned_bin
                0x00000000       0x20 build/default/production/_ext/1046770110/tfm.o
 .text.mp_read_unsigned_bin
                0x00000000       0x20 build/default/production/_ext/1046770110/tfm.o
 .text.mp_sub_d
                0x00000000       0x20 build/default/production/_ext/1046770110/tfm.o
 .text.mp_mul_2d
                0x00000000       0x20 build/default/production/_ext/1046770110/tfm.o
 .text.mp_div_2d
                0x00000000       0x20 build/default/production/_ext/1046770110/tfm.o
 .text.mp_copy  0x00000000       0x84 build/default/production/_ext/1046770110/tfm.o
 .text.mp_isodd
                0x00000000       0x20 build/default/production/_ext/1046770110/tfm.o
 .text.mp_iszero
                0x00000000        0xc build/default/production/_ext/1046770110/tfm.o
 .text.mp_count_bits
                0x00000000       0x1c build/default/production/_ext/1046770110/tfm.o
 .text.mp_leading_bit
                0x00000000       0x1c build/default/production/_ext/1046770110/tfm.o
 .text.mp_rshb  0x00000000       0x1c build/default/production/_ext/1046770110/tfm.o
 .text.mp_set_int
                0x00000000       0x20 build/default/production/_ext/1046770110/tfm.o
 .text.mp_is_bit_set
                0x00000000       0x1c build/default/production/_ext/1046770110/tfm.o
 .text.mp_set_bit
                0x00000000       0x1c build/default/production/_ext/1046770110/tfm.o
 .text.fp_add_d
                0x00000000       0x64 build/default/production/_ext/1046770110/tfm.o
 .text.mp_add_d
                0x00000000       0x20 build/default/production/_ext/1046770110/tfm.o
 .text          0x00000000        0x0 build/default/production/_ext/1046770110/asn.o
 .data          0x00000000        0x0 build/default/production/_ext/1046770110/asn.o
 .bss           0x00000000        0x0 build/default/production/_ext/1046770110/asn.o
 .reginfo       0x00000000       0x18 build/default/production/_ext/1046770110/asn.o
 .text.OidFromId
                0x00000000      0x658 build/default/production/_ext/1046770110/asn.o
 .text.DateGreaterThan
                0x00000000       0xfc build/default/production/_ext/1046770110/asn.o
 .text.MatchBaseName
                0x00000000      0x1e8 build/default/production/_ext/1046770110/asn.o
 .text.GetLength
                0x00000000       0x98 build/default/production/_ext/1046770110/asn.o
 .text.GetSequence
                0x00000000       0x7c build/default/production/_ext/1046770110/asn.o
 .text.GetSet   0x00000000       0x7c build/default/production/_ext/1046770110/asn.o
 .text.GetName  0x00000000      0x658 build/default/production/_ext/1046770110/asn.o
 .text.GetMyVersion
                0x00000000       0x4c build/default/production/_ext/1046770110/asn.o
 .text.GetInt   0x00000000       0xe0 build/default/production/_ext/1046770110/asn.o
 .text.GetCertHeader
                0x00000000      0x130 build/default/production/_ext/1046770110/asn.o
 .text.GetObjectId
                0x00000000      0x150 build/default/production/_ext/1046770110/asn.o
 .text.GetAlgoId
                0x00000000       0xd8 build/default/production/_ext/1046770110/asn.o
 .text.wc_RsaPrivateKeyDecode
                0x00000000      0x180 build/default/production/_ext/1046770110/asn.o
 .text.ToTraditional
                0x00000000      0x134 build/default/production/_ext/1046770110/asn.o
 .text.ToTraditionalEnc
                0x00000000      0x6a4 build/default/production/_ext/1046770110/asn.o
 .text.wc_RsaPublicKeyDecode
                0x00000000      0x1bc build/default/production/_ext/1046770110/asn.o
 .text.wc_RsaPublicKeyDecodeRaw
                0x00000000       0xfc build/default/production/_ext/1046770110/asn.o
 .text.wc_DhKeyDecode
                0x00000000       0x9c build/default/production/_ext/1046770110/asn.o
 .text.wc_DhParamsLoad
                0x00000000      0x180 build/default/production/_ext/1046770110/asn.o
 .text.wc_DsaPublicKeyDecode
                0x00000000       0xe0 build/default/production/_ext/1046770110/asn.o
 .text.wc_DsaPrivateKeyDecode
                0x00000000      0x120 build/default/production/_ext/1046770110/asn.o
 .text.InitDecodedCert
                0x00000000       0xf4 build/default/production/_ext/1046770110/asn.o
 .text.FreeAltNames
                0x00000000       0x58 build/default/production/_ext/1046770110/asn.o
 .text.FreeNameSubtrees
                0x00000000       0x58 build/default/production/_ext/1046770110/asn.o
 .text.FreeDecodedCert
                0x00000000       0xc0 build/default/production/_ext/1046770110/asn.o
 .text.ValidateDate
                0x00000000      0x2e0 build/default/production/_ext/1046770110/asn.o
 .text.GetDate  0x00000000      0x144 build/default/production/_ext/1046770110/asn.o
 .text.DecodeToKey
                0x00000000      0x248 build/default/production/_ext/1046770110/asn.o
 .text.SetLength
                0x00000000       0x9c build/default/production/_ext/1046770110/asn.o
 .text.SetSequence
                0x00000000       0x28 build/default/production/_ext/1046770110/asn.o
 .text.wc_DsaKeyToDer
                0x00000000      0x2d4 build/default/production/_ext/1046770110/asn.o
 .text.SetOctetString
                0x00000000       0x28 build/default/production/_ext/1046770110/asn.o
 .text.SetSet   0x00000000       0x28 build/default/production/_ext/1046770110/asn.o
 .text.SetImplicit
                0x00000000       0x44 build/default/production/_ext/1046770110/asn.o
 .text.SetExplicit
                0x00000000       0x30 build/default/production/_ext/1046770110/asn.o
 .text.SetAlgoID
                0x00000000      0x120 build/default/production/_ext/1046770110/asn.o
 .text.wc_EncodeSignature
                0x00000000       0xc4 build/default/production/_ext/1046770110/asn.o
 .text.ConfirmSignature
                0x00000000      0x1a0 build/default/production/_ext/1046770110/asn.o
 .text.wc_GetCTC_HashOID
                0x00000000       0x34 build/default/production/_ext/1046770110/asn.o
 .text.ParseCertRelative
                0x00000000     0x12c0 build/default/production/_ext/1046770110/asn.o
 .text.ParseCert
                0x00000000       0xf0 build/default/production/_ext/1046770110/asn.o
 .text.MakeSigner
                0x00000000       0x44 build/default/production/_ext/1046770110/asn.o
 .text.FreeSigner
                0x00000000       0x88 build/default/production/_ext/1046770110/asn.o
 .text.FreeSignerTable
                0x00000000       0x88 build/default/production/_ext/1046770110/asn.o
 .text.SetMyVersion
                0x00000000       0x4c build/default/production/_ext/1046770110/asn.o
 .text.SetSerialNumber
                0x00000000       0x98 build/default/production/_ext/1046770110/asn.o
 .text.GetNameHash
                0x00000000       0xcc build/default/production/_ext/1046770110/asn.o
 .text          0x00000000        0x0 build/default/production/_ext/1046770110/des3.o
 .data          0x00000000        0x0 build/default/production/_ext/1046770110/des3.o
 .bss           0x00000000        0x0 build/default/production/_ext/1046770110/des3.o
 .reginfo       0x00000000       0x18 build/default/production/_ext/1046770110/des3.o
 .text.DesRawProcessBlock
                0x00000000      0x18c build/default/production/_ext/1046770110/des3.o
 .text.DesSetKey
                0x00000000      0x200 build/default/production/_ext/1046770110/des3.o
 .text.Des3ProcessBlock
                0x00000000      0x214 build/default/production/_ext/1046770110/des3.o
 .text.DesProcessBlock
                0x00000000      0x1e8 build/default/production/_ext/1046770110/des3.o
 .text.wc_Des_CbcEncrypt
                0x00000000      0x108 build/default/production/_ext/1046770110/des3.o
 .text.wc_Des_CbcDecrypt
                0x00000000      0x12c build/default/production/_ext/1046770110/des3.o
 .text.wc_Des3_CbcEncrypt
                0x00000000      0x108 build/default/production/_ext/1046770110/des3.o
 .text.wc_Des3_CbcDecrypt
                0x00000000      0x134 build/default/production/_ext/1046770110/des3.o
 .text.wc_Des_SetIV
                0x00000000       0x58 build/default/production/_ext/1046770110/des3.o
 .text.wc_Des_SetKey
                0x00000000       0x50 build/default/production/_ext/1046770110/des3.o
 .text.wc_Des3_SetIV
                0x00000000       0x5c build/default/production/_ext/1046770110/des3.o
 .text.wc_Des3_SetKey
                0x00000000       0xb4 build/default/production/_ext/1046770110/des3.o
 .rodata        0x00000000      0x898 build/default/production/_ext/1046770110/des3.o
 .text          0x00000000        0x0 build/default/production/_ext/1046770110/rsa.o
 .data          0x00000000        0x0 build/default/production/_ext/1046770110/rsa.o
 .bss           0x00000000        0x0 build/default/production/_ext/1046770110/rsa.o
 .reginfo       0x00000000       0x18 build/default/production/_ext/1046770110/rsa.o
 .text.RsaUnPad
                0x00000000      0x10c build/default/production/_ext/1046770110/rsa.o
 .text.wc_RsaFunction
                0x00000000      0x234 build/default/production/_ext/1046770110/rsa.o
 .text.wc_InitRsaKey
                0x00000000       0x6c build/default/production/_ext/1046770110/rsa.o
 .text.wc_FreeRsaKey
                0x00000000        0x8 build/default/production/_ext/1046770110/rsa.o
 .text.wc_RsaPublicEncrypt
                0x00000000      0x138 build/default/production/_ext/1046770110/rsa.o
 .text.wc_RsaPrivateDecryptInline
                0x00000000       0x60 build/default/production/_ext/1046770110/rsa.o
 .text.wc_RsaPrivateDecrypt
                0x00000000       0xf0 build/default/production/_ext/1046770110/rsa.o
 .text.wc_RsaSSL_VerifyInline
                0x00000000       0x60 build/default/production/_ext/1046770110/rsa.o
 .text.wc_RsaSSL_Verify
                0x00000000       0xf0 build/default/production/_ext/1046770110/rsa.o
 .text.wc_RsaSSL_Sign
                0x00000000       0xf4 build/default/production/_ext/1046770110/rsa.o
 .text.wc_RsaEncryptSize
                0x00000000       0x1c build/default/production/_ext/1046770110/rsa.o
 .text.wc_RsaFlattenPublicKey
                0x00000000      0x118 build/default/production/_ext/1046770110/rsa.o
 .text          0x00000000        0x0 build/default/production/_ext/1046770110/aes.o
 .data          0x00000000        0x0 build/default/production/_ext/1046770110/aes.o
 .bss           0x00000000        0x0 build/default/production/_ext/1046770110/aes.o
 .reginfo       0x00000000       0x18 build/default/production/_ext/1046770110/aes.o
 .text.wc_AesSetIV
                0x00000000       0x8c build/default/production/_ext/1046770110/aes.o
 .text.wc_AesSetKey
                0x00000000      0x69c build/default/production/_ext/1046770110/aes.o
 .text.wc_AesCbcEncrypt
                0x00000000      0x698 build/default/production/_ext/1046770110/aes.o
 .text.wc_AesCbcDecrypt
                0x00000000      0x6e8 build/default/production/_ext/1046770110/aes.o
 .rodata        0x00000000     0x2828 build/default/production/_ext/1046770110/aes.o
 .text          0x00000000        0x0 build/default/production/_ext/1046770110/md5.o
 .data          0x00000000        0x0 build/default/production/_ext/1046770110/md5.o
 .bss           0x00000000        0x0 build/default/production/_ext/1046770110/md5.o
 .reginfo       0x00000000       0x18 build/default/production/_ext/1046770110/md5.o
 .text.Transform
                0x00000000      0xa88 build/default/production/_ext/1046770110/md5.o
 .text.wc_InitMd5
                0x00000000       0x40 build/default/production/_ext/1046770110/md5.o
 .text.wc_Md5Update
                0x00000000       0xd0 build/default/production/_ext/1046770110/md5.o
 .text.wc_Md5Final
                0x00000000      0x168 build/default/production/_ext/1046770110/md5.o
 .text.wc_Md5Hash
                0x00000000       0x60 build/default/production/_ext/1046770110/md5.o
 .text          0x00000000        0x0 build/default/production/_ext/1046770110/sha.o
 .data          0x00000000        0x0 build/default/production/_ext/1046770110/sha.o
 .bss           0x00000000        0x0 build/default/production/_ext/1046770110/sha.o
 .reginfo       0x00000000       0x18 build/default/production/_ext/1046770110/sha.o
 .text.Transform
                0x00000000     0x1018 build/default/production/_ext/1046770110/sha.o
 .text.wc_InitSha
                0x00000000       0x50 build/default/production/_ext/1046770110/sha.o
 .text.wc_ShaUpdate
                0x00000000      0x12c build/default/production/_ext/1046770110/sha.o
 .text.wc_ShaFinal
                0x00000000      0x24c build/default/production/_ext/1046770110/sha.o
 .text          0x00000000        0x0 build/default/production/_ext/1046770110/sha256.o
 .data          0x00000000        0x0 build/default/production/_ext/1046770110/sha256.o
 .bss           0x00000000        0x0 build/default/production/_ext/1046770110/sha256.o
 .reginfo       0x00000000       0x18 build/default/production/_ext/1046770110/sha256.o
 .text.Transform
                0x00000000      0x470 build/default/production/_ext/1046770110/sha256.o
 .text.wc_InitSha256
                0x00000000       0x74 build/default/production/_ext/1046770110/sha256.o
 .text.wc_Sha256Update
                0x00000000      0x138 build/default/production/_ext/1046770110/sha256.o
 .text.wc_Sha256Final
                0x00000000      0x290 build/default/production/_ext/1046770110/sha256.o
 .rodata        0x00000000      0x100 build/default/production/_ext/1046770110/sha256.o
 .text          0x00000000        0x0 build/default/production/_ext/1046770110/sha512.o
 .data          0x00000000        0x0 build/default/production/_ext/1046770110/sha512.o
 .bss           0x00000000        0x0 build/default/production/_ext/1046770110/sha512.o
 .reginfo       0x00000000       0x18 build/default/production/_ext/1046770110/sha512.o
 .text          0x00000000        0x0 build/default/production/_ext/1046770110/hmac.o
 .data          0x00000000        0x0 build/default/production/_ext/1046770110/hmac.o
 .bss           0x00000000        0x0 build/default/production/_ext/1046770110/hmac.o
 .reginfo       0x00000000       0x18 build/default/production/_ext/1046770110/hmac.o
 .text.HmacKeyInnerHash
                0x00000000       0x8c build/default/production/_ext/1046770110/hmac.o
 .text.wc_HmacSetKey
                0x00000000      0x208 build/default/production/_ext/1046770110/hmac.o
 .text.wc_HmacUpdate
                0x00000000       0xb4 build/default/production/_ext/1046770110/hmac.o
 .text.wc_HmacFinal
                0x00000000      0x164 build/default/production/_ext/1046770110/hmac.o
 .text.wolfSSL_GetHmacMaxSize
                0x00000000        0x8 build/default/production/_ext/1046770110/hmac.o
 .text          0x00000000        0x0 build/default/production/_ext/1046770110/hash.o
 .data          0x00000000        0x0 build/default/production/_ext/1046770110/hash.o
 .bss           0x00000000        0x0 build/default/production/_ext/1046770110/hash.o
 .reginfo       0x00000000       0x18 build/default/production/_ext/1046770110/hash.o
 .text.wc_HashGetDigestSize
                0x00000000       0x38 build/default/production/_ext/1046770110/hash.o
 .text.wc_Md5GetHash
                0x00000000       0xc4 build/default/production/_ext/1046770110/hash.o
 .text.wc_Md5RestorePos
                0x00000000       0x50 build/default/production/_ext/1046770110/hash.o
 .text.wc_ShaGetHash
                0x00000000       0x94 build/default/production/_ext/1046770110/hash.o
 .text.wc_ShaRestorePos
                0x00000000       0x3c build/default/production/_ext/1046770110/hash.o
 .text.wc_ShaHash
                0x00000000       0x70 build/default/production/_ext/1046770110/hash.o
 .text.wc_Sha256GetHash
                0x00000000       0xc4 build/default/production/_ext/1046770110/hash.o
 .text.wc_Sha256RestorePos
                0x00000000       0x50 build/default/production/_ext/1046770110/hash.o
 .text.wc_Sha256Hash
                0x00000000       0x6c build/default/production/_ext/1046770110/hash.o
 .text.wc_Hash  0x00000000       0xb8 build/default/production/_ext/1046770110/hash.o
 .text          0x00000000        0x0 build/default/production/_ext/1046770110/compress.o
 .data          0x00000000        0x0 build/default/production/_ext/1046770110/compress.o
 .bss           0x00000000        0x0 build/default/production/_ext/1046770110/compress.o
 .reginfo       0x00000000       0x18 build/default/production/_ext/1046770110/compress.o
 .text          0x00000000        0x0 build/default/production/_ext/1107806295/adler32.o
 .data          0x00000000        0x0 build/default/production/_ext/1107806295/adler32.o
 .bss           0x00000000        0x0 build/default/production/_ext/1107806295/adler32.o
 .reginfo       0x00000000       0x18 build/default/production/_ext/1107806295/adler32.o
 .text.adler32_combine_
                0x00000000      0x104 build/default/production/_ext/1107806295/adler32.o
 .text.adler32  0x00000000      0x3f0 build/default/production/_ext/1107806295/adler32.o
 .text.adler32_combine
                0x00000000       0x1c build/default/production/_ext/1107806295/adler32.o
 .text.adler32_combine64
                0x00000000       0x1c build/default/production/_ext/1107806295/adler32.o
 .text          0x00000000        0x0 build/default/production/_ext/1107806295/compress.o
 .data          0x00000000        0x0 build/default/production/_ext/1107806295/compress.o
 .bss           0x00000000        0x0 build/default/production/_ext/1107806295/compress.o
 .reginfo       0x00000000       0x18 build/default/production/_ext/1107806295/compress.o
 .rodata        0x00000000        0x8 build/default/production/_ext/1107806295/compress.o
 .text.compress2
                0x00000000       0xa8 build/default/production/_ext/1107806295/compress.o
 .text.compress
                0x00000000       0x20 build/default/production/_ext/1107806295/compress.o
 .text.compressBound
                0x00000000       0x20 build/default/production/_ext/1107806295/compress.o
 .text          0x00000000        0x0 build/default/production/_ext/1107806295/crc32.o
 .data          0x00000000        0x0 build/default/production/_ext/1107806295/crc32.o
 .bss           0x00000000        0x0 build/default/production/_ext/1107806295/crc32.o
 .reginfo       0x00000000       0x18 build/default/production/_ext/1107806295/crc32.o
 .text.gf2_matrix_times
                0x00000000       0x38 build/default/production/_ext/1107806295/crc32.o
 .text.gf2_matrix_square
                0x00000000       0x60 build/default/production/_ext/1107806295/crc32.o
 .text.crc32_combine_
                0x00000000       0xec build/default/production/_ext/1107806295/crc32.o
 .text.get_crc_table
                0x00000000        0xc build/default/production/_ext/1107806295/crc32.o
 .text.crc32    0x00000000      0x3e8 build/default/production/_ext/1107806295/crc32.o
 .text.crc32_combine
                0x00000000       0x1c build/default/production/_ext/1107806295/crc32.o
 .text.crc32_combine64
                0x00000000       0x1c build/default/production/_ext/1107806295/crc32.o
 .rodata        0x00000000     0x2000 build/default/production/_ext/1107806295/crc32.o
 .text          0x00000000        0x0 build/default/production/_ext/1107806295/deflate.o
 .data          0x00000000        0x0 build/default/production/_ext/1107806295/deflate.o
 .bss           0x00000000        0x0 build/default/production/_ext/1107806295/deflate.o
 .reginfo       0x00000000       0x18 build/default/production/_ext/1107806295/deflate.o
 .text.putShortMSB
                0x00000000       0x38 build/default/production/_ext/1107806295/deflate.o
 .text.longest_match
                0x00000000      0x204 build/default/production/_ext/1107806295/deflate.o
 .text.fill_window
                0x00000000      0x384 build/default/production/_ext/1107806295/deflate.o
 .text.flush_pending
                0x00000000       0xac build/default/production/_ext/1107806295/deflate.o
 .text.deflate_slow
                0x00000000      0x5a4 build/default/production/_ext/1107806295/deflate.o
 .text.deflate_fast
                0x00000000      0x468 build/default/production/_ext/1107806295/deflate.o
 .text.deflate_stored
                0x00000000      0x214 build/default/production/_ext/1107806295/deflate.o
 .text.deflateSetDictionary
                0x00000000      0x26c build/default/production/_ext/1107806295/deflate.o
 .text.deflateResetKeep
                0x00000000       0xf0 build/default/production/_ext/1107806295/deflate.o
 .text.deflateReset
                0x00000000       0xe0 build/default/production/_ext/1107806295/deflate.o
 .text.deflateSetHeader
                0x00000000       0x44 build/default/production/_ext/1107806295/deflate.o
 .text.deflatePending
                0x00000000       0x58 build/default/production/_ext/1107806295/deflate.o
 .text.deflatePrime
                0x00000000       0xdc build/default/production/_ext/1107806295/deflate.o
 .text.deflateTune
                0x00000000       0x40 build/default/production/_ext/1107806295/deflate.o
 .text.deflateBound
                0x00000000      0x108 build/default/production/_ext/1107806295/deflate.o
 .text.deflate  0x00000000     0x1158 build/default/production/_ext/1107806295/deflate.o
 .text.deflateParams
                0x00000000      0x140 build/default/production/_ext/1107806295/deflate.o
 .text.deflateEnd
                0x00000000      0x10c build/default/production/_ext/1107806295/deflate.o
 .text.deflateInit2_
                0x00000000      0x2d0 build/default/production/_ext/1107806295/deflate.o
 .text.deflateInit_
                0x00000000       0x34 build/default/production/_ext/1107806295/deflate.o
 .text.deflateCopy
                0x00000000      0x2a4 build/default/production/_ext/1107806295/deflate.o
 .rodata        0x00000000       0xbc build/default/production/_ext/1107806295/deflate.o
 .text          0x00000000        0x0 build/default/production/_ext/1107806295/infback.o
 .data          0x00000000        0x0 build/default/production/_ext/1107806295/infback.o
 .bss           0x00000000        0x0 build/default/production/_ext/1107806295/infback.o
 .reginfo       0x00000000       0x18 build/default/production/_ext/1107806295/infback.o
 .text.inflateBackInit_
                0x00000000      0x120 build/default/production/_ext/1107806295/infback.o
 .rodata        0x00000000      0x9e8 build/default/production/_ext/1107806295/infback.o
 .text.inflateBack
                0x00000000     0x124c build/default/production/_ext/1107806295/infback.o
 .text.inflateBackEnd
                0x00000000       0x54 build/default/production/_ext/1107806295/infback.o
 .text          0x00000000        0x0 build/default/production/_ext/1107806295/inffast.o
 .data          0x00000000        0x0 build/default/production/_ext/1107806295/inffast.o
 .bss           0x00000000        0x0 build/default/production/_ext/1107806295/inffast.o
 .reginfo       0x00000000       0x18 build/default/production/_ext/1107806295/inffast.o
 .rodata        0x00000000       0x54 build/default/production/_ext/1107806295/inffast.o
 .text.inflate_fast
                0x00000000      0x5d4 build/default/production/_ext/1107806295/inffast.o
 .text          0x00000000        0x0 build/default/production/_ext/1107806295/inflate.o
 .data          0x00000000        0x0 build/default/production/_ext/1107806295/inflate.o
 .bss           0x00000000        0x0 build/default/production/_ext/1107806295/inflate.o
 .reginfo       0x00000000       0x18 build/default/production/_ext/1107806295/inflate.o
 .text.syncsearch
                0x00000000       0x98 build/default/production/_ext/1107806295/inflate.o
 .text.updatewindow
                0x00000000      0x158 build/default/production/_ext/1107806295/inflate.o
 .text.inflateResetKeep
                0x00000000       0x90 build/default/production/_ext/1107806295/inflate.o
 .text.inflateReset
                0x00000000       0x4c build/default/production/_ext/1107806295/inflate.o
 .text.inflateReset2
                0x00000000       0xcc build/default/production/_ext/1107806295/inflate.o
 .text.inflateInit2_
                0x00000000      0x10c build/default/production/_ext/1107806295/inflate.o
 .text.inflateInit_
                0x00000000       0x28 build/default/production/_ext/1107806295/inflate.o
 .text.inflatePrime
                0x00000000       0x90 build/default/production/_ext/1107806295/inflate.o
 .rodata        0x00000000      0xa90 build/default/production/_ext/1107806295/inflate.o
 .text.inflate  0x00000000     0x1b90 build/default/production/_ext/1107806295/inflate.o
 .text.inflateEnd
                0x00000000       0x70 build/default/production/_ext/1107806295/inflate.o
 .text.inflateSetDictionary
                0x00000000      0x11c build/default/production/_ext/1107806295/inflate.o
 .text.inflateGetHeader
                0x00000000       0x4c build/default/production/_ext/1107806295/inflate.o
 .text.inflateSync
                0x00000000      0x154 build/default/production/_ext/1107806295/inflate.o
 .text.inflateSyncPoint
                0x00000000       0x40 build/default/production/_ext/1107806295/inflate.o
 .text.inflateCopy
                0x00000000      0x278 build/default/production/_ext/1107806295/inflate.o
 .text.inflateUndermine
                0x00000000       0x30 build/default/production/_ext/1107806295/inflate.o
 .text.inflateMark
                0x00000000       0x60 build/default/production/_ext/1107806295/inflate.o
 .text          0x00000000        0x0 build/default/production/_ext/1107806295/inftrees.o
 .data          0x00000000        0x0 build/default/production/_ext/1107806295/inftrees.o
 .bss           0x00000000        0x0 build/default/production/_ext/1107806295/inftrees.o
 .reginfo       0x00000000       0x18 build/default/production/_ext/1107806295/inftrees.o
 .text.inflate_table
                0x00000000      0x5a0 build/default/production/_ext/1107806295/inftrees.o
 .rodata        0x00000000      0x130 build/default/production/_ext/1107806295/inftrees.o
 .text          0x00000000        0x0 build/default/production/_ext/1107806295/trees.o
 .data          0x00000000       0x3c build/default/production/_ext/1107806295/trees.o
 .bss           0x00000000        0x0 build/default/production/_ext/1107806295/trees.o
 .reginfo       0x00000000       0x18 build/default/production/_ext/1107806295/trees.o
 .text.init_block
                0x00000000       0x64 build/default/production/_ext/1107806295/trees.o
 .text.pqdownheap
                0x00000000      0x12c build/default/production/_ext/1107806295/trees.o
 .text.scan_tree
                0x00000000      0x130 build/default/production/_ext/1107806295/trees.o
 .text.send_tree
                0x00000000      0x610 build/default/production/_ext/1107806295/trees.o
 .text.compress_block
                0x00000000      0x4d4 build/default/production/_ext/1107806295/trees.o
 .text.build_tree
                0x00000000      0x558 build/default/production/_ext/1107806295/trees.o
 .text.bi_flush
                0x00000000       0x9c build/default/production/_ext/1107806295/trees.o
 .text.bi_windup
                0x00000000       0x80 build/default/production/_ext/1107806295/trees.o
 .text._tr_init
                0x00000000       0x5c build/default/production/_ext/1107806295/trees.o
 .text._tr_stored_block
                0x00000000      0x17c build/default/production/_ext/1107806295/trees.o
 .text._tr_flush_bits
                0x00000000       0x1c build/default/production/_ext/1107806295/trees.o
 .text._tr_align
                0x00000000      0x114 build/default/production/_ext/1107806295/trees.o
 .text._tr_flush_block
                0x00000000      0x680 build/default/production/_ext/1107806295/trees.o
 .text._tr_tally
                0x00000000       0xd4 build/default/production/_ext/1107806295/trees.o
 .rodata        0x00000000      0xa30 build/default/production/_ext/1107806295/trees.o
 .text          0x00000000        0x0 build/default/production/_ext/1107806295/uncompr.o
 .data          0x00000000        0x0 build/default/production/_ext/1107806295/uncompr.o
 .bss           0x00000000        0x0 build/default/production/_ext/1107806295/uncompr.o
 .reginfo       0x00000000       0x18 build/default/production/_ext/1107806295/uncompr.o
 .rodata        0x00000000        0x8 build/default/production/_ext/1107806295/uncompr.o
 .text.uncompress
                0x00000000       0xc4 build/default/production/_ext/1107806295/uncompr.o
 .text          0x00000000        0x0 build/default/production/_ext/1107806295/zutil.o
 .data          0x00000000        0x0 build/default/production/_ext/1107806295/zutil.o
 .bss           0x00000000        0x0 build/default/production/_ext/1107806295/zutil.o
 .reginfo       0x00000000       0x18 build/default/production/_ext/1107806295/zutil.o
 .rodata        0x00000000       0xb4 build/default/production/_ext/1107806295/zutil.o
 .text.zlibVersion
                0x00000000        0xc build/default/production/_ext/1107806295/zutil.o
 .text.zlibCompileFlags
                0x00000000        0x8 build/default/production/_ext/1107806295/zutil.o
 .text.zError   0x00000000       0x1c build/default/production/_ext/1107806295/zutil.o
 .text.zcalloc  0x00000000       0x1c build/default/production/_ext/1107806295/zutil.o
 .text.zcfree   0x00000000       0x1c build/default/production/_ext/1107806295/zutil.o
 .text          0x00000000        0x0 build/default/production/_ext/1046770110/random.o
 .data          0x00000000        0x0 build/default/production/_ext/1046770110/random.o
 .bss           0x00000000        0x0 build/default/production/_ext/1046770110/random.o
 .reginfo       0x00000000       0x18 build/default/production/_ext/1046770110/random.o
 .text.array_add
                0x00000000       0x88 build/default/production/_ext/1046770110/random.o
 .text.Hash_DRBG_Uninstantiate
                0x00000000       0x44 build/default/production/_ext/1046770110/random.o
 .text.Hash_df  0x00000000      0x244 build/default/production/_ext/1046770110/random.o
 .text.Hash_DRBG_Instantiate
                0x00000000       0xd4 build/default/production/_ext/1046770110/random.o
 .text.Hash_DRBG_Reseed
                0x00000000      0x128 build/default/production/_ext/1046770110/random.o
 .text.Hash_DRBG_Generate
                0x00000000      0x42c build/default/production/_ext/1046770110/random.o
 .text.wc_FreeRng
                0x00000000       0x68 build/default/production/_ext/1046770110/random.o
 .text.wc_RNG_HealthTest
                0x00000000      0x10c build/default/production/_ext/1046770110/random.o
 .text.wc_GenerateSeed
                0x00000000       0xd0 build/default/production/_ext/1046770110/random.o
 .text.wc_InitRng
                0x00000000      0x160 build/default/production/_ext/1046770110/random.o
 .text.wc_RNG_GenerateBlock
                0x00000000      0x1a4 build/default/production/_ext/1046770110/random.o
 .text.wc_RNG_GenerateByte
                0x00000000       0x1c build/default/production/_ext/1046770110/random.o
 .rodata        0x00000000      0x180 build/default/production/_ext/1046770110/random.o
 .text          0x00000000        0x0 build/default/production/_ext/1046770110/crypto.o
 .data          0x00000000        0x0 build/default/production/_ext/1046770110/crypto.o
 .bss           0x00000000        0x0 build/default/production/_ext/1046770110/crypto.o
 .reginfo       0x00000000       0x18 build/default/production/_ext/1046770110/crypto.o
 .text.CRYPT_MD5_Initialize
                0x00000000       0x34 build/default/production/_ext/1046770110/crypto.o
 .text.CRYPT_MD5_DataSizeSet
                0x00000000        0xc build/default/production/_ext/1046770110/crypto.o
 .text.CRYPT_MD5_DataAdd
                0x00000000       0x44 build/default/production/_ext/1046770110/crypto.o
 .text.CRYPT_MD5_Finalize
                0x00000000       0x44 build/default/production/_ext/1046770110/crypto.o
 .text.CRYPT_SHA_Initialize
                0x00000000       0x30 build/default/production/_ext/1046770110/crypto.o
 .text.CRYPT_SHA_DataSizeSet
                0x00000000        0xc build/default/production/_ext/1046770110/crypto.o
 .text.CRYPT_SHA_DataAdd
                0x00000000       0x40 build/default/production/_ext/1046770110/crypto.o
 .text.CRYPT_SHA_Finalize
                0x00000000       0x40 build/default/production/_ext/1046770110/crypto.o
 .text.CRYPT_SHA256_Initialize
                0x00000000       0x30 build/default/production/_ext/1046770110/crypto.o
 .text.CRYPT_SHA256_DataSizeSet
                0x00000000        0xc build/default/production/_ext/1046770110/crypto.o
 .text.CRYPT_SHA256_DataAdd
                0x00000000       0x40 build/default/production/_ext/1046770110/crypto.o
 .text.CRYPT_SHA256_Finalize
                0x00000000       0x40 build/default/production/_ext/1046770110/crypto.o
 .text.CRYPT_HMAC_SetKey
                0x00000000       0x54 build/default/production/_ext/1046770110/crypto.o
 .text.CRYPT_HMAC_DataAdd
                0x00000000       0x40 build/default/production/_ext/1046770110/crypto.o
 .text.CRYPT_HMAC_Finalize
                0x00000000       0x40 build/default/production/_ext/1046770110/crypto.o
 .text.CRYPT_RNG_Initialize
                0x00000000       0x30 build/default/production/_ext/1046770110/crypto.o
 .text.CRYPT_RNG_Get
                0x00000000       0x40 build/default/production/_ext/1046770110/crypto.o
 .text.CRYPT_RNG_BlockGenerate
                0x00000000       0x40 build/default/production/_ext/1046770110/crypto.o
 .text.CRYPT_TDES_KeySet
                0x00000000       0x40 build/default/production/_ext/1046770110/crypto.o
 .text.CRYPT_TDES_IvSet
                0x00000000       0x40 build/default/production/_ext/1046770110/crypto.o
 .text.CRYPT_TDES_CBC_Encrypt
                0x00000000       0x50 build/default/production/_ext/1046770110/crypto.o
 .text.CRYPT_TDES_CBC_Decrypt
                0x00000000       0x50 build/default/production/_ext/1046770110/crypto.o
 .text.CRYPT_AES_KeySet
                0x00000000       0x44 build/default/production/_ext/1046770110/crypto.o
 .text.CRYPT_AES_IvSet
                0x00000000       0x40 build/default/production/_ext/1046770110/crypto.o
 .text.CRYPT_AES_CBC_Encrypt
                0x00000000       0x50 build/default/production/_ext/1046770110/crypto.o
 .text.CRYPT_AES_CBC_Decrypt
                0x00000000       0x50 build/default/production/_ext/1046770110/crypto.o
 .text.CRYPT_RSA_Initialize
                0x00000000       0x54 build/default/production/_ext/1046770110/crypto.o
 .text.CRYPT_RSA_Free
                0x00000000       0x50 build/default/production/_ext/1046770110/crypto.o
 .text.CRYPT_RSA_PublicKeyDecode
                0x00000000       0x4c build/default/production/_ext/1046770110/crypto.o
 .text.CRYPT_RSA_PrivateKeyDecode
                0x00000000       0x4c build/default/production/_ext/1046770110/crypto.o
 .text.CRYPT_RSA_PublicEncrypt
                0x00000000       0x70 build/default/production/_ext/1046770110/crypto.o
 .text.CRYPT_RSA_PrivateDecrypt
                0x00000000       0x68 build/default/production/_ext/1046770110/crypto.o
 .text.CRYPT_RSA_EncryptSizeGet
                0x00000000       0x30 build/default/production/_ext/1046770110/crypto.o
 .text.CRYPT_ERROR_StringGet
                0x00000000       0x34 build/default/production/_ext/1046770110/crypto.o
 .text          0x00000000        0x0 build/default/production/_ext/1046770110/coding.o
 .data          0x00000000        0x0 build/default/production/_ext/1046770110/coding.o
 .bss           0x00000000        0x0 build/default/production/_ext/1046770110/coding.o
 .reginfo       0x00000000       0x18 build/default/production/_ext/1046770110/coding.o
 .text.CEscape  0x00000000      0x178 build/default/production/_ext/1046770110/coding.o
 .text.DoBase64_Encode
                0x00000000      0x428 build/default/production/_ext/1046770110/coding.o
 .text.Base64_Decode
                0x00000000      0x2b4 build/default/production/_ext/1046770110/coding.o
 .text.Base64_Encode
                0x00000000       0x1c build/default/production/_ext/1046770110/coding.o
 .text.Base64_EncodeEsc
                0x00000000       0x20 build/default/production/_ext/1046770110/coding.o
 .text.Base64_Encode_NoNl
                0x00000000       0x20 build/default/production/_ext/1046770110/coding.o
 .rodata        0x00000000       0x90 build/default/production/_ext/1046770110/coding.o
 .text          0x00000000        0x0 build/default/production/_ext/1046770110/error.o
 .data          0x00000000        0x0 build/default/production/_ext/1046770110/error.o
 .bss           0x00000000        0x0 build/default/production/_ext/1046770110/error.o
 .reginfo       0x00000000       0x18 build/default/production/_ext/1046770110/error.o
 .rodata        0x00000000      0xe40 build/default/production/_ext/1046770110/error.o
 .text.wc_GetErrorString
                0x00000000      0x748 build/default/production/_ext/1046770110/error.o
 .text.wc_ErrorString
                0x00000000       0x34 build/default/production/_ext/1046770110/error.o
 .text          0x00000000        0x0 build/default/production/_ext/1046770110/integer.o
 .data          0x00000000        0x0 build/default/production/_ext/1046770110/integer.o
 .bss           0x00000000        0x0 build/default/production/_ext/1046770110/integer.o
 .reginfo       0x00000000       0x18 build/default/production/_ext/1046770110/integer.o
 .text          0x00000000        0x0 build/default/production/_ext/1046770110/logging.o
 .data          0x00000000        0x0 build/default/production/_ext/1046770110/logging.o
 .bss           0x00000000        0x0 build/default/production/_ext/1046770110/logging.o
 .reginfo       0x00000000       0x18 build/default/production/_ext/1046770110/logging.o
 .text.wolfSSL_SetLoggingCb
                0x00000000        0x8 build/default/production/_ext/1046770110/logging.o
 .text.wolfSSL_Debugging_ON
                0x00000000        0x8 build/default/production/_ext/1046770110/logging.o
 .text.wolfSSL_Debugging_OFF
                0x00000000        0x8 build/default/production/_ext/1046770110/logging.o
 .text          0x00000000        0x0 build/default/production/_ext/1046770110/memory.o
 .data          0x00000000        0x0 build/default/production/_ext/1046770110/memory.o
 .bss           0x00000000        0x0 build/default/production/_ext/1046770110/memory.o
 .reginfo       0x00000000       0x18 build/default/production/_ext/1046770110/memory.o
 .text.wolfSSL_SetAllocators
                0x00000000       0x38 build/default/production/_ext/1046770110/memory.o
 .text.wolfSSL_Malloc
                0x00000000       0x38 build/default/production/_ext/1046770110/memory.o
 .text.wolfSSL_Free
                0x00000000       0x38 build/default/production/_ext/1046770110/memory.o
 .text.wolfSSL_Realloc
                0x00000000       0x38 build/default/production/_ext/1046770110/memory.o
 .text          0x00000000        0x0 build/default/production/_ext/1046770110/misc.o
 .data          0x00000000        0x0 build/default/production/_ext/1046770110/misc.o
 .bss           0x00000000        0x0 build/default/production/_ext/1046770110/misc.o
 .reginfo       0x00000000       0x18 build/default/production/_ext/1046770110/misc.o
 .text          0x00000000        0x0 build/default/production/_ext/1046770110/port.o
 .data          0x00000000        0x0 build/default/production/_ext/1046770110/port.o
 .bss           0x00000000        0x0 build/default/production/_ext/1046770110/port.o
 .reginfo       0x00000000       0x18 build/default/production/_ext/1046770110/port.o
 .text.wolfCrypt_Init
                0x00000000        0x8 build/default/production/_ext/1046770110/port.o
 .text.InitMutex
                0x00000000        0x8 build/default/production/_ext/1046770110/port.o
 .text.FreeMutex
                0x00000000        0x8 build/default/production/_ext/1046770110/port.o
 .text.LockMutex
                0x00000000        0x8 build/default/production/_ext/1046770110/port.o
 .text.UnLockMutex
                0x00000000        0x8 build/default/production/_ext/1046770110/port.o
 .text          0x00000000        0x0 build/default/production/_ext/508588874/drv_ethmac.o
 .bss           0x00000000        0x0 build/default/production/_ext/508588874/drv_ethmac.o
 .reginfo       0x00000000       0x18 build/default/production/_ext/508588874/drv_ethmac.o
 .text          0x00000000        0x0 build/default/production/_ext/508588874/drv_ethmac_lib.o
 .data          0x00000000        0x0 build/default/production/_ext/508588874/drv_ethmac_lib.o
 .bss           0x00000000        0x0 build/default/production/_ext/508588874/drv_ethmac_lib.o
 .reginfo       0x00000000       0x18 build/default/production/_ext/508588874/drv_ethmac_lib.o
 .text.DRV_ETHMAC_LibDescriptorsPoolRemove
                0x00000000       0xc4 build/default/production/_ext/508588874/drv_ethmac_lib.o
 .text.DRV_ETHMAC_LibTxSendBuffer
                0x00000000       0xe4 build/default/production/_ext/508588874/drv_ethmac_lib.o
 .text.DRV_ETHMAC_LibTxGetBufferStatus
                0x00000000       0x84 build/default/production/_ext/508588874/drv_ethmac_lib.o
 .text.DRV_ETHMAC_LibRxGetBuffer
                0x00000000       0x3c build/default/production/_ext/508588874/drv_ethmac_lib.o
 .text          0x00000000        0x0 build/default/production/_ext/1684742680/drv_ethphy.o
 .data          0x00000000        0x0 build/default/production/_ext/1684742680/drv_ethphy.o
 .bss           0x00000000        0x0 build/default/production/_ext/1684742680/drv_ethphy.o
 .reginfo       0x00000000       0x18 build/default/production/_ext/1684742680/drv_ethphy.o
 .text          0x00000000        0x0 build/default/production/_ext/1684742680/drv_extphy_smsc8740.o
 .data          0x00000000        0x0 build/default/production/_ext/1684742680/drv_extphy_smsc8740.o
 .bss           0x00000000        0x0 build/default/production/_ext/1684742680/drv_extphy_smsc8740.o
 .reginfo       0x00000000       0x18 build/default/production/_ext/1684742680/drv_extphy_smsc8740.o
 .text          0x00000000        0x0 build/default/production/_ext/1895062557/drv_tmr.o
 .data          0x00000000        0x0 build/default/production/_ext/1895062557/drv_tmr.o
 .reginfo       0x00000000       0x18 build/default/production/_ext/1895062557/drv_tmr.o
 .text.DRV_TMR_Deinitialize
                0x00000000       0x54 build/default/production/_ext/1895062557/drv_tmr.o
 .text.DRV_TMR_Status
                0x00000000       0x28 build/default/production/_ext/1895062557/drv_tmr.o
 .text.DRV_TMR_Tasks_ISR
                0x00000000       0x1c build/default/production/_ext/1895062557/drv_tmr.o
 .text.DRV_TMR_ClientStatus
                0x00000000       0x44 build/default/production/_ext/1895062557/drv_tmr.o
 .text.DRV_TMR_CounterValueSet
                0x00000000      0x1ec build/default/production/_ext/1895062557/drv_tmr.o
 .text.DRV_TMR_CounterValue16BitSet
                0x00000000       0x1c build/default/production/_ext/1895062557/drv_tmr.o
 .text.DRV_TMR_CounterValue32BitSet
                0x00000000       0x1c build/default/production/_ext/1895062557/drv_tmr.o
 .text.DRV_TMR_CounterValue16BitGet
                0x00000000       0x20 build/default/production/_ext/1895062557/drv_tmr.o
 .text.DRV_TMR_CounterValue32BitGet
                0x00000000       0x1c build/default/production/_ext/1895062557/drv_tmr.o
 .text.DRV_TMR_CounterClear
                0x00000000      0x1b8 build/default/production/_ext/1895062557/drv_tmr.o
 .text.DRV_TMR_Alarm16BitRegister
                0x00000000       0x20 build/default/production/_ext/1895062557/drv_tmr.o
 .text.DRV_TMR_Alarm32BitRegister
                0x00000000       0x20 build/default/production/_ext/1895062557/drv_tmr.o
 .text.DRV_TMR_AlarmDisable
                0x00000000       0x64 build/default/production/_ext/1895062557/drv_tmr.o
 .text.DRV_TMR_AlarmEnable
                0x00000000       0x60 build/default/production/_ext/1895062557/drv_tmr.o
 .text.DRV_TMR_AlarmPeriodSet
                0x00000000      0x22c build/default/production/_ext/1895062557/drv_tmr.o
 .text.DRV_TMR_AlarmPeriod16BitSet
                0x00000000       0x1c build/default/production/_ext/1895062557/drv_tmr.o
 .text.DRV_TMR_AlarmPeriod32BitSet
                0x00000000       0x1c build/default/production/_ext/1895062557/drv_tmr.o
 .text.DRV_TMR_AlarmPeriodGet
                0x00000000       0x3c build/default/production/_ext/1895062557/drv_tmr.o
 .text.DRV_TMR_AlarmPeriod16BitGet
                0x00000000       0x20 build/default/production/_ext/1895062557/drv_tmr.o
 .text.DRV_TMR_AlarmPeriod32BitGet
                0x00000000       0x1c build/default/production/_ext/1895062557/drv_tmr.o
 .text.DRV_TMR_AlarmDeregister
                0x00000000       0x60 build/default/production/_ext/1895062557/drv_tmr.o
 .text.DRV_TMR_Alarm16BitDeregister
                0x00000000       0x1c build/default/production/_ext/1895062557/drv_tmr.o
 .text.DRV_TMR_Alarm32BitDeregister
                0x00000000       0x1c build/default/production/_ext/1895062557/drv_tmr.o
 .text.DRV_TMR_Stop
                0x00000000       0x80 build/default/production/_ext/1895062557/drv_tmr.o
 .text.DRV_TMR_AlarmHasElapsed
                0x00000000       0x3c build/default/production/_ext/1895062557/drv_tmr.o
 .text.DRV_TMR_OperationModeGet
                0x00000000       0x3c build/default/production/_ext/1895062557/drv_tmr.o
 .text.DRV_TMR_DividerRangeGet
                0x00000000       0x74 build/default/production/_ext/1895062557/drv_tmr.o
 .text.DRV_TMR_GateModeSet
                0x00000000      0x198 build/default/production/_ext/1895062557/drv_tmr.o
 .text.DRV_TMR_GateModeClear
                0x00000000      0x198 build/default/production/_ext/1895062557/drv_tmr.o
 .text.DRV_TMR_ClockSet
                0x00000000       0xa4 build/default/production/_ext/1895062557/drv_tmr.o
 .text.DRV_TMR_PrescalerGet
                0x00000000      0x2a8 build/default/production/_ext/1895062557/drv_tmr.o
 .text          0x00000000        0x0 build/default/production/_ext/1601094287/drv_usart.o
 .data          0x00000000        0x0 build/default/production/_ext/1601094287/drv_usart.o
 .bss           0x00000000        0x0 build/default/production/_ext/1601094287/drv_usart.o
 .reginfo       0x00000000       0x18 build/default/production/_ext/1601094287/drv_usart.o
 .text.DRV_USART_Deinitialize
                0x00000000      0x1c4 build/default/production/_ext/1601094287/drv_usart.o
 .text.DRV_USART_Status
                0x00000000       0x78 build/default/production/_ext/1601094287/drv_usart.o
 .text.DRV_USART_ByteTransmitCallbackSet
                0x00000000       0x54 build/default/production/_ext/1601094287/drv_usart.o
 .text.DRV_USART_ByteReceiveCallbackSet
                0x00000000       0x54 build/default/production/_ext/1601094287/drv_usart.o
 .text.DRV_USART_ByteErrorCallbackSet
                0x00000000       0x54 build/default/production/_ext/1601094287/drv_usart.o
 .text.DRV_USART_ErrorGet
                0x00000000       0x48 build/default/production/_ext/1601094287/drv_usart.o
 .text.DRV_USART_TransferStatus
                0x00000000      0x244 build/default/production/_ext/1601094287/drv_usart.o
 .text._DRV_USART_ClientBufferQueueObjectsRemove
                0x00000000      0x218 build/default/production/_ext/1601094287/drv_usart.o
 .text.DRV_USART_Close
                0x00000000       0x94 build/default/production/_ext/1601094287/drv_usart.o
 .text._DRV_USART_ByteTransmitTasks
                0x00000000       0x7c build/default/production/_ext/1601094287/drv_usart.o
 .text._DRV_USART_ByteReceiveTasks
                0x00000000       0x70 build/default/production/_ext/1601094287/drv_usart.o
 .text._DRV_USART_ByteErrorTasks
                0x00000000       0x70 build/default/production/_ext/1601094287/drv_usart.o
 .text          0x00000000        0x0 build/default/production/_ext/1601094287/drv_usart_buffer_queue.o
 .data          0x00000000        0x0 build/default/production/_ext/1601094287/drv_usart_buffer_queue.o
 .bss           0x00000000        0x0 build/default/production/_ext/1601094287/drv_usart_buffer_queue.o
 .reginfo       0x00000000       0x18 build/default/production/_ext/1601094287/drv_usart_buffer_queue.o
 .text.DRV_USART_AddressedBufferAddWrite
                0x00000000      0x3a4 build/default/production/_ext/1601094287/drv_usart_buffer_queue.o
 .text.DRV_USART_BufferProcessedSizeGet
                0x00000000       0x44 build/default/production/_ext/1601094287/drv_usart_buffer_queue.o
 .text          0x00000000        0x0 build/default/production/_ext/1601094287/drv_usart_read_write.o
 .data          0x00000000        0x0 build/default/production/_ext/1601094287/drv_usart_read_write.o
 .bss           0x00000000        0x0 build/default/production/_ext/1601094287/drv_usart_read_write.o
 .reginfo       0x00000000       0x18 build/default/production/_ext/1601094287/drv_usart_read_write.o
 .text.DRV_USART_Write
                0x00000000      0x4e0 build/default/production/_ext/1601094287/drv_usart_read_write.o
 .text          0x00000000        0x0 build/default/production/_ext/1333902316/sys_command.o
 .data          0x00000000        0x0 build/default/production/_ext/1333902316/sys_command.o
 .reginfo       0x00000000       0x18 build/default/production/_ext/1333902316/sys_command.o
 .text.SYS_CMD_ADDGRP
                0x00000000      0x10c build/default/production/_ext/1333902316/sys_command.o
 .text.SYS_CMD_RegisterCallback
                0x00000000       0x5c build/default/production/_ext/1333902316/sys_command.o
 .text.SYS_CMD_READY_TO_WRITE
                0x00000000       0x88 build/default/production/_ext/1333902316/sys_command.o
 .text.SYS_CMD_READY_TO_READ
                0x00000000       0xf8 build/default/production/_ext/1333902316/sys_command.o
 .text          0x00000000        0x0 build/default/production/_ext/388960396/sys_buffer.o
 .data          0x00000000        0x0 build/default/production/_ext/388960396/sys_buffer.o
 .bss           0x00000000        0x0 build/default/production/_ext/388960396/sys_buffer.o
 .reginfo       0x00000000       0x18 build/default/production/_ext/388960396/sys_buffer.o
 .text.BUFFER_Initialize
                0x00000000       0x48 build/default/production/_ext/388960396/sys_buffer.o
 .text.BUFFER_Reset
                0x00000000       0x18 build/default/production/_ext/388960396/sys_buffer.o
 .text.BUFFER_WriteByte
                0x00000000       0x2c build/default/production/_ext/388960396/sys_buffer.o
 .text.BUFFER_WriteDoubleByte
                0x00000000       0x4c build/default/production/_ext/388960396/sys_buffer.o
 .text.BUFFER_ReadByte
                0x00000000       0x24 build/default/production/_ext/388960396/sys_buffer.o
 .text.BUFFER_ReadDoubleByte
                0x00000000       0x2c build/default/production/_ext/388960396/sys_buffer.o
 .text.BUFFER_Flush
                0x00000000       0x14 build/default/production/_ext/388960396/sys_buffer.o
 .text          0x00000000        0x0 build/default/production/_ext/388960396/sys_queue.o
 .data          0x00000000        0x0 build/default/production/_ext/388960396/sys_queue.o
 .bss           0x00000000        0x0 build/default/production/_ext/388960396/sys_queue.o
 .reginfo       0x00000000       0x18 build/default/production/_ext/388960396/sys_queue.o
 .text.QUEUE_Initialize
                0x00000000       0x18 build/default/production/_ext/388960396/sys_queue.o
 .text.QUEUE_Reset
                0x00000000       0x14 build/default/production/_ext/388960396/sys_queue.o
 .text.QUEUE_Push
                0x00000000       0xb4 build/default/production/_ext/388960396/sys_queue.o
 .text.QUEUE_Pop
                0x00000000       0x34 build/default/production/_ext/388960396/sys_queue.o
 .text          0x00000000        0x0 build/default/production/_ext/877190136/sys_console.o
 .data          0x00000000        0x0 build/default/production/_ext/877190136/sys_console.o
 .reginfo       0x00000000       0x18 build/default/production/_ext/877190136/sys_console.o
 .text.SYS_CONSOLE_Deinitialize
                0x00000000       0x40 build/default/production/_ext/877190136/sys_console.o
 .text.SYS_CONSOLE_Reinitialize
                0x00000000       0x5c build/default/production/_ext/877190136/sys_console.o
 .text.SYS_CONSOLE_RegisterCallback
                0x00000000       0x48 build/default/production/_ext/877190136/sys_console.o
 .text.SYS_CONSOLE_Flush
                0x00000000       0x48 build/default/production/_ext/877190136/sys_console.o
 .text          0x00000000        0x0 build/default/production/_ext/877190136/sys_console_uart.o
 .bss           0x00000000        0x0 build/default/production/_ext/877190136/sys_console_uart.o
 .reginfo       0x00000000       0x18 build/default/production/_ext/877190136/sys_console_uart.o
 .text          0x00000000        0x0 build/default/production/_ext/996864500/sys_debug.o
 .data          0x00000000        0x0 build/default/production/_ext/996864500/sys_debug.o
 .bss           0x00000000      0x400 build/default/production/_ext/996864500/sys_debug.o
 .reginfo       0x00000000       0x18 build/default/production/_ext/996864500/sys_debug.o
 .text.SYS_DEBUG_Reinitialize
                0x00000000       0x2c build/default/production/_ext/996864500/sys_debug.o
 .text.SYS_DEBUG_Deinitialize
                0x00000000       0x1c build/default/production/_ext/996864500/sys_debug.o
 .text.SYS_DEBUG_Tasks
                0x00000000        0x8 build/default/production/_ext/996864500/sys_debug.o
 .text.SYS_DEBUG_Status
                0x00000000        0xc build/default/production/_ext/996864500/sys_debug.o
 .text.SYS_DEBUG_Print
                0x00000000       0xf8 build/default/production/_ext/996864500/sys_debug.o
 .text.SYS_DEBUG_ErrorLevelSet
                0x00000000        0x8 build/default/production/_ext/996864500/sys_debug.o
 .text          0x00000000        0x0 build/default/production/_ext/1470476842/sys_devcon.o
 .data          0x00000000        0x0 build/default/production/_ext/1470476842/sys_devcon.o
 .bss           0x00000000        0x0 build/default/production/_ext/1470476842/sys_devcon.o
 .reginfo       0x00000000       0x18 build/default/production/_ext/1470476842/sys_devcon.o
 .text.SYS_DEVCON_Reinitialize
                0x00000000       0x10 build/default/production/_ext/1470476842/sys_devcon.o
 .text.SYS_DEVCON_Deinitialize
                0x00000000        0x8 build/default/production/_ext/1470476842/sys_devcon.o
 .text.SYS_DEVCON_Status
                0x00000000        0x8 build/default/production/_ext/1470476842/sys_devcon.o
 .text.SYS_DEVCON_JTAGEnable
                0x00000000       0x18 build/default/production/_ext/1470476842/sys_devcon.o
 .text.SYS_DEVCON_JTAGDisable
                0x00000000       0x18 build/default/production/_ext/1470476842/sys_devcon.o
 .text.SYS_DEVCON_TraceEnable
                0x00000000       0x18 build/default/production/_ext/1470476842/sys_devcon.o
 .text.SYS_DEVCON_TraceDisable
                0x00000000       0x18 build/default/production/_ext/1470476842/sys_devcon.o
 .text.SYS_DEVCON_PowerModeEnter
                0x00000000       0x50 build/default/production/_ext/1470476842/sys_devcon.o
 .text          0x00000000        0x0 build/default/production/_ext/1470476842/sys_devcon_pic32mz.o
 .data          0x00000000        0x0 build/default/production/_ext/1470476842/sys_devcon_pic32mz.o
 .bss           0x00000000        0x0 build/default/production/_ext/1470476842/sys_devcon_pic32mz.o
 .reginfo       0x00000000       0x18 build/default/production/_ext/1470476842/sys_devcon_pic32mz.o
 .text.SYS_DEVCON_CacheInit
                0x00000000       0x24 build/default/production/_ext/1470476842/sys_devcon_pic32mz.o
 .text.SYS_DEVCON_CacheFlush
                0x00000000       0x24 build/default/production/_ext/1470476842/sys_devcon_pic32mz.o
 .text.SYS_DEVCON_DataCacheFlush
                0x00000000       0x24 build/default/production/_ext/1470476842/sys_devcon_pic32mz.o
 .text.SYS_DEVCON_InstructionCacheFlush
                0x00000000       0x24 build/default/production/_ext/1470476842/sys_devcon_pic32mz.o
 .text.SYS_DEVCON_CacheClean
                0x00000000       0x24 build/default/production/_ext/1470476842/sys_devcon_pic32mz.o
 .text.SYS_DEVCON_DataCacheClean
                0x00000000       0x24 build/default/production/_ext/1470476842/sys_devcon_pic32mz.o
 .text.SYS_DEVCON_DataCacheInvalidate
                0x00000000       0x24 build/default/production/_ext/1470476842/sys_devcon_pic32mz.o
 .text.SYS_DEVCON_InstructionCacheInvalidate
                0x00000000       0x24 build/default/production/_ext/1470476842/sys_devcon_pic32mz.o
 .text.SYS_DEVCON_InstructionCacheLock
                0x00000000       0x24 build/default/production/_ext/1470476842/sys_devcon_pic32mz.o
 .text.SYS_DEVCON_DataCacheLock
                0x00000000       0x24 build/default/production/_ext/1470476842/sys_devcon_pic32mz.o
 .text.SYS_DEVCON_CacheSync
                0x00000000       0x24 build/default/production/_ext/1470476842/sys_devcon_pic32mz.o
 .text.SYS_DEVCON_CacheCoherencySet
                0x00000000       0x28 build/default/production/_ext/1470476842/sys_devcon_pic32mz.o
 .text.SYS_DEVCON_CacheCoherencyGet
                0x00000000       0x1c build/default/production/_ext/1470476842/sys_devcon_pic32mz.o
 .text.SYS_DEVCON_DataCacheAssociativityGet
                0x00000000       0x24 build/default/production/_ext/1470476842/sys_devcon_pic32mz.o
 .text.SYS_DEVCON_InstructionCacheAssociativityGet
                0x00000000       0x24 build/default/production/_ext/1470476842/sys_devcon_pic32mz.o
 .text.SYS_DEVCON_DataCacheLineSizeGet
                0x00000000       0x24 build/default/production/_ext/1470476842/sys_devcon_pic32mz.o
 .text.SYS_DEVCON_InstructionCacheLineSizeGet
                0x00000000       0x24 build/default/production/_ext/1470476842/sys_devcon_pic32mz.o
 .text.SYS_DEVCON_DataCacheLinesPerWayGet
                0x00000000       0x24 build/default/production/_ext/1470476842/sys_devcon_pic32mz.o
 .text.SYS_DEVCON_InstructionCacheLinesPerWayGet
                0x00000000       0x24 build/default/production/_ext/1470476842/sys_devcon_pic32mz.o
 .text.SYS_DEVCON_DataCacheSizeGet
                0x00000000       0x24 build/default/production/_ext/1470476842/sys_devcon_pic32mz.o
 .text.SYS_DEVCON_InstructionCacheSizeGet
                0x00000000       0x24 build/default/production/_ext/1470476842/sys_devcon_pic32mz.o
 .text          0x00000000      0x6bc build/default/production/_ext/1470476842/sys_devcon_cache_pic32mz.o
 .data          0x00000000        0x0 build/default/production/_ext/1470476842/sys_devcon_cache_pic32mz.o
 .bss           0x00000000        0x0 build/default/production/_ext/1470476842/sys_devcon_cache_pic32mz.o
 .reginfo       0x00000000       0x18 build/default/production/_ext/1470476842/sys_devcon_cache_pic32mz.o
 .debug_line    0x00000000      0x22a build/default/production/_ext/1470476842/sys_devcon_cache_pic32mz.o
 .debug_info    0x00000000       0xa8 build/default/production/_ext/1470476842/sys_devcon_cache_pic32mz.o
 .debug_abbrev  0x00000000       0x14 build/default/production/_ext/1470476842/sys_devcon_cache_pic32mz.o
 .debug_aranges
                0x00000000       0x20 build/default/production/_ext/1470476842/sys_devcon_cache_pic32mz.o
 .text          0x00000000        0x0 build/default/production/_ext/1979725680/sys_int_pic32.o
 .data          0x00000000        0x0 build/default/production/_ext/1979725680/sys_int_pic32.o
 .bss           0x00000000        0x0 build/default/production/_ext/1979725680/sys_int_pic32.o
 .reginfo       0x00000000       0x18 build/default/production/_ext/1979725680/sys_int_pic32.o
 .text.SYS_INT_StatusGetAndDisable
                0x00000000       0x1c build/default/production/_ext/1979725680/sys_int_pic32.o
 .text.SYS_INT_StatusRestore
                0x00000000       0x1c build/default/production/_ext/1979725680/sys_int_pic32.o
 .text.SYS_INT_Disable
                0x00000000       0x20 build/default/production/_ext/1979725680/sys_int_pic32.o
 .text.SYS_INT_ExternalInterruptTriggerSet
                0x00000000       0x34 build/default/production/_ext/1979725680/sys_int_pic32.o
 .text          0x00000000        0x0 build/default/production/_ext/1966875597/sys_ports.o
 .data          0x00000000        0x0 build/default/production/_ext/1966875597/sys_ports.o
 .bss           0x00000000        0x0 build/default/production/_ext/1966875597/sys_ports.o
 .reginfo       0x00000000       0x18 build/default/production/_ext/1966875597/sys_ports.o
 .text.SYS_PORTS_Read
                0x00000000       0x34 build/default/production/_ext/1966875597/sys_ports.o
 .text.SYS_PORTS_Write
                0x00000000       0x2c build/default/production/_ext/1966875597/sys_ports.o
 .text.SYS_PORTS_Set
                0x00000000       0x34 build/default/production/_ext/1966875597/sys_ports.o
 .text.SYS_PORTS_Clear
                0x00000000       0x30 build/default/production/_ext/1966875597/sys_ports.o
 .text.SYS_PORTS_DirectionSelect
                0x00000000       0x6c build/default/production/_ext/1966875597/sys_ports.o
 .text.SYS_PORTS_DirectionGet
                0x00000000       0x34 build/default/production/_ext/1966875597/sys_ports.o
 .text.SYS_PORTS_Toggle
                0x00000000       0x30 build/default/production/_ext/1966875597/sys_ports.o
 .text.SYS_PORTS_OpenDrainEnable
                0x00000000       0x30 build/default/production/_ext/1966875597/sys_ports.o
 .text.SYS_PORTS_OpenDrainDisable
                0x00000000       0x30 build/default/production/_ext/1966875597/sys_ports.o
 .text.SYS_PORTS_ChangeNotificationGlobalEnable
                0x00000000        0x8 build/default/production/_ext/1966875597/sys_ports.o
 .text.SYS_PORTS_ChangeNotificationGlobalDisable
                0x00000000        0x8 build/default/production/_ext/1966875597/sys_ports.o
 .text.SYS_PORTS_GlobalChangeNotificationDisable
                0x00000000        0x8 build/default/production/_ext/1966875597/sys_ports.o
 .text.SYS_PORTS_ChangeNotificationEnable
                0x00000000        0x8 build/default/production/_ext/1966875597/sys_ports.o
 .text.SYS_PORTS_ChangeNotificationDisable
                0x00000000        0x8 build/default/production/_ext/1966875597/sys_ports.o
 .text.SYS_PORTS_ChangeNotificationInIdleModeEnable
                0x00000000        0x8 build/default/production/_ext/1966875597/sys_ports.o
 .text.SYS_PORTS_ChangeNotificationInIdleModeDisable
                0x00000000        0x8 build/default/production/_ext/1966875597/sys_ports.o
 .text.SYS_PORTS_ChangeNotificationPullUpEnable
                0x00000000        0x8 build/default/production/_ext/1966875597/sys_ports.o
 .text.SYS_PORTS_ChangeNotificationPullUpDisable
                0x00000000        0x8 build/default/production/_ext/1966875597/sys_ports.o
 .text.SYS_PORTS_PinModeSelect
                0x00000000       0x68 build/default/production/_ext/1966875597/sys_ports.o
 .text.SYS_PORTS_PinWrite
                0x00000000       0x70 build/default/production/_ext/1966875597/sys_ports.o
 .text.SYS_PORTS_PinRead
                0x00000000       0x40 build/default/production/_ext/1966875597/sys_ports.o
 .text.SYS_PORTS_PinToggle
                0x00000000       0x38 build/default/production/_ext/1966875597/sys_ports.o
 .text.SYS_PORTS_PinSet
                0x00000000       0x38 build/default/production/_ext/1966875597/sys_ports.o
 .text.SYS_PORTS_PinClear
                0x00000000       0x38 build/default/production/_ext/1966875597/sys_ports.o
 .text.SYS_PORTS_PinDirectionSelect
                0x00000000       0x78 build/default/production/_ext/1966875597/sys_ports.o
 .text.SYS_PORTS_PinOpenDrainEnable
                0x00000000       0x38 build/default/production/_ext/1966875597/sys_ports.o
 .text.SYS_PORTS_PinOpenDrainDisable
                0x00000000       0x38 build/default/production/_ext/1966875597/sys_ports.o
 .text.SYS_PORTS_RemapInput
                0x00000000       0x60 build/default/production/_ext/1966875597/sys_ports.o
 .text.SYS_PORTS_RemapOutput
                0x00000000       0x6c build/default/production/_ext/1966875597/sys_ports.o
 .text          0x00000000        0x0 build/default/production/_ext/1457815988/sys_random.o
 .data          0x00000000        0x0 build/default/production/_ext/1457815988/sys_random.o
 .reginfo       0x00000000       0x18 build/default/production/_ext/1457815988/sys_random.o
 .text.SYS_RANDOM_Deinitialize
                0x00000000        0xc build/default/production/_ext/1457815988/sys_random.o
 .text.SYS_RANDOM_PseudoSeedSet
                0x00000000       0x1c build/default/production/_ext/1457815988/sys_random.o
 .text.SYS_RANDOM_CryptoSeedSet
                0x00000000        0x8 build/default/production/_ext/1457815988/sys_random.o
 .text.SYS_RANDOM_CryptoSeedSizeGet
                0x00000000       0x24 build/default/production/_ext/1457815988/sys_random.o
 .text.SYS_RANDOM_CryptoGet
                0x00000000       0x30 build/default/production/_ext/1457815988/sys_random.o
 .text.SYS_RANDOM_CryptoBlockGet
                0x00000000       0x38 build/default/production/_ext/1457815988/sys_random.o
 .text.SYS_RANDOM_CryptoByteGet
                0x00000000       0x2c build/default/production/_ext/1457815988/sys_random.o
 .text.SYS_RANDOM_CryptoEntropyAdd
                0x00000000        0x8 build/default/production/_ext/1457815988/sys_random.o
 COMMON         0x00000000      0x108 build/default/production/_ext/1457815988/sys_random.o
 .text          0x00000000        0x0 build/default/production/_ext/1076061456/sys_reset.o
 .data          0x00000000        0x0 build/default/production/_ext/1076061456/sys_reset.o
 .bss           0x00000000        0x0 build/default/production/_ext/1076061456/sys_reset.o
 .reginfo       0x00000000       0x18 build/default/production/_ext/1076061456/sys_reset.o
 .text.SYS_RESET_ReasonGet
                0x00000000       0x10 build/default/production/_ext/1076061456/sys_reset.o
 .text.SYS_RESET_ReasonClear
                0x00000000       0x1c build/default/production/_ext/1076061456/sys_reset.o
 .text.SYS_RESET_NMIDelayCountSet
                0x00000000       0x4c build/default/production/_ext/1076061456/sys_reset.o
 .text          0x00000000        0x0 build/default/production/_ext/837595974/sys_tmr.o
 .data          0x00000000        0x0 build/default/production/_ext/837595974/sys_tmr.o
 .reginfo       0x00000000       0x18 build/default/production/_ext/837595974/sys_tmr.o
 .text.SYS_TMR_Deinitialize
                0x00000000       0xd0 build/default/production/_ext/837595974/sys_tmr.o
 .text.SYS_TMR_Status
                0x00000000       0x20 build/default/production/_ext/837595974/sys_tmr.o
 .text.SYS_TMR_ObjectCreate
                0x00000000       0x1c build/default/production/_ext/837595974/sys_tmr.o
 .text.SYS_TMR_ObjectReload
                0x00000000       0xb4 build/default/production/_ext/837595974/sys_tmr.o
 .text.SYS_TMR_ObjectCountGet
                0x00000000       0xe4 build/default/production/_ext/837595974/sys_tmr.o
 .text.SYS_TMR_CallbackSingle
                0x00000000       0x1c build/default/production/_ext/837595974/sys_tmr.o
 .text.SYS_TMR_DelayMS
                0x00000000       0x24 build/default/production/_ext/837595974/sys_tmr.o
 .text.SYS_TMR_DelayStatusGet
                0x00000000       0x20 build/default/production/_ext/837595974/sys_tmr.o
 .text          0x00000000        0x0 build/default/production/_ext/1406599153/tcp.o
 .data          0x00000000        0x0 build/default/production/_ext/1406599153/tcp.o
 .bss           0x00000000        0x0 build/default/production/_ext/1406599153/tcp.o
 .reginfo       0x00000000       0x18 build/default/production/_ext/1406599153/tcp.o
 .text._TCP_TxPktValid
                0x00000000       0x24 build/default/production/_ext/1406599153/tcp.o
 .text._TcpSocketChk
                0x00000000       0x34 build/default/production/_ext/1406599153/tcp.o
 .text._TCPSocketTxFreeSize
                0x00000000       0x58 build/default/production/_ext/1406599153/tcp.o
 .text._TCPIsGetReady
                0x00000000       0x3c build/default/production/_ext/1406599153/tcp.o
 .text._TCP_PortIsAvailable
                0x00000000       0x54 build/default/production/_ext/1406599153/tcp.o
 .text._TCP_EphemeralPortAllocate
                0x00000000       0x7c build/default/production/_ext/1406599153/tcp.o
 .text._TcpClientSocketConnect
                0x00000000       0x84 build/default/production/_ext/1406599153/tcp.o
 .text._TCP_Open
                0x00000000      0x360 build/default/production/_ext/1406599153/tcp.o
 .text._TcpFlush
                0x00000000       0x50 build/default/production/_ext/1406599153/tcp.o
 .text._TCPSendWinIncUpdate
                0x00000000       0xa0 build/default/production/_ext/1406599153/tcp.o
 .text.TCPIP_TCP_ConnectionSetToMSS
                0x00000000       0x10 build/default/production/_ext/1406599153/tcp.o
 .text.TCPIP_TCP_ServerOpen
                0x00000000       0xfc build/default/production/_ext/1406599153/tcp.o
 .text.TCPIP_TCP_ClientOpen
                0x00000000       0x40 build/default/production/_ext/1406599153/tcp.o
 .text.TCPIP_TCP_WasReset
                0x00000000       0x48 build/default/production/_ext/1406599153/tcp.o
 .text.TCPIP_TCP_IsConnected
                0x00000000       0x40 build/default/production/_ext/1406599153/tcp.o
 .text.TCPIP_TCP_Disconnect
                0x00000000       0x3c build/default/production/_ext/1406599153/tcp.o
 .text.TCPIP_TCP_Abort
                0x00000000       0x38 build/default/production/_ext/1406599153/tcp.o
 .text.TCPIP_TCP_Connect
                0x00000000       0x60 build/default/production/_ext/1406599153/tcp.o
 .text.TCPIP_TCP_Close
                0x00000000       0x68 build/default/production/_ext/1406599153/tcp.o
 .text.TCPIP_TCP_SocketInfoGet
                0x00000000       0x74 build/default/production/_ext/1406599153/tcp.o
 .text.TCPIP_TCP_SocketsNumberGet
                0x00000000        0x8 build/default/production/_ext/1406599153/tcp.o
 .text.TCPIP_TCP_Flush
                0x00000000       0x4c build/default/production/_ext/1406599153/tcp.o
 .text.TCPIP_TCP_PutIsReady
                0x00000000       0x40 build/default/production/_ext/1406599153/tcp.o
 .text.TCPIP_TCP_ArrayPut
                0x00000000      0x29c build/default/production/_ext/1406599153/tcp.o
 .text.TCPIP_TCP_Put
                0x00000000       0x24 build/default/production/_ext/1406599153/tcp.o
 .text.TCPIP_TCP_StringPut
                0x00000000       0x48 build/default/production/_ext/1406599153/tcp.o
 .text.TCPIP_TCP_FifoTxFullGet
                0x00000000       0x64 build/default/production/_ext/1406599153/tcp.o
 .text.TCPIP_TCP_FifoTxFreeGet
                0x00000000       0x50 build/default/production/_ext/1406599153/tcp.o
 .text.TCPIP_TCP_Discard
                0x00000000       0x60 build/default/production/_ext/1406599153/tcp.o
 .text.TCPIP_TCP_GetIsReady
                0x00000000       0x34 build/default/production/_ext/1406599153/tcp.o
 .text.TCPIP_TCP_ArrayGet
                0x00000000      0x18c build/default/production/_ext/1406599153/tcp.o
 .text.TCPIP_TCP_Get
                0x00000000       0x1c build/default/production/_ext/1406599153/tcp.o
 .text.TCPIP_TCP_FifoRxFreeGet
                0x00000000       0x4c build/default/production/_ext/1406599153/tcp.o
 .text.TCPIP_TCP_ArrayPeek
                0x00000000       0xe4 build/default/production/_ext/1406599153/tcp.o
 .text.TCPIP_TCP_Peek
                0x00000000       0x28 build/default/production/_ext/1406599153/tcp.o
 .text.TCPIP_TCP_ArrayFind
                0x00000000      0x398 build/default/production/_ext/1406599153/tcp.o
 .text.TCPIP_TCP_Find
                0x00000000       0x38 build/default/production/_ext/1406599153/tcp.o
 .text.TCPIP_TCP_FifoSizeAdjust
                0x00000000      0x4c4 build/default/production/_ext/1406599153/tcp.o
 .text.TCPIP_TCP_SocketNetSet
                0x00000000       0x48 build/default/production/_ext/1406599153/tcp.o
 .text.TCPIP_TCP_SocketNetGet
                0x00000000       0x28 build/default/production/_ext/1406599153/tcp.o
 .text.TCPIP_TCP_Bind
                0x00000000      0x134 build/default/production/_ext/1406599153/tcp.o
 .text.TCPIP_TCP_OptionsSet
                0x00000000      0x194 build/default/production/_ext/1406599153/tcp.o
 .text.TCPIP_TCP_OptionsGet
                0x00000000      0x158 build/default/production/_ext/1406599153/tcp.o
 .text.TCPIP_TCP_DestinationIPAddressSet
                0x00000000       0x74 build/default/production/_ext/1406599153/tcp.o
 .text.TCPIP_TCP_RemoteBind
                0x00000000       0x88 build/default/production/_ext/1406599153/tcp.o
 .text.TCPIP_TCP_SourceIPAddressSet
                0x00000000       0x50 build/default/production/_ext/1406599153/tcp.o
 .text.TCPIP_TCP_SignalHandlerRegister
                0x00000000       0x64 build/default/production/_ext/1406599153/tcp.o
 .text.TCPIP_TCP_SignalHandlerDeregister
                0x00000000       0x48 build/default/production/_ext/1406599153/tcp.o
 .text          0x00000000        0x0 build/default/production/_ext/1406599153/udp.o
 .data          0x00000000        0x0 build/default/production/_ext/1406599153/udp.o
 .bss           0x00000000        0x0 build/default/production/_ext/1406599153/udp.o
 .reginfo       0x00000000       0x18 build/default/production/_ext/1406599153/udp.o
 .text.TCPIP_UDP_IsConnected
                0x00000000       0x20 build/default/production/_ext/1406599153/udp.o
 .text.TCPIP_UDP_Disconnect
                0x00000000       0xe0 build/default/production/_ext/1406599153/udp.o
 .text.TCPIP_UDP_StringPut
                0x00000000       0x60 build/default/production/_ext/1406599153/udp.o
 .text.TCPIP_UDP_TxCountGet
                0x00000000       0x54 build/default/production/_ext/1406599153/udp.o
 .text.TCPIP_UDP_RxOffsetSet
                0x00000000       0x80 build/default/production/_ext/1406599153/udp.o
 .text.TCPIP_UDP_SocketNetGet
                0x00000000       0x28 build/default/production/_ext/1406599153/udp.o
 .text.TCPIP_UDP_DestinationPortSet
                0x00000000       0x48 build/default/production/_ext/1406599153/udp.o
 .text.TCPIP_UDP_SetSplitPayload
                0x00000000       0xc0 build/default/production/_ext/1406599153/udp.o
 .text.TCPIP_UDP_SignalHandlerDeregister
                0x00000000       0x48 build/default/production/_ext/1406599153/udp.o
 .text          0x00000000        0x0 build/default/production/_ext/1406599153/tcpip_heap_alloc.o
 .data          0x00000000        0x0 build/default/production/_ext/1406599153/tcpip_heap_alloc.o
 .bss           0x00000000        0x0 build/default/production/_ext/1406599153/tcpip_heap_alloc.o
 .reginfo       0x00000000       0x18 build/default/production/_ext/1406599153/tcpip_heap_alloc.o
 .text._TCPIP_HEAP_PointerMapCached
                0x00000000       0x20 build/default/production/_ext/1406599153/tcpip_heap_alloc.o
 .text          0x00000000        0x0 build/default/production/_ext/1406599153/tcpip_heap_internal.o
 .data          0x00000000        0x0 build/default/production/_ext/1406599153/tcpip_heap_internal.o
 .bss           0x00000000        0x0 build/default/production/_ext/1406599153/tcpip_heap_internal.o
 .reginfo       0x00000000       0x18 build/default/production/_ext/1406599153/tcpip_heap_internal.o
 .text          0x00000000        0x0 build/default/production/_ext/1406599153/arp.o
 .data          0x00000000        0x0 build/default/production/_ext/1406599153/arp.o
 .reginfo       0x00000000       0x18 build/default/production/_ext/1406599153/arp.o
 .text.TCPIP_ARP_Resolve
                0x00000000       0x78 build/default/production/_ext/1406599153/arp.o
 .text.TCPIP_ARP_EntrySet
                0x00000000      0x174 build/default/production/_ext/1406599153/arp.o
 .text.TCPIP_ARP_EntryRemoveAll
                0x00000000       0xe8 build/default/production/_ext/1406599153/arp.o
 .text.TCPIP_ARP_EntryQuery
                0x00000000      0x110 build/default/production/_ext/1406599153/arp.o
 .text.TCPIP_ARP_CacheEntriesNoGet
                0x00000000       0xd8 build/default/production/_ext/1406599153/arp.o
 .text.TCPIP_ARP_CacheThresholdSet
                0x00000000       0xa8 build/default/production/_ext/1406599153/arp.o
 .text          0x00000000        0x0 build/default/production/_ext/1406599153/dhcp.o
 .data          0x00000000        0x0 build/default/production/_ext/1406599153/dhcp.o
 .reginfo       0x00000000       0x18 build/default/production/_ext/1406599153/dhcp.o
 .text._DHCPStartOperation
                0x00000000      0x168 build/default/production/_ext/1406599153/dhcp.o
 .text.TCPIP_DHCP_Disable
                0x00000000       0xb4 build/default/production/_ext/1406599153/dhcp.o
 .text.TCPIP_DHCP_Enable
                0x00000000       0x38 build/default/production/_ext/1406599153/dhcp.o
 .text.TCPIP_DHCP_Renew
                0x00000000       0x38 build/default/production/_ext/1406599153/dhcp.o
 .text.TCPIP_DHCP_Request
                0x00000000       0x38 build/default/production/_ext/1406599153/dhcp.o
 .text.TCPIP_DHCP_IsEnabled
                0x00000000       0x78 build/default/production/_ext/1406599153/dhcp.o
 .text.TCPIP_DHCP_IsActive
                0x00000000       0x30 build/default/production/_ext/1406599153/dhcp.o
 .text.TCPIP_DHCP_IsBound
                0x00000000       0x78 build/default/production/_ext/1406599153/dhcp.o
 .text.TCPIP_DHCP_IsServerDetected
                0x00000000       0x78 build/default/production/_ext/1406599153/dhcp.o
 .text.TCPIP_DHCP_RequestTimeoutSet
                0x00000000       0xa4 build/default/production/_ext/1406599153/dhcp.o
 .text.TCPIP_DHCP_InfoGet
                0x00000000      0x10c build/default/production/_ext/1406599153/dhcp.o
 .text.TCPIP_DHCP_HostNameCallbackRegister
                0x00000000       0xa0 build/default/production/_ext/1406599153/dhcp.o
 .text          0x00000000        0x0 build/default/production/_ext/1406599153/dns.o
 .data          0x00000000        0x0 build/default/production/_ext/1406599153/dns.o
 .reginfo       0x00000000       0x18 build/default/production/_ext/1406599153/dns.o
 .text._DNS_Resolve
                0x00000000      0x1b0 build/default/production/_ext/1406599153/dns.o
 .text._DNS_GetAddresses
                0x00000000      0x1a4 build/default/production/_ext/1406599153/dns.o
 .text._DNS_IsNameResolved
                0x00000000      0x1dc build/default/production/_ext/1406599153/dns.o
 .text.TCPIP_DNS_Resolve
                0x00000000       0x1c build/default/production/_ext/1406599153/dns.o
 .text.TCPIP_DNS_Send_Query
                0x00000000       0x1c build/default/production/_ext/1406599153/dns.o
 .text.TCPIP_DNS_GetIPv4Addresses
                0x00000000       0x20 build/default/production/_ext/1406599153/dns.o
 .text.TCPIP_DNS_GetIPv6Addresses
                0x00000000       0x20 build/default/production/_ext/1406599153/dns.o
 .text.TCPIP_DNS_GetIPAddressesNumber
                0x00000000       0xb8 build/default/production/_ext/1406599153/dns.o
 .text.TCPIP_DNS_IsResolved
                0x00000000       0x3c build/default/production/_ext/1406599153/dns.o
 .text.TCPIP_DNS_IsNameResolved
                0x00000000       0x1c build/default/production/_ext/1406599153/dns.o
 .text.TCPIP_DNS_ClientInfoGet
                0x00000000       0x64 build/default/production/_ext/1406599153/dns.o
 .text.TCPIP_DNS_EntryQuery
                0x00000000      0x23c build/default/production/_ext/1406599153/dns.o
 .text.TCPIP_DNS_RemoveAll
                0x00000000       0xa0 build/default/production/_ext/1406599153/dns.o
 .text.TCPIP_DNS_IsEnabled
                0x00000000       0x24 build/default/production/_ext/1406599153/dns.o
 .text.TCPIP_DNS_Enable
                0x00000000       0x20 build/default/production/_ext/1406599153/dns.o
 .text.TCPIP_DNS_Disable
                0x00000000       0xbc build/default/production/_ext/1406599153/dns.o
 .text          0x00000000        0x0 build/default/production/_ext/1406599153/nbns.o
 .data          0x00000000        0x0 build/default/production/_ext/1406599153/nbns.o
 .bss           0x00000000        0x0 build/default/production/_ext/1406599153/nbns.o
 .reginfo       0x00000000       0x18 build/default/production/_ext/1406599153/nbns.o
 .text          0x00000000        0x0 build/default/production/_ext/1406599153/tcpip_announce.o
 .data          0x00000000        0x0 build/default/production/_ext/1406599153/tcpip_announce.o
 .bss           0x00000000        0x0 build/default/production/_ext/1406599153/tcpip_announce.o
 .reginfo       0x00000000       0x18 build/default/production/_ext/1406599153/tcpip_announce.o
 .text          0x00000000        0x0 build/default/production/_ext/1268476361/helpers.o
 .data          0x00000000        0x0 build/default/production/_ext/1268476361/helpers.o
 .bss           0x00000000        0x0 build/default/production/_ext/1268476361/helpers.o
 .reginfo       0x00000000       0x18 build/default/production/_ext/1268476361/helpers.o
 .text.uitoa    0x00000000       0x90 build/default/production/_ext/1268476361/helpers.o
 .text.btohexa_high
                0x00000000       0x1c build/default/production/_ext/1268476361/helpers.o
 .text.btohexa_low
                0x00000000       0x1c build/default/production/_ext/1268476361/helpers.o
 .text.strnchr  0x00000000       0x3c build/default/production/_ext/1268476361/helpers.o
 .text.strncpy_m
                0x00000000       0xd8 build/default/production/_ext/1268476361/helpers.o
 .text.stricmppgm2ram
                0x00000000       0xa0 build/default/production/_ext/1268476361/helpers.o
 .text          0x00000000        0x0 build/default/production/_ext/1268476361/lfsr.o
 .data          0x00000000        0x0 build/default/production/_ext/1268476361/lfsr.o
 .bss           0x00000000        0x0 build/default/production/_ext/1268476361/lfsr.o
 .reginfo       0x00000000       0x18 build/default/production/_ext/1268476361/lfsr.o
 .text.LFSRSeedRand
                0x00000000       0x4c build/default/production/_ext/1268476361/lfsr.o
 .text          0x00000000        0x0 build/default/production/_ext/1406599153/hash_fnv.o
 .data          0x00000000        0x0 build/default/production/_ext/1406599153/hash_fnv.o
 .bss           0x00000000        0x0 build/default/production/_ext/1406599153/hash_fnv.o
 .reginfo       0x00000000       0x18 build/default/production/_ext/1406599153/hash_fnv.o
 .text.fnv_32a_hash
                0x00000000       0x5c build/default/production/_ext/1406599153/hash_fnv.o
 .text          0x00000000        0x0 build/default/production/_ext/1406599153/oahash.o
 .data          0x00000000        0x0 build/default/production/_ext/1406599153/oahash.o
 .bss           0x00000000        0x0 build/default/production/_ext/1406599153/oahash.o
 .reginfo       0x00000000       0x18 build/default/production/_ext/1406599153/oahash.o
 .text          0x00000000        0x0 build/default/production/_ext/1406599153/tcpip_helpers.o
 .data          0x00000000       0x28 build/default/production/_ext/1406599153/tcpip_helpers.o
 .bss           0x00000000        0x0 build/default/production/_ext/1406599153/tcpip_helpers.o
 .reginfo       0x00000000       0x18 build/default/production/_ext/1406599153/tcpip_helpers.o
 .text._TCPIP_Helper_SecurePortEntry
                0x00000000       0x54 build/default/production/_ext/1406599153/tcpip_helpers.o
 .text.TCPIP_Helper_IPAddressToString
                0x00000000       0x98 build/default/production/_ext/1406599153/tcpip_helpers.o
 .text.TCPIP_Helper_StringToIPv6Address
                0x00000000      0x3e8 build/default/production/_ext/1406599153/tcpip_helpers.o
 .text.TCPIP_Helper_IPv6AddressToString
                0x00000000      0x150 build/default/production/_ext/1406599153/tcpip_helpers.o
 .text.TCPIP_Helper_IsPrivateAddress
                0x00000000       0x3c build/default/production/_ext/1406599153/tcpip_helpers.o
 .text.TCPIP_Helper_MACAddressToString
                0x00000000       0x80 build/default/production/_ext/1406599153/tcpip_helpers.o
 .text.TCPIP_Helper_PowerModeToString
                0x00000000       0x28 build/default/production/_ext/1406599153/tcpip_helpers.o
 .text.TCPIP_Helper_FindCommonPrefix
                0x00000000       0xa0 build/default/production/_ext/1406599153/tcpip_helpers.o
 .text.TCPIP_Helper_SingleListHeadAdd
                0x00000000       0x28 build/default/production/_ext/1406599153/tcpip_helpers.o
 .text.TCPIP_Helper_SingleListMidAdd
                0x00000000       0x1c build/default/production/_ext/1406599153/tcpip_helpers.o
 .text.TCPIP_Helper_SingleListNextRemove
                0x00000000       0x58 build/default/production/_ext/1406599153/tcpip_helpers.o
 .text.TCPIP_Helper_SingleListFind
                0x00000000       0x48 build/default/production/_ext/1406599153/tcpip_helpers.o
 .text.TCPIP_Helper_ProtectedSingleListHeadAdd
                0x00000000       0x7c build/default/production/_ext/1406599153/tcpip_helpers.o
 .text.TCPIP_Helper_ProtectedSingleListMidAdd
                0x00000000       0x88 build/default/production/_ext/1406599153/tcpip_helpers.o
 .text.TCPIP_Helper_ProtectedSingleListNextRemove
                0x00000000       0x8c build/default/production/_ext/1406599153/tcpip_helpers.o
 .text.TCPIP_Helper_ProtectedSingleListAppend
                0x00000000       0x7c build/default/production/_ext/1406599153/tcpip_helpers.o
 .text.TCPIP_Helper_DoubleListInitialize
                0x00000000       0x10 build/default/production/_ext/1406599153/tcpip_helpers.o
 .text.TCPIP_Helper_DoubleListHeadAdd
                0x00000000       0x40 build/default/production/_ext/1406599153/tcpip_helpers.o
 .text.TCPIP_Helper_DoubleListTailAdd
                0x00000000       0x44 build/default/production/_ext/1406599153/tcpip_helpers.o
 .text.TCPIP_Helper_DoubleListMidAdd
                0x00000000       0x28 build/default/production/_ext/1406599153/tcpip_helpers.o
 .text.TCPIP_Helper_DoubleListHeadRemove
                0x00000000       0x40 build/default/production/_ext/1406599153/tcpip_helpers.o
 .text.TCPIP_Helper_DoubleListTailRemove
                0x00000000       0x40 build/default/production/_ext/1406599153/tcpip_helpers.o
 .text.TCPIP_Helper_DoubleListMidRemove
                0x00000000       0x28 build/default/production/_ext/1406599153/tcpip_helpers.o
 .text.TCPIP_Helper_DoubleListNodeRemove
                0x00000000       0x50 build/default/production/_ext/1406599153/tcpip_helpers.o
 .text.TCPIP_Helper_DoubleListFind
                0x00000000       0x48 build/default/production/_ext/1406599153/tcpip_helpers.o
 .text.TCPIP_Helper_ProtectedDoubleListInitialize
                0x00000000       0x44 build/default/production/_ext/1406599153/tcpip_helpers.o
 .text.TCPIP_Helper_ProtectedDoubleListDeinitialize
                0x00000000       0x78 build/default/production/_ext/1406599153/tcpip_helpers.o
 .text.TCPIP_Helper_ProtectedDoubleListHeadAdd
                0x00000000       0x7c build/default/production/_ext/1406599153/tcpip_helpers.o
 .text.TCPIP_Helper_ProtectedDoubleListTailAdd
                0x00000000       0x7c build/default/production/_ext/1406599153/tcpip_helpers.o
 .text.TCPIP_Helper_ProtectedDoubleListMidAdd
                0x00000000       0x7c build/default/production/_ext/1406599153/tcpip_helpers.o
 .text.TCPIP_Helper_ProtectedDoubleListHeadRemove
                0x00000000       0x8c build/default/production/_ext/1406599153/tcpip_helpers.o
 .text.TCPIP_Helper_ProtectedDoubleListTailRemove
                0x00000000       0x8c build/default/production/_ext/1406599153/tcpip_helpers.o
 .text.TCPIP_Helper_ProtectedDoubleListMidRemove
                0x00000000       0x7c build/default/production/_ext/1406599153/tcpip_helpers.o
 .text.TCPIP_Helper_ProtectedDoubleListNodeRemove
                0x00000000       0x7c build/default/production/_ext/1406599153/tcpip_helpers.o
 .text.TCPIP_Helper_ProtectedDoubleListRemoveAll
                0x00000000       0x90 build/default/production/_ext/1406599153/tcpip_helpers.o
 .text.TCPIP_Helper_ProtectedDoubleListLock
                0x00000000       0x54 build/default/production/_ext/1406599153/tcpip_helpers.o
 .text.TCPIP_Helper_ProtectedDoubleListUnlock
                0x00000000       0x40 build/default/production/_ext/1406599153/tcpip_helpers.o
 .text.TCPIP_Helper_TCPSecurePortGet
                0x00000000       0x2c build/default/production/_ext/1406599153/tcpip_helpers.o
 .text.TCPIP_Helper_UDPSecurePortGet
                0x00000000       0x2c build/default/production/_ext/1406599153/tcpip_helpers.o
 .text.TCPIP_Helper_SecurePortGetByIndex
                0x00000000       0x60 build/default/production/_ext/1406599153/tcpip_helpers.o
 .text.TCPIP_Helper_SecurePortSet
                0x00000000       0xbc build/default/production/_ext/1406599153/tcpip_helpers.o
 .data          0x00000000        0x0 build/default/production/_ext/1406599153/tcpip_helper_c32.o
 .bss           0x00000000        0x0 build/default/production/_ext/1406599153/tcpip_helper_c32.o
 .reginfo       0x00000000       0x18 build/default/production/_ext/1406599153/tcpip_helper_c32.o
 .text          0x00000000        0x0 build/default/production/_ext/1406599153/tcpip_manager.o
 .data          0x00000000        0x0 build/default/production/_ext/1406599153/tcpip_manager.o
 .reginfo       0x00000000       0x18 build/default/production/_ext/1406599153/tcpip_manager.o
 .text._NetConfigStringToBuffer
                0x00000000       0xc8 build/default/production/_ext/1406599153/tcpip_manager.o
 .text.TCPIP_STACK_Status
                0x00000000       0x20 build/default/production/_ext/1406599153/tcpip_manager.o
 .text.TCPIP_STACK_InitializeDataGet
                0x00000000       0x58 build/default/production/_ext/1406599153/tcpip_manager.o
 .text.TCPIP_STACK_NetDefaultSet
                0x00000000       0x2c build/default/production/_ext/1406599153/tcpip_manager.o
 .text.TCPIP_STACK_MacToNet
                0x00000000       0x4c build/default/production/_ext/1406599153/tcpip_manager.o
 .text.TCPIP_STACK_MacToNetIndex
                0x00000000       0x54 build/default/production/_ext/1406599153/tcpip_manager.o
 .text.TCPIP_STACK_NetIndexGet
                0x00000000       0x18 build/default/production/_ext/1406599153/tcpip_manager.o
 .text.TCPIP_STACK_MACIdToNet
                0x00000000       0x5c build/default/production/_ext/1406599153/tcpip_manager.o
 .text.TCPIP_STACK_NetNameGet
                0x00000000       0x2c build/default/production/_ext/1406599153/tcpip_manager.o
 .text.TCPIP_STACK_NetAliasNameGet
                0x00000000       0x8c build/default/production/_ext/1406599153/tcpip_manager.o
 .text.TCPIP_STACK_MACObjectGet
                0x00000000       0x18 build/default/production/_ext/1406599153/tcpip_manager.o
 .text.TCPIP_STACK_NetAddressGatewaySet
                0x00000000       0x30 build/default/production/_ext/1406599153/tcpip_manager.o
 .text.TCPIP_STACK_NetAddressGateway
                0x00000000       0x28 build/default/production/_ext/1406599153/tcpip_manager.o
 .text.TCPIP_STACK_NetAddressDnsPrimary
                0x00000000       0x28 build/default/production/_ext/1406599153/tcpip_manager.o
 .text.TCPIP_STACK_NetAddressDnsSecond
                0x00000000       0x28 build/default/production/_ext/1406599153/tcpip_manager.o
 .text.TCPIP_STACK_NetAddressDnsPrimarySet
                0x00000000       0x2c build/default/production/_ext/1406599153/tcpip_manager.o
 .text.TCPIP_STACK_NetAddressDnsSecondSet
                0x00000000       0x30 build/default/production/_ext/1406599153/tcpip_manager.o
 .text.TCPIP_STACK_NetAddressMacSet
                0x00000000       0x4c build/default/production/_ext/1406599153/tcpip_manager.o
 .text.TCPIP_STACK_NetBiosNameSet
                0x00000000       0x8c build/default/production/_ext/1406599153/tcpip_manager.o
 .text.TCPIP_STACK_SetLocalMasksType
                0x00000000       0x38 build/default/production/_ext/1406599153/tcpip_manager.o
 .text.TCPIP_STACK_SetLocalMasks
                0x00000000       0x30 build/default/production/_ext/1406599153/tcpip_manager.o
 .text.TCPIP_STACK_NetMACIdGet
                0x00000000       0x28 build/default/production/_ext/1406599153/tcpip_manager.o
 .text.TCPIP_STACK_NetMACStatisticsGet
                0x00000000       0x50 build/default/production/_ext/1406599153/tcpip_manager.o
 .text.TCPIP_STACK_NetMACRegisterStatisticsGet
                0x00000000       0x50 build/default/production/_ext/1406599153/tcpip_manager.o
 .text.TCPIP_STACK_ModuleConfigGet
                0x00000000       0x74 build/default/production/_ext/1406599153/tcpip_manager.o
 .text.TCPIP_STACK_NetConfigGet
                0x00000000      0x104 build/default/production/_ext/1406599153/tcpip_manager.o
 .text.TCPIP_STACK_NetConfigSet
                0x00000000      0x2dc build/default/production/_ext/1406599153/tcpip_manager.o
 .text.TCPIP_STACK_StringToMACId
                0x00000000       0x9c build/default/production/_ext/1406599153/tcpip_manager.o
 .text.TCPIP_STACK_NetHandleGet
                0x00000000       0x84 build/default/production/_ext/1406599153/tcpip_manager.o
 .text.TCPIP_STACK_NetIsUp
                0x00000000       0x20 build/default/production/_ext/1406599153/tcpip_manager.o
 .text.TCPIP_STACK_AddressServiceCanStart
                0x00000000       0x20 build/default/production/_ext/1406599153/tcpip_manager.o
 .text._TCPIPStackAddressServiceIsRunning
                0x00000000        0xc build/default/production/_ext/1406599153/tcpip_manager.o
 .text.TCPIP_STACK_EventsPendingGet
                0x00000000       0x4c build/default/production/_ext/1406599153/tcpip_manager.o
 .text.TCPIP_STACK_NetAddress
                0x00000000       0x34 build/default/production/_ext/1406599153/tcpip_manager.o
 .text.TCPIP_STACK_NetStaticIPv6AddressGet
                0x00000000        0x8 build/default/production/_ext/1406599153/tcpip_manager.o
 .text.TCPIP_STACK_NetDefaultIPv6GatewayGet
                0x00000000        0x8 build/default/production/_ext/1406599153/tcpip_manager.o
 .text.TCPIP_STACK_NetworkAddressSet
                0x00000000       0x48 build/default/production/_ext/1406599153/tcpip_manager.o
 .text.TCPIP_STACK_NetAddressSet
                0x00000000       0x48 build/default/production/_ext/1406599153/tcpip_manager.o
 .text.TCPIP_STACK_NetMask
                0x00000000       0x44 build/default/production/_ext/1406599153/tcpip_manager.o
 .text.TCPIP_STACK_AddressIsOfNetUp
                0x00000000       0x54 build/default/production/_ext/1406599153/tcpip_manager.o
 .text.TCPIP_STACK_NetIsLinked
                0x00000000       0x44 build/default/production/_ext/1406599153/tcpip_manager.o
 .text.TCPIP_STACK_NetMACId
                0x00000000       0x18 build/default/production/_ext/1406599153/tcpip_manager.o
 .text.TCPIP_STACK_NetToMAC
                0x00000000       0x18 build/default/production/_ext/1406599153/tcpip_manager.o
 .text.TCPIP_STACK_NetAddressMac
                0x00000000       0x44 build/default/production/_ext/1406599153/tcpip_manager.o
 .text._TCPIPStackSignalHandlerSetParams
                0x00000000       0x4c build/default/production/_ext/1406599153/tcpip_manager.o
 .text.TCPIP_STACK_Deinitialize
                0x00000000       0x3c build/default/production/_ext/1406599153/tcpip_manager.o
 .text.TCPIP_STACK_NetUp
                0x00000000      0x134 build/default/production/_ext/1406599153/tcpip_manager.o
 .text.TCPIP_STACK_NetDown
                0x00000000       0xac build/default/production/_ext/1406599153/tcpip_manager.o
 .text.TCPIP_STACK_VersionGet
                0x00000000        0xc build/default/production/_ext/1406599153/tcpip_manager.o
 .text.TCPIP_STACK_VersionStrGet
                0x00000000        0xc build/default/production/_ext/1406599153/tcpip_manager.o
 .text.TCPIP_MODULE_SignalFunctionRegister
                0x00000000       0x50 build/default/production/_ext/1406599153/tcpip_manager.o
 .text.TCPIP_MODULE_SignalFunctionDeregister
                0x00000000       0x1c build/default/production/_ext/1406599153/tcpip_manager.o
 .text.TCPIP_MODULE_SignalGet
                0x00000000       0x50 build/default/production/_ext/1406599153/tcpip_manager.o
 .text.TCPIP_STACK_HeapHandleGet
                0x00000000       0x20 build/default/production/_ext/1406599153/tcpip_manager.o
 .text.TCPIP_STACK_HEAP_Size
                0x00000000       0x34 build/default/production/_ext/1406599153/tcpip_manager.o
 .text.TCPIP_STACK_HEAP_MaxSize
                0x00000000       0x34 build/default/production/_ext/1406599153/tcpip_manager.o
 .text.TCPIP_STACK_HEAP_FreeSize
                0x00000000       0x34 build/default/production/_ext/1406599153/tcpip_manager.o
 .text.TCPIP_STACK_HEAP_LastError
                0x00000000       0x34 build/default/production/_ext/1406599153/tcpip_manager.o
 .text          0x00000000        0x0 build/default/production/_ext/1406599153/tcpip_notify.o
 .data          0x00000000        0x0 build/default/production/_ext/1406599153/tcpip_notify.o
 .bss           0x00000000        0x0 build/default/production/_ext/1406599153/tcpip_notify.o
 .reginfo       0x00000000       0x18 build/default/production/_ext/1406599153/tcpip_notify.o
 .text          0x00000000        0x0 build/default/production/_ext/1406599153/tcpip_packet.o
 .data          0x00000000        0x0 build/default/production/_ext/1406599153/tcpip_packet.o
 .bss           0x00000000        0x0 build/default/production/_ext/1406599153/tcpip_packet.o
 .reginfo       0x00000000       0x18 build/default/production/_ext/1406599153/tcpip_packet.o
 .text.TCPIP_PKT_SegmentAlloc
                0x00000000       0xb0 build/default/production/_ext/1406599153/tcpip_packet.o
 .text.TCPIP_PKT_SegmentAppend
                0x00000000       0x30 build/default/production/_ext/1406599153/tcpip_packet.o
 .text.TCPIP_PKT_SegmentFree
                0x00000000       0x48 build/default/production/_ext/1406599153/tcpip_packet.o
 .text.TCPIP_PKT_PayloadLen
                0x00000000       0x38 build/default/production/_ext/1406599153/tcpip_packet.o
 .text          0x00000000        0x0 build/default/production/_ext/1406599153/ipv4.o
 .data          0x00000000        0x0 build/default/production/_ext/1406599153/ipv4.o
 .reginfo       0x00000000       0x18 build/default/production/_ext/1406599153/ipv4.o
 .text          0x00000000        0x0 build/default/production/_ext/1360937237/app.o
 .data          0x00000000        0x0 build/default/production/_ext/1360937237/app.o
 .bss           0x00000000        0x0 build/default/production/_ext/1360937237/app.o
 .reginfo       0x00000000       0x18 build/default/production/_ext/1360937237/app.o
 .text          0x00000000        0x0 build/default/production/_ext/639803181/sys_clk_static.o
 .data          0x00000000        0x0 build/default/production/_ext/639803181/sys_clk_static.o
 .bss           0x00000000        0x0 build/default/production/_ext/639803181/sys_clk_static.o
 .reginfo       0x00000000       0x18 build/default/production/_ext/639803181/sys_clk_static.o
 .text.SYS_CLK_ReferenceClockFrequencyGet
                0x00000000        0x8 build/default/production/_ext/639803181/sys_clk_static.o
 .text.SYS_CLK_SecondaryOscillatorDisable
                0x00000000       0x4c build/default/production/_ext/639803181/sys_clk_static.o
 .text.SYS_CLK_SecondaryOscillatorIsEnabled
                0x00000000       0x10 build/default/production/_ext/639803181/sys_clk_static.o
 .text          0x00000000        0x0 build/default/production/_ext/822048611/sys_ports_static.o
 .data          0x00000000        0x0 build/default/production/_ext/822048611/sys_ports_static.o
 .bss           0x00000000        0x0 build/default/production/_ext/822048611/sys_ports_static.o
 .reginfo       0x00000000       0x18 build/default/production/_ext/822048611/sys_ports_static.o
 .text          0x00000000        0x0 build/default/production/_ext/1688732426/system_init.o
 .reginfo       0x00000000       0x18 build/default/production/_ext/1688732426/system_init.o
 .text          0x00000000        0x0 build/default/production/_ext/1688732426/system_interrupt.o
 .data          0x00000000        0x0 build/default/production/_ext/1688732426/system_interrupt.o
 .bss           0x00000000        0x0 build/default/production/_ext/1688732426/system_interrupt.o
 .reginfo       0x00000000       0x18 build/default/production/_ext/1688732426/system_interrupt.o
 .text          0x00000000        0x0 build/default/production/_ext/1688732426/system_exceptions.o
 .data          0x00000000        0x0 build/default/production/_ext/1688732426/system_exceptions.o
 .bss           0x00000000        0x0 build/default/production/_ext/1688732426/system_exceptions.o
 .reginfo       0x00000000       0x18 build/default/production/_ext/1688732426/system_exceptions.o
 .text          0x00000000        0x0 build/default/production/_ext/1360937237/main.o
 .data          0x00000000        0x0 build/default/production/_ext/1360937237/main.o
 .bss           0x00000000        0x0 build/default/production/_ext/1360937237/main.o
 .reginfo       0x00000000       0x18 build/default/production/_ext/1360937237/main.o
 .text          0x00000000        0x0 build/default/production/_ext/1688732426/system_tasks.o
 .data          0x00000000        0x0 build/default/production/_ext/1688732426/system_tasks.o
 .bss           0x00000000        0x0 build/default/production/_ext/1688732426/system_tasks.o
 .reginfo       0x00000000       0x18 build/default/production/_ext/1688732426/system_tasks.o
 .text          0x00000000        0x0 ..\..\..\..\..\microchip\harmony\v1_07\bin\framework\peripheral\PIC32MZ2048ECG064_peripherals.a(plib_eth_lib.o)
 .data          0x00000000        0x0 ..\..\..\..\..\microchip\harmony\v1_07\bin\framework\peripheral\PIC32MZ2048ECG064_peripherals.a(plib_eth_lib.o)
 .bss           0x00000000        0x0 ..\..\..\..\..\microchip\harmony\v1_07\bin\framework\peripheral\PIC32MZ2048ECG064_peripherals.a(plib_eth_lib.o)
 .reginfo       0x00000000       0x18 ..\..\..\..\..\microchip\harmony\v1_07\bin\framework\peripheral\PIC32MZ2048ECG064_peripherals.a(plib_eth_lib.o)
 .text.PLIB_ETH_RxFiltersWrite
                0x00000000       0x3c ..\..\..\..\..\microchip\harmony\v1_07\bin\framework\peripheral\PIC32MZ2048ECG064_peripherals.a(plib_eth_lib.o)
 .text.PLIB_ETH_RxFiltersPMSet
                0x00000000       0xe4 ..\..\..\..\..\microchip\harmony\v1_07\bin\framework\peripheral\PIC32MZ2048ECG064_peripherals.a(plib_eth_lib.o)
 .text.PLIB_ETH_RxFiltersPMClr
                0x00000000       0x20 ..\..\..\..\..\microchip\harmony\v1_07\bin\framework\peripheral\PIC32MZ2048ECG064_peripherals.a(plib_eth_lib.o)
 .text.PLIB_ETH_EventsEnableWrite
                0x00000000       0x34 ..\..\..\..\..\microchip\harmony\v1_07\bin\framework\peripheral\PIC32MZ2048ECG064_peripherals.a(plib_eth_lib.o)
 .text.PLIB_ETH_EventsEnableGet
                0x00000000       0x20 ..\..\..\..\..\microchip\harmony\v1_07\bin\framework\peripheral\PIC32MZ2048ECG064_peripherals.a(plib_eth_lib.o)
 .text          0x00000000        0x0 c:/program files (x86)/microchip/xc32/v1.43/bin/bin/../../lib/gcc/pic32mx/4.8.3/../../../../pic32mx/lib/./proc/32MZ2048ECG064\default_isr_vectors.o
 .data          0x00000000        0x0 c:/program files (x86)/microchip/xc32/v1.43/bin/bin/../../lib/gcc/pic32mx/4.8.3/../../../../pic32mx/lib/./proc/32MZ2048ECG064\default_isr_vectors.o
 .bss           0x00000000        0x0 c:/program files (x86)/microchip/xc32/v1.43/bin/bin/../../lib/gcc/pic32mx/4.8.3/../../../../pic32mx/lib/./proc/32MZ2048ECG064\default_isr_vectors.o
 .reginfo       0x00000000       0x18 c:/program files (x86)/microchip/xc32/v1.43/bin/bin/../../lib/gcc/pic32mx/4.8.3/../../../../pic32mx/lib/./proc/32MZ2048ECG064\default_isr_vectors.o
 .discard       0x00000000        0x4 c:/program files (x86)/microchip/xc32/v1.43/bin/bin/../../lib/gcc/pic32mx/4.8.3/../../../../pic32mx/lib/./proc/32MZ2048ECG064\default_isr_vectors.o
 .data          0x00000000        0x0 c:/program files (x86)/microchip/xc32/v1.43/bin/bin/../../lib/gcc/pic32mx/4.8.3/../../../../pic32mx/lib\pic32_software_reset.o
 .bss           0x00000000        0x0 c:/program files (x86)/microchip/xc32/v1.43/bin/bin/../../lib/gcc/pic32mx/4.8.3/../../../../pic32mx/lib\pic32_software_reset.o
 .reginfo       0x00000000       0x18 c:/program files (x86)/microchip/xc32/v1.43/bin/bin/../../lib/gcc/pic32mx/4.8.3/../../../../pic32mx/lib\pic32_software_reset.o
 .text          0x00000000        0x0 c:/program files (x86)/microchip/xc32/v1.43/bin/bin/../../lib/gcc/pic32mx/4.8.3/../../../../pic32mx/lib/./proc/32MZ2048ECG064\processor.o
 .data          0x00000000        0x0 c:/program files (x86)/microchip/xc32/v1.43/bin/bin/../../lib/gcc/pic32mx/4.8.3/../../../../pic32mx/lib/./proc/32MZ2048ECG064\processor.o
 .bss           0x00000000        0x0 c:/program files (x86)/microchip/xc32/v1.43/bin/bin/../../lib/gcc/pic32mx/4.8.3/../../../../pic32mx/lib/./proc/32MZ2048ECG064\processor.o
 .reginfo       0x00000000       0x18 c:/program files (x86)/microchip/xc32/v1.43/bin/bin/../../lib/gcc/pic32mx/4.8.3/../../../../pic32mx/lib/./proc/32MZ2048ECG064\processor.o
 .text          0x00000000        0x0 c:/program files (x86)/microchip/xc32/v1.43/bin/bin/../../lib/gcc/pic32mx/4.8.3/../../../../pic32mx/lib/./proc/32MZ2048ECG064\vector_offset_init.o
 .data          0x00000000        0x0 c:/program files (x86)/microchip/xc32/v1.43/bin/bin/../../lib/gcc/pic32mx/4.8.3/../../../../pic32mx/lib/./proc/32MZ2048ECG064\vector_offset_init.o
 .bss           0x00000000        0x0 c:/program files (x86)/microchip/xc32/v1.43/bin/bin/../../lib/gcc/pic32mx/4.8.3/../../../../pic32mx/lib/./proc/32MZ2048ECG064\vector_offset_init.o
 .reginfo       0x00000000       0x18 c:/program files (x86)/microchip/xc32/v1.43/bin/bin/../../lib/gcc/pic32mx/4.8.3/../../../../pic32mx/lib/./proc/32MZ2048ECG064\vector_offset_init.o
 .data          0x00000000        0x0 c:/program files (x86)/microchip/xc32/v1.43/bin/bin/../../lib/gcc/pic32mx/4.8.3\libgcc.a(_udivdi3.o)
 .bss           0x00000000        0x0 c:/program files (x86)/microchip/xc32/v1.43/bin/bin/../../lib/gcc/pic32mx/4.8.3\libgcc.a(_udivdi3.o)
 .reginfo       0x00000000       0x18 c:/program files (x86)/microchip/xc32/v1.43/bin/bin/../../lib/gcc/pic32mx/4.8.3\libgcc.a(_udivdi3.o)
 .data          0x00000000        0x0 c:/program files (x86)/microchip/xc32/v1.43/bin/bin/../../lib/gcc/pic32mx/4.8.3/../../../../pic32mx/lib\libpic32.a(memcmp.o)
 .bss           0x00000000        0x0 c:/program files (x86)/microchip/xc32/v1.43/bin/bin/../../lib/gcc/pic32mx/4.8.3/../../../../pic32mx/lib\libpic32.a(memcmp.o)
 .reginfo       0x00000000       0x18 c:/program files (x86)/microchip/xc32/v1.43/bin/bin/../../lib/gcc/pic32mx/4.8.3/../../../../pic32mx/lib\libpic32.a(memcmp.o)
 .data          0x00000000        0x0 c:/program files (x86)/microchip/xc32/v1.43/bin/bin/../../lib/gcc/pic32mx/4.8.3/../../../../pic32mx/lib\libpic32.a(memcpy.o)
 .bss           0x00000000        0x0 c:/program files (x86)/microchip/xc32/v1.43/bin/bin/../../lib/gcc/pic32mx/4.8.3/../../../../pic32mx/lib\libpic32.a(memcpy.o)
 .reginfo       0x00000000       0x18 c:/program files (x86)/microchip/xc32/v1.43/bin/bin/../../lib/gcc/pic32mx/4.8.3/../../../../pic32mx/lib\libpic32.a(memcpy.o)
 .data          0x00000000        0x0 c:/program files (x86)/microchip/xc32/v1.43/bin/bin/../../lib/gcc/pic32mx/4.8.3/../../../../pic32mx/lib\libpic32.a(memset.o)
 .bss           0x00000000        0x0 c:/program files (x86)/microchip/xc32/v1.43/bin/bin/../../lib/gcc/pic32mx/4.8.3/../../../../pic32mx/lib\libpic32.a(memset.o)
 .reginfo       0x00000000       0x18 c:/program files (x86)/microchip/xc32/v1.43/bin/bin/../../lib/gcc/pic32mx/4.8.3/../../../../pic32mx/lib\libpic32.a(memset.o)
 .data          0x00000000        0x0 c:/program files (x86)/microchip/xc32/v1.43/bin/bin/../../lib/gcc/pic32mx/4.8.3/../../../../pic32mx/lib\libpic32.a(strcmp.o)
 .bss           0x00000000        0x0 c:/program files (x86)/microchip/xc32/v1.43/bin/bin/../../lib/gcc/pic32mx/4.8.3/../../../../pic32mx/lib\libpic32.a(strcmp.o)
 .reginfo       0x00000000       0x18 c:/program files (x86)/microchip/xc32/v1.43/bin/bin/../../lib/gcc/pic32mx/4.8.3/../../../../pic32mx/lib\libpic32.a(strcmp.o)
 .data          0x00000000        0x0 c:/program files (x86)/microchip/xc32/v1.43/bin/bin/../../lib/gcc/pic32mx/4.8.3/../../../../pic32mx/lib\libpic32.a(strcpy.o)
 .bss           0x00000000        0x0 c:/program files (x86)/microchip/xc32/v1.43/bin/bin/../../lib/gcc/pic32mx/4.8.3/../../../../pic32mx/lib\libpic32.a(strcpy.o)
 .reginfo       0x00000000       0x18 c:/program files (x86)/microchip/xc32/v1.43/bin/bin/../../lib/gcc/pic32mx/4.8.3/../../../../pic32mx/lib\libpic32.a(strcpy.o)
 .data          0x00000000        0x0 c:/program files (x86)/microchip/xc32/v1.43/bin/bin/../../lib/gcc/pic32mx/4.8.3/../../../../pic32mx/lib\libpic32.a(strlen.o)
 .bss           0x00000000        0x0 c:/program files (x86)/microchip/xc32/v1.43/bin/bin/../../lib/gcc/pic32mx/4.8.3/../../../../pic32mx/lib\libpic32.a(strlen.o)
 .reginfo       0x00000000       0x18 c:/program files (x86)/microchip/xc32/v1.43/bin/bin/../../lib/gcc/pic32mx/4.8.3/../../../../pic32mx/lib\libpic32.a(strlen.o)
 .text          0x00000000        0x0 c:/program files (x86)/microchip/xc32/v1.43/bin/bin/../../lib/gcc/pic32mx/4.8.3/../../../../pic32mx/lib\libpic32.a(default-bootstrap-exception-handler.o)
 .data          0x00000000        0x0 c:/program files (x86)/microchip/xc32/v1.43/bin/bin/../../lib/gcc/pic32mx/4.8.3/../../../../pic32mx/lib\libpic32.a(default-bootstrap-exception-handler.o)
 .bss           0x00000000        0x0 c:/program files (x86)/microchip/xc32/v1.43/bin/bin/../../lib/gcc/pic32mx/4.8.3/../../../../pic32mx/lib\libpic32.a(default-bootstrap-exception-handler.o)
 .reginfo       0x00000000       0x18 c:/program files (x86)/microchip/xc32/v1.43/bin/bin/../../lib/gcc/pic32mx/4.8.3/../../../../pic32mx/lib\libpic32.a(default-bootstrap-exception-handler.o)
 .text          0x00000000        0x0 c:/program files (x86)/microchip/xc32/v1.43/bin/bin/../../lib/gcc/pic32mx/4.8.3/../../../../pic32mx/lib\libpic32.a(default-on-reset.o)
 .data          0x00000000        0x0 c:/program files (x86)/microchip/xc32/v1.43/bin/bin/../../lib/gcc/pic32mx/4.8.3/../../../../pic32mx/lib\libpic32.a(default-on-reset.o)
 .bss           0x00000000        0x0 c:/program files (x86)/microchip/xc32/v1.43/bin/bin/../../lib/gcc/pic32mx/4.8.3/../../../../pic32mx/lib\libpic32.a(default-on-reset.o)
 .reginfo       0x00000000       0x18 c:/program files (x86)/microchip/xc32/v1.43/bin/bin/../../lib/gcc/pic32mx/4.8.3/../../../../pic32mx/lib\libpic32.a(default-on-reset.o)
 .text          0x00000000        0x0 c:/program files (x86)/microchip/xc32/v1.43/bin/bin/../../lib/gcc/pic32mx/4.8.3/../../../../pic32mx/lib\libpic32.a(default-on-bootstrap.o)
 .data          0x00000000        0x0 c:/program files (x86)/microchip/xc32/v1.43/bin/bin/../../lib/gcc/pic32mx/4.8.3/../../../../pic32mx/lib\libpic32.a(default-on-bootstrap.o)
 .bss           0x00000000        0x0 c:/program files (x86)/microchip/xc32/v1.43/bin/bin/../../lib/gcc/pic32mx/4.8.3/../../../../pic32mx/lib\libpic32.a(default-on-bootstrap.o)
 .reginfo       0x00000000       0x18 c:/program files (x86)/microchip/xc32/v1.43/bin/bin/../../lib/gcc/pic32mx/4.8.3/../../../../pic32mx/lib\libpic32.a(default-on-bootstrap.o)
 .data          0x00000000        0x0 c:/program files (x86)/microchip/xc32/v1.43/bin/bin/../../lib/gcc/pic32mx/4.8.3/../../../../pic32mx/lib\libpic32.a(default-nmi-handler.o)
 .bss           0x00000000        0x0 c:/program files (x86)/microchip/xc32/v1.43/bin/bin/../../lib/gcc/pic32mx/4.8.3/../../../../pic32mx/lib\libpic32.a(default-nmi-handler.o)
 .reginfo       0x00000000       0x18 c:/program files (x86)/microchip/xc32/v1.43/bin/bin/../../lib/gcc/pic32mx/4.8.3/../../../../pic32mx/lib\libpic32.a(default-nmi-handler.o)
 .text          0x00000000        0x0 c:/program files (x86)/microchip/xc32/v1.43/bin/bin/../../lib/gcc/pic32mx/4.8.3/../../../../pic32mx/lib\libpic32.a(pic32_init_cache.o)
 .data          0x00000000        0x0 c:/program files (x86)/microchip/xc32/v1.43/bin/bin/../../lib/gcc/pic32mx/4.8.3/../../../../pic32mx/lib\libpic32.a(pic32_init_cache.o)
 .bss           0x00000000        0x0 c:/program files (x86)/microchip/xc32/v1.43/bin/bin/../../lib/gcc/pic32mx/4.8.3/../../../../pic32mx/lib\libpic32.a(pic32_init_cache.o)
 .reginfo       0x00000000       0x18 c:/program files (x86)/microchip/xc32/v1.43/bin/bin/../../lib/gcc/pic32mx/4.8.3/../../../../pic32mx/lib\libpic32.a(pic32_init_cache.o)
 .cache_init.pic32_size_cache
                0x00000000       0x58 c:/program files (x86)/microchip/xc32/v1.43/bin/bin/../../lib/gcc/pic32mx/4.8.3/../../../../pic32mx/lib\libpic32.a(pic32_init_cache.o)
 .text          0x00000000        0x0 c:/program files (x86)/microchip/xc32/v1.43/bin/bin/../../lib/gcc/pic32mx/4.8.3/../../../../pic32mx/lib\libpic32.a(pic32_init_tlb_ebi_sqi.o)
 .data          0x00000000        0x0 c:/program files (x86)/microchip/xc32/v1.43/bin/bin/../../lib/gcc/pic32mx/4.8.3/../../../../pic32mx/lib\libpic32.a(pic32_init_tlb_ebi_sqi.o)
 .bss           0x00000000        0x0 c:/program files (x86)/microchip/xc32/v1.43/bin/bin/../../lib/gcc/pic32mx/4.8.3/../../../../pic32mx/lib\libpic32.a(pic32_init_tlb_ebi_sqi.o)
 .reginfo       0x00000000       0x18 c:/program files (x86)/microchip/xc32/v1.43/bin/bin/../../lib/gcc/pic32mx/4.8.3/../../../../pic32mx/lib\libpic32.a(pic32_init_tlb_ebi_sqi.o)
 .text          0x00000000        0x0 c:/program files (x86)/microchip/xc32/v1.43/bin/bin/../../lib/gcc/pic32mx/4.8.3/../../../../pic32mx/lib\libpic32.a(general-exception.o)
 .data          0x00000000        0x0 c:/program files (x86)/microchip/xc32/v1.43/bin/bin/../../lib/gcc/pic32mx/4.8.3/../../../../pic32mx/lib\libpic32.a(general-exception.o)
 .bss           0x00000000        0x0 c:/program files (x86)/microchip/xc32/v1.43/bin/bin/../../lib/gcc/pic32mx/4.8.3/../../../../pic32mx/lib\libpic32.a(general-exception.o)
 .reginfo       0x00000000       0x18 c:/program files (x86)/microchip/xc32/v1.43/bin/bin/../../lib/gcc/pic32mx/4.8.3/../../../../pic32mx/lib\libpic32.a(general-exception.o)
 .text          0x00000000        0x0 c:/program files (x86)/microchip/xc32/v1.43/bin/bin/../../lib/gcc/pic32mx/4.8.3/../../../../pic32mx/lib\libpic32.a(cache-err-exception.o)
 .data          0x00000000        0x0 c:/program files (x86)/microchip/xc32/v1.43/bin/bin/../../lib/gcc/pic32mx/4.8.3/../../../../pic32mx/lib\libpic32.a(cache-err-exception.o)
 .bss           0x00000000        0x0 c:/program files (x86)/microchip/xc32/v1.43/bin/bin/../../lib/gcc/pic32mx/4.8.3/../../../../pic32mx/lib\libpic32.a(cache-err-exception.o)
 .reginfo       0x00000000       0x18 c:/program files (x86)/microchip/xc32/v1.43/bin/bin/../../lib/gcc/pic32mx/4.8.3/../../../../pic32mx/lib\libpic32.a(cache-err-exception.o)
 .text          0x00000000        0x0 c:/program files (x86)/microchip/xc32/v1.43/bin/bin/../../lib/gcc/pic32mx/4.8.3/../../../../pic32mx/lib\libpic32.a(simple-tlb-refill-exception.o)
 .data          0x00000000        0x0 c:/program files (x86)/microchip/xc32/v1.43/bin/bin/../../lib/gcc/pic32mx/4.8.3/../../../../pic32mx/lib\libpic32.a(simple-tlb-refill-exception.o)
 .bss           0x00000000        0x0 c:/program files (x86)/microchip/xc32/v1.43/bin/bin/../../lib/gcc/pic32mx/4.8.3/../../../../pic32mx/lib\libpic32.a(simple-tlb-refill-exception.o)
 .reginfo       0x00000000       0x18 c:/program files (x86)/microchip/xc32/v1.43/bin/bin/../../lib/gcc/pic32mx/4.8.3/../../../../pic32mx/lib\libpic32.a(simple-tlb-refill-exception.o)
 .text          0x00000000        0x0 c:/program files (x86)/microchip/xc32/v1.43/bin/bin/../../lib/gcc/pic32mx/4.8.3/../../../../pic32mx/lib\libpic32.a(defaultinterrupt.o)
 .data          0x00000000        0x0 c:/program files (x86)/microchip/xc32/v1.43/bin/bin/../../lib/gcc/pic32mx/4.8.3/../../../../pic32mx/lib\libpic32.a(defaultinterrupt.o)
 .bss           0x00000000        0x0 c:/program files (x86)/microchip/xc32/v1.43/bin/bin/../../lib/gcc/pic32mx/4.8.3/../../../../pic32mx/lib\libpic32.a(defaultinterrupt.o)
 .reginfo       0x00000000       0x18 c:/program files (x86)/microchip/xc32/v1.43/bin/bin/../../lib/gcc/pic32mx/4.8.3/../../../../pic32mx/lib\libpic32.a(defaultinterrupt.o)
 .text          0x00000000        0x0 c:/program files (x86)/microchip/xc32/v1.43/bin/bin/../../lib/gcc/pic32mx/4.8.3/../../../../pic32mx/lib\libpic32.a(default-cache-err-exception-handler.o)
 .data          0x00000000        0x0 c:/program files (x86)/microchip/xc32/v1.43/bin/bin/../../lib/gcc/pic32mx/4.8.3/../../../../pic32mx/lib\libpic32.a(default-cache-err-exception-handler.o)
 .bss           0x00000000        0x0 c:/program files (x86)/microchip/xc32/v1.43/bin/bin/../../lib/gcc/pic32mx/4.8.3/../../../../pic32mx/lib\libpic32.a(default-cache-err-exception-handler.o)
 .reginfo       0x00000000       0x18 c:/program files (x86)/microchip/xc32/v1.43/bin/bin/../../lib/gcc/pic32mx/4.8.3/../../../../pic32mx/lib\libpic32.a(default-cache-err-exception-handler.o)
 .text          0x00000000        0x0 c:/program files (x86)/microchip/xc32/v1.43/bin/bin/../../lib/gcc/pic32mx/4.8.3/../../../../pic32mx/lib\libpic32.a(default-simple-tlb-refill-exception-handler.o)
 .data          0x00000000        0x0 c:/program files (x86)/microchip/xc32/v1.43/bin/bin/../../lib/gcc/pic32mx/4.8.3/../../../../pic32mx/lib\libpic32.a(default-simple-tlb-refill-exception-handler.o)
 .bss           0x00000000        0x0 c:/program files (x86)/microchip/xc32/v1.43/bin/bin/../../lib/gcc/pic32mx/4.8.3/../../../../pic32mx/lib\libpic32.a(default-simple-tlb-refill-exception-handler.o)
 .reginfo       0x00000000       0x18 c:/program files (x86)/microchip/xc32/v1.43/bin/bin/../../lib/gcc/pic32mx/4.8.3/../../../../pic32mx/lib\libpic32.a(default-simple-tlb-refill-exception-handler.o)
 .text          0x00000000        0x0 c:/program files (x86)/microchip/xc32/v1.43/bin/bin/../../lib/gcc/pic32mx/4.8.3/../../../../pic32mx/lib\libc.a(calloc.o)
 .data          0x00000000        0x0 c:/program files (x86)/microchip/xc32/v1.43/bin/bin/../../lib/gcc/pic32mx/4.8.3/../../../../pic32mx/lib\libc.a(calloc.o)
 .bss           0x00000000        0x0 c:/program files (x86)/microchip/xc32/v1.43/bin/bin/../../lib/gcc/pic32mx/4.8.3/../../../../pic32mx/lib\libc.a(calloc.o)
 .reginfo       0x00000000       0x18 c:/program files (x86)/microchip/xc32/v1.43/bin/bin/../../lib/gcc/pic32mx/4.8.3/../../../../pic32mx/lib\libc.a(calloc.o)
 .text          0x00000000        0x0 c:/program files (x86)/microchip/xc32/v1.43/bin/bin/../../lib/gcc/pic32mx/4.8.3/../../../../pic32mx/lib\libc.a(ctime.o)
 .data          0x00000000        0x0 c:/program files (x86)/microchip/xc32/v1.43/bin/bin/../../lib/gcc/pic32mx/4.8.3/../../../../pic32mx/lib\libc.a(ctime.o)
 .bss           0x00000000       0x48 c:/program files (x86)/microchip/xc32/v1.43/bin/bin/../../lib/gcc/pic32mx/4.8.3/../../../../pic32mx/lib\libc.a(ctime.o)
 .reginfo       0x00000000       0x18 c:/program files (x86)/microchip/xc32/v1.43/bin/bin/../../lib/gcc/pic32mx/4.8.3/../../../../pic32mx/lib\libc.a(ctime.o)
 .text.dylen.part.0
                0x00000000       0x68 c:/program files (x86)/microchip/xc32/v1.43/bin/bin/../../lib/gcc/pic32mx/4.8.3/../../../../pic32mx/lib\libc.a(ctime.o)
 .text.gmtime   0x00000000      0x1a4 c:/program files (x86)/microchip/xc32/v1.43/bin/bin/../../lib/gcc/pic32mx/4.8.3/../../../../pic32mx/lib\libc.a(ctime.o)
 .text.localtime
                0x00000000       0x3c c:/program files (x86)/microchip/xc32/v1.43/bin/bin/../../lib/gcc/pic32mx/4.8.3/../../../../pic32mx/lib\libc.a(ctime.o)
 .rodata        0x00000000       0x4c c:/program files (x86)/microchip/xc32/v1.43/bin/bin/../../lib/gcc/pic32mx/4.8.3/../../../../pic32mx/lib\libc.a(ctime.o)
 .text.asctime  0x00000000      0x2e4 c:/program files (x86)/microchip/xc32/v1.43/bin/bin/../../lib/gcc/pic32mx/4.8.3/../../../../pic32mx/lib\libc.a(ctime.o)
 .text.ctime    0x00000000       0x44 c:/program files (x86)/microchip/xc32/v1.43/bin/bin/../../lib/gcc/pic32mx/4.8.3/../../../../pic32mx/lib\libc.a(ctime.o)
 .text          0x00000000        0x0 c:/program files (x86)/microchip/xc32/v1.43/bin/bin/../../lib/gcc/pic32mx/4.8.3/../../../../pic32mx/lib\libc.a(ctype.o)
 .data          0x00000000        0x0 c:/program files (x86)/microchip/xc32/v1.43/bin/bin/../../lib/gcc/pic32mx/4.8.3/../../../../pic32mx/lib\libc.a(ctype.o)
 .bss           0x00000000        0x0 c:/program files (x86)/microchip/xc32/v1.43/bin/bin/../../lib/gcc/pic32mx/4.8.3/../../../../pic32mx/lib\libc.a(ctype.o)
 .reginfo       0x00000000       0x18 c:/program files (x86)/microchip/xc32/v1.43/bin/bin/../../lib/gcc/pic32mx/4.8.3/../../../../pic32mx/lib\libc.a(ctype.o)
 .text          0x00000000        0x0 c:/program files (x86)/microchip/xc32/v1.43/bin/bin/../../lib/gcc/pic32mx/4.8.3/../../../../pic32mx/lib\libc.a(ctypef.o)
 .data          0x00000000        0x0 c:/program files (x86)/microchip/xc32/v1.43/bin/bin/../../lib/gcc/pic32mx/4.8.3/../../../../pic32mx/lib\libc.a(ctypef.o)
 .bss           0x00000000        0x0 c:/program files (x86)/microchip/xc32/v1.43/bin/bin/../../lib/gcc/pic32mx/4.8.3/../../../../pic32mx/lib\libc.a(ctypef.o)
 .reginfo       0x00000000       0x18 c:/program files (x86)/microchip/xc32/v1.43/bin/bin/../../lib/gcc/pic32mx/4.8.3/../../../../pic32mx/lib\libc.a(ctypef.o)
 .text.tolower  0x00000000       0x24 c:/program files (x86)/microchip/xc32/v1.43/bin/bin/../../lib/gcc/pic32mx/4.8.3/../../../../pic32mx/lib\libc.a(ctypef.o)
 .text.toupper  0x00000000       0x24 c:/program files (x86)/microchip/xc32/v1.43/bin/bin/../../lib/gcc/pic32mx/4.8.3/../../../../pic32mx/lib\libc.a(ctypef.o)
 .text.isalnum  0x00000000       0x18 c:/program files (x86)/microchip/xc32/v1.43/bin/bin/../../lib/gcc/pic32mx/4.8.3/../../../../pic32mx/lib\libc.a(ctypef.o)
 .text.isalpha  0x00000000       0x18 c:/program files (x86)/microchip/xc32/v1.43/bin/bin/../../lib/gcc/pic32mx/4.8.3/../../../../pic32mx/lib\libc.a(ctypef.o)
 .text.isascii  0x00000000        0x8 c:/program files (x86)/microchip/xc32/v1.43/bin/bin/../../lib/gcc/pic32mx/4.8.3/../../../../pic32mx/lib\libc.a(ctypef.o)
 .text.iscntrl  0x00000000       0x18 c:/program files (x86)/microchip/xc32/v1.43/bin/bin/../../lib/gcc/pic32mx/4.8.3/../../../../pic32mx/lib\libc.a(ctypef.o)
 .text.isdigit  0x00000000       0x18 c:/program files (x86)/microchip/xc32/v1.43/bin/bin/../../lib/gcc/pic32mx/4.8.3/../../../../pic32mx/lib\libc.a(ctypef.o)
 .text.isgraph  0x00000000       0x18 c:/program files (x86)/microchip/xc32/v1.43/bin/bin/../../lib/gcc/pic32mx/4.8.3/../../../../pic32mx/lib\libc.a(ctypef.o)
 .text.islower  0x00000000       0x18 c:/program files (x86)/microchip/xc32/v1.43/bin/bin/../../lib/gcc/pic32mx/4.8.3/../../../../pic32mx/lib\libc.a(ctypef.o)
 .text.isprint  0x00000000       0x18 c:/program files (x86)/microchip/xc32/v1.43/bin/bin/../../lib/gcc/pic32mx/4.8.3/../../../../pic32mx/lib\libc.a(ctypef.o)
 .text.ispunct  0x00000000       0x18 c:/program files (x86)/microchip/xc32/v1.43/bin/bin/../../lib/gcc/pic32mx/4.8.3/../../../../pic32mx/lib\libc.a(ctypef.o)
 .text.isspace  0x00000000       0x18 c:/program files (x86)/microchip/xc32/v1.43/bin/bin/../../lib/gcc/pic32mx/4.8.3/../../../../pic32mx/lib\libc.a(ctypef.o)
 .text.isupper  0x00000000       0x18 c:/program files (x86)/microchip/xc32/v1.43/bin/bin/../../lib/gcc/pic32mx/4.8.3/../../../../pic32mx/lib\libc.a(ctypef.o)
 .text.isxdigit
                0x00000000       0x18 c:/program files (x86)/microchip/xc32/v1.43/bin/bin/../../lib/gcc/pic32mx/4.8.3/../../../../pic32mx/lib\libc.a(ctypef.o)
 .text.toascii  0x00000000        0x8 c:/program files (x86)/microchip/xc32/v1.43/bin/bin/../../lib/gcc/pic32mx/4.8.3/../../../../pic32mx/lib\libc.a(ctypef.o)
 .text._tolower
                0x00000000        0x8 c:/program files (x86)/microchip/xc32/v1.43/bin/bin/../../lib/gcc/pic32mx/4.8.3/../../../../pic32mx/lib\libc.a(ctypef.o)
 .text._toupper
                0x00000000        0x8 c:/program files (x86)/microchip/xc32/v1.43/bin/bin/../../lib/gcc/pic32mx/4.8.3/../../../../pic32mx/lib\libc.a(ctypef.o)
 .text          0x00000000        0x0 c:/program files (x86)/microchip/xc32/v1.43/bin/bin/../../lib/gcc/pic32mx/4.8.3/../../../../pic32mx/lib\libc.a(malloc.o)
 .data          0x00000000        0x0 c:/program files (x86)/microchip/xc32/v1.43/bin/bin/../../lib/gcc/pic32mx/4.8.3/../../../../pic32mx/lib\libc.a(malloc.o)
 .reginfo       0x00000000       0x18 c:/program files (x86)/microchip/xc32/v1.43/bin/bin/../../lib/gcc/pic32mx/4.8.3/../../../../pic32mx/lib\libc.a(malloc.o)
 .text.realloc  0x00000000      0x148 c:/program files (x86)/microchip/xc32/v1.43/bin/bin/../../lib/gcc/pic32mx/4.8.3/../../../../pic32mx/lib\libc.a(malloc.o)
 .text          0x00000000        0x0 c:/program files (x86)/microchip/xc32/v1.43/bin/bin/../../lib/gcc/pic32mx/4.8.3/../../../../pic32mx/lib\libc.a(memmove.o)
 .data          0x00000000        0x0 c:/program files (x86)/microchip/xc32/v1.43/bin/bin/../../lib/gcc/pic32mx/4.8.3/../../../../pic32mx/lib\libc.a(memmove.o)
 .bss           0x00000000        0x0 c:/program files (x86)/microchip/xc32/v1.43/bin/bin/../../lib/gcc/pic32mx/4.8.3/../../../../pic32mx/lib\libc.a(memmove.o)
 .reginfo       0x00000000       0x18 c:/program files (x86)/microchip/xc32/v1.43/bin/bin/../../lib/gcc/pic32mx/4.8.3/../../../../pic32mx/lib\libc.a(memmove.o)
 .text.memmove  0x00000000       0x64 c:/program files (x86)/microchip/xc32/v1.43/bin/bin/../../lib/gcc/pic32mx/4.8.3/../../../../pic32mx/lib\libc.a(memmove.o)
 .text          0x00000000        0x0 c:/program files (x86)/microchip/xc32/v1.43/bin/bin/../../lib/gcc/pic32mx/4.8.3/../../../../pic32mx/lib\libc.a(rand.o)
 .data          0x00000000        0x0 c:/program files (x86)/microchip/xc32/v1.43/bin/bin/../../lib/gcc/pic32mx/4.8.3/../../../../pic32mx/lib\libc.a(rand.o)
 .reginfo       0x00000000       0x18 c:/program files (x86)/microchip/xc32/v1.43/bin/bin/../../lib/gcc/pic32mx/4.8.3/../../../../pic32mx/lib\libc.a(rand.o)
 .text          0x00000000        0x0 c:/program files (x86)/microchip/xc32/v1.43/bin/bin/../../lib/gcc/pic32mx/4.8.3/../../../../pic32mx/lib\libc.a(strncpy.o)
 .data          0x00000000        0x0 c:/program files (x86)/microchip/xc32/v1.43/bin/bin/../../lib/gcc/pic32mx/4.8.3/../../../../pic32mx/lib\libc.a(strncpy.o)
 .bss           0x00000000        0x0 c:/program files (x86)/microchip/xc32/v1.43/bin/bin/../../lib/gcc/pic32mx/4.8.3/../../../../pic32mx/lib\libc.a(strncpy.o)
 .reginfo       0x00000000       0x18 c:/program files (x86)/microchip/xc32/v1.43/bin/bin/../../lib/gcc/pic32mx/4.8.3/../../../../pic32mx/lib\libc.a(strncpy.o)
 .text          0x00000000        0x0 c:/program files (x86)/microchip/xc32/v1.43/bin/bin/../../lib/gcc/pic32mx/4.8.3/../../../../pic32mx/lib\libc.a(strtol.o)
 .data          0x00000000        0x0 c:/program files (x86)/microchip/xc32/v1.43/bin/bin/../../lib/gcc/pic32mx/4.8.3/../../../../pic32mx/lib\libc.a(strtol.o)
 .bss           0x00000000        0x0 c:/program files (x86)/microchip/xc32/v1.43/bin/bin/../../lib/gcc/pic32mx/4.8.3/../../../../pic32mx/lib\libc.a(strtol.o)
 .reginfo       0x00000000       0x18 c:/program files (x86)/microchip/xc32/v1.43/bin/bin/../../lib/gcc/pic32mx/4.8.3/../../../../pic32mx/lib\libc.a(strtol.o)
 .text.strtoul  0x00000000      0x1d4 c:/program files (x86)/microchip/xc32/v1.43/bin/bin/../../lib/gcc/pic32mx/4.8.3/../../../../pic32mx/lib\libc.a(strtol.o)
 .text.strtol   0x00000000      0x19c c:/program files (x86)/microchip/xc32/v1.43/bin/bin/../../lib/gcc/pic32mx/4.8.3/../../../../pic32mx/lib\libc.a(strtol.o)
 .text          0x00000000        0x0 c:/program files (x86)/microchip/xc32/v1.43/bin/bin/../../lib/gcc/pic32mx/4.8.3/../../../../pic32mx/lib\libc.a(time.o)
 .data          0x00000000        0x0 c:/program files (x86)/microchip/xc32/v1.43/bin/bin/../../lib/gcc/pic32mx/4.8.3/../../../../pic32mx/lib\libc.a(time.o)
 .bss           0x00000000        0x0 c:/program files (x86)/microchip/xc32/v1.43/bin/bin/../../lib/gcc/pic32mx/4.8.3/../../../../pic32mx/lib\libc.a(time.o)
 .reginfo       0x00000000       0x18 c:/program files (x86)/microchip/xc32/v1.43/bin/bin/../../lib/gcc/pic32mx/4.8.3/../../../../pic32mx/lib\libc.a(time.o)
 .text.time     0x00000000        0x8 c:/program files (x86)/microchip/xc32/v1.43/bin/bin/../../lib/gcc/pic32mx/4.8.3/../../../../pic32mx/lib\libc.a(time.o)
 .gnu.warning.time
                0x00000000        0x0 c:/program files (x86)/microchip/xc32/v1.43/bin/bin/../../lib/gcc/pic32mx/4.8.3/../../../../pic32mx/lib\libc.a(time.o)
 .text          0x00000000        0x0 c:/program files (x86)/microchip/xc32/v1.43/bin/bin/../../lib/gcc/pic32mx/4.8.3/../../../../pic32mx/lib\libc.a(sprintf_cdnopuxX.eo)
 .data          0x00000000        0x0 c:/program files (x86)/microchip/xc32/v1.43/bin/bin/../../lib/gcc/pic32mx/4.8.3/../../../../pic32mx/lib\libc.a(sprintf_cdnopuxX.eo)
 .bss           0x00000000        0x0 c:/program files (x86)/microchip/xc32/v1.43/bin/bin/../../lib/gcc/pic32mx/4.8.3/../../../../pic32mx/lib\libc.a(sprintf_cdnopuxX.eo)
 .reginfo       0x00000000       0x18 c:/program files (x86)/microchip/xc32/v1.43/bin/bin/../../lib/gcc/pic32mx/4.8.3/../../../../pic32mx/lib\libc.a(sprintf_cdnopuxX.eo)
 .text          0x00000000        0x0 c:/program files (x86)/microchip/xc32/v1.43/bin/bin/../../lib/gcc/pic32mx/4.8.3/../../../../pic32mx/lib\libc.a(vsnprintf.o)
 .data          0x00000000        0x0 c:/program files (x86)/microchip/xc32/v1.43/bin/bin/../../lib/gcc/pic32mx/4.8.3/../../../../pic32mx/lib\libc.a(vsnprintf.o)
 .bss           0x00000000        0x0 c:/program files (x86)/microchip/xc32/v1.43/bin/bin/../../lib/gcc/pic32mx/4.8.3/../../../../pic32mx/lib\libc.a(vsnprintf.o)
 .reginfo       0x00000000       0x18 c:/program files (x86)/microchip/xc32/v1.43/bin/bin/../../lib/gcc/pic32mx/4.8.3/../../../../pic32mx/lib\libc.a(vsnprintf.o)
 .text          0x00000000        0x0 c:/program files (x86)/microchip/xc32/v1.43/bin/bin/../../lib/gcc/pic32mx/4.8.3/../../../../pic32mx/lib\libc.a(errno.o)
 .data          0x00000000        0x0 c:/program files (x86)/microchip/xc32/v1.43/bin/bin/../../lib/gcc/pic32mx/4.8.3/../../../../pic32mx/lib\libc.a(errno.o)
 .bss           0x00000000        0x0 c:/program files (x86)/microchip/xc32/v1.43/bin/bin/../../lib/gcc/pic32mx/4.8.3/../../../../pic32mx/lib\libc.a(errno.o)
 .reginfo       0x00000000       0x18 c:/program files (x86)/microchip/xc32/v1.43/bin/bin/../../lib/gcc/pic32mx/4.8.3/../../../../pic32mx/lib\libc.a(errno.o)
 .text          0x00000000        0x0 c:/program files (x86)/microchip/xc32/v1.43/bin/bin/../../lib/gcc/pic32mx/4.8.3/../../../../pic32mx/lib\libc.a(doprnt_cdnopuxX.eo)
 .data          0x00000000        0x0 c:/program files (x86)/microchip/xc32/v1.43/bin/bin/../../lib/gcc/pic32mx/4.8.3/../../../../pic32mx/lib\libc.a(doprnt_cdnopuxX.eo)
 .bss           0x00000000        0x0 c:/program files (x86)/microchip/xc32/v1.43/bin/bin/../../lib/gcc/pic32mx/4.8.3/../../../../pic32mx/lib\libc.a(doprnt_cdnopuxX.eo)
 .reginfo       0x00000000       0x18 c:/program files (x86)/microchip/xc32/v1.43/bin/bin/../../lib/gcc/pic32mx/4.8.3/../../../../pic32mx/lib\libc.a(doprnt_cdnopuxX.eo)
 .text          0x00000000        0x0 c:/program files (x86)/microchip/xc32/v1.43/bin/bin/../../lib/gcc/pic32mx/4.8.3/../../../../pic32mx/lib\libc.a(doprnt.o)
 .data          0x00000000        0x0 c:/program files (x86)/microchip/xc32/v1.43/bin/bin/../../lib/gcc/pic32mx/4.8.3/../../../../pic32mx/lib\libc.a(doprnt.o)
 .bss           0x00000000        0x0 c:/program files (x86)/microchip/xc32/v1.43/bin/bin/../../lib/gcc/pic32mx/4.8.3/../../../../pic32mx/lib\libc.a(doprnt.o)
 .reginfo       0x00000000       0x18 c:/program files (x86)/microchip/xc32/v1.43/bin/bin/../../lib/gcc/pic32mx/4.8.3/../../../../pic32mx/lib\libc.a(doprnt.o)
 .text          0x00000000        0x0 c:/program files (x86)/microchip/xc32/v1.43/bin/bin/../../lib/gcc/pic32mx/4.8.3/../../../../pic32mx/lib\libc.a(_fputc_simple.o)
 .data          0x00000000        0x0 c:/program files (x86)/microchip/xc32/v1.43/bin/bin/../../lib/gcc/pic32mx/4.8.3/../../../../pic32mx/lib\libc.a(_fputc_simple.o)
 .bss           0x00000000        0x0 c:/program files (x86)/microchip/xc32/v1.43/bin/bin/../../lib/gcc/pic32mx/4.8.3/../../../../pic32mx/lib\libc.a(_fputc_simple.o)
 .reginfo       0x00000000       0x18 c:/program files (x86)/microchip/xc32/v1.43/bin/bin/../../lib/gcc/pic32mx/4.8.3/../../../../pic32mx/lib\libc.a(_fputc_simple.o)
 .text          0x00000000        0x0 c:/program files (x86)/microchip/xc32/v1.43/bin/bin/../../lib/gcc/pic32mx/4.8.3/../../../../pic32mx/lib\libc.a(ldpowers.o)
 .data          0x00000000        0x0 c:/program files (x86)/microchip/xc32/v1.43/bin/bin/../../lib/gcc/pic32mx/4.8.3/../../../../pic32mx/lib\libc.a(ldpowers.o)
 .bss           0x00000000        0x0 c:/program files (x86)/microchip/xc32/v1.43/bin/bin/../../lib/gcc/pic32mx/4.8.3/../../../../pic32mx/lib\libc.a(ldpowers.o)
 .reginfo       0x00000000       0x18 c:/program files (x86)/microchip/xc32/v1.43/bin/bin/../../lib/gcc/pic32mx/4.8.3/../../../../pic32mx/lib\libc.a(ldpowers.o)
 .text          0x00000000        0x0 c:/program files (x86)/microchip/xc32/v1.43/bin/bin/../../lib/gcc/pic32mx/4.8.3/../../../../pic32mx/lib\libc.a(_iob.o)
 .data          0x00000000       0xa4 c:/program files (x86)/microchip/xc32/v1.43/bin/bin/../../lib/gcc/pic32mx/4.8.3/../../../../pic32mx/lib\libc.a(_iob.o)
 .reginfo       0x00000000       0x18 c:/program files (x86)/microchip/xc32/v1.43/bin/bin/../../lib/gcc/pic32mx/4.8.3/../../../../pic32mx/lib\libc.a(_iob.o)
 .text          0x00000000        0x0 c:/program files (x86)/microchip/xc32/v1.43/bin/bin/../../lib/gcc/pic32mx/4.8.3/../../../../pic32mx/lib\libc.a(_flsbuf_simple.o)
 .data          0x00000000        0x0 c:/program files (x86)/microchip/xc32/v1.43/bin/bin/../../lib/gcc/pic32mx/4.8.3/../../../../pic32mx/lib\libc.a(_flsbuf_simple.o)
 .bss           0x00000000        0x0 c:/program files (x86)/microchip/xc32/v1.43/bin/bin/../../lib/gcc/pic32mx/4.8.3/../../../../pic32mx/lib\libc.a(_flsbuf_simple.o)
 .reginfo       0x00000000       0x18 c:/program files (x86)/microchip/xc32/v1.43/bin/bin/../../lib/gcc/pic32mx/4.8.3/../../../../pic32mx/lib\libc.a(_flsbuf_simple.o)
 .text          0x00000000        0x0 c:/program files (x86)/microchip/xc32/v1.43/bin/bin/../../lib/gcc/pic32mx/4.8.3/../../../../pic32mx/lib\libm.a(dpfrexp.o)
 .data          0x00000000        0x0 c:/program files (x86)/microchip/xc32/v1.43/bin/bin/../../lib/gcc/pic32mx/4.8.3/../../../../pic32mx/lib\libm.a(dpfrexp.o)
 .bss           0x00000000        0x0 c:/program files (x86)/microchip/xc32/v1.43/bin/bin/../../lib/gcc/pic32mx/4.8.3/../../../../pic32mx/lib\libm.a(dpfrexp.o)
 .reginfo       0x00000000       0x18 c:/program files (x86)/microchip/xc32/v1.43/bin/bin/../../lib/gcc/pic32mx/4.8.3/../../../../pic32mx/lib\libm.a(dpfrexp.o)
 .text          0x00000000        0x0 c:/program files (x86)/microchip/xc32/v1.43/bin/bin/../../lib/gcc/pic32mx/4.8.3/../../../../pic32mx/lib\libm.a(dp32div.o)
 .data          0x00000000        0x0 c:/program files (x86)/microchip/xc32/v1.43/bin/bin/../../lib/gcc/pic32mx/4.8.3/../../../../pic32mx/lib\libm.a(dp32div.o)
 .bss           0x00000000        0x0 c:/program files (x86)/microchip/xc32/v1.43/bin/bin/../../lib/gcc/pic32mx/4.8.3/../../../../pic32mx/lib\libm.a(dp32div.o)
 .reginfo       0x00000000       0x18 c:/program files (x86)/microchip/xc32/v1.43/bin/bin/../../lib/gcc/pic32mx/4.8.3/../../../../pic32mx/lib\libm.a(dp32div.o)
 .text          0x00000000        0x0 c:/program files (x86)/microchip/xc32/v1.43/bin/bin/../../lib/gcc/pic32mx/4.8.3/../../../../pic32mx/lib\libm.a(dp32mul.o)
 .data          0x00000000        0x0 c:/program files (x86)/microchip/xc32/v1.43/bin/bin/../../lib/gcc/pic32mx/4.8.3/../../../../pic32mx/lib\libm.a(dp32mul.o)
 .bss           0x00000000        0x0 c:/program files (x86)/microchip/xc32/v1.43/bin/bin/../../lib/gcc/pic32mx/4.8.3/../../../../pic32mx/lib\libm.a(dp32mul.o)
 .reginfo       0x00000000       0x18 c:/program files (x86)/microchip/xc32/v1.43/bin/bin/../../lib/gcc/pic32mx/4.8.3/../../../../pic32mx/lib\libm.a(dp32mul.o)
 .text          0x00000000        0x0 c:/program files (x86)/microchip/xc32/v1.43/bin/bin/../../lib/gcc/pic32mx/4.8.3/../../../../pic32mx/lib\libm.a(dp32subadd.o)
 .data          0x00000000        0x0 c:/program files (x86)/microchip/xc32/v1.43/bin/bin/../../lib/gcc/pic32mx/4.8.3/../../../../pic32mx/lib\libm.a(dp32subadd.o)
 .bss           0x00000000        0x0 c:/program files (x86)/microchip/xc32/v1.43/bin/bin/../../lib/gcc/pic32mx/4.8.3/../../../../pic32mx/lib\libm.a(dp32subadd.o)
 .reginfo       0x00000000       0x18 c:/program files (x86)/microchip/xc32/v1.43/bin/bin/../../lib/gcc/pic32mx/4.8.3/../../../../pic32mx/lib\libm.a(dp32subadd.o)
 .text          0x00000000        0x0 c:/program files (x86)/microchip/xc32/v1.43/bin/bin/../../lib/gcc/pic32mx/4.8.3/../../../../pic32mx/lib\libm.a(dpcmp.o)
 .data          0x00000000        0x0 c:/program files (x86)/microchip/xc32/v1.43/bin/bin/../../lib/gcc/pic32mx/4.8.3/../../../../pic32mx/lib\libm.a(dpcmp.o)
 .bss           0x00000000        0x0 c:/program files (x86)/microchip/xc32/v1.43/bin/bin/../../lib/gcc/pic32mx/4.8.3/../../../../pic32mx/lib\libm.a(dpcmp.o)
 .reginfo       0x00000000       0x18 c:/program files (x86)/microchip/xc32/v1.43/bin/bin/../../lib/gcc/pic32mx/4.8.3/../../../../pic32mx/lib\libm.a(dpcmp.o)
 .text          0x00000000        0x0 c:/program files (x86)/microchip/xc32/v1.43/bin/bin/../../lib/gcc/pic32mx/4.8.3/../../../../pic32mx/lib\libm.a(dptoul.o)
 .data          0x00000000        0x0 c:/program files (x86)/microchip/xc32/v1.43/bin/bin/../../lib/gcc/pic32mx/4.8.3/../../../../pic32mx/lib\libm.a(dptoul.o)
 .bss           0x00000000        0x0 c:/program files (x86)/microchip/xc32/v1.43/bin/bin/../../lib/gcc/pic32mx/4.8.3/../../../../pic32mx/lib\libm.a(dptoul.o)
 .reginfo       0x00000000       0x18 c:/program files (x86)/microchip/xc32/v1.43/bin/bin/../../lib/gcc/pic32mx/4.8.3/../../../../pic32mx/lib\libm.a(dptoul.o)
 .text          0x00000000        0x0 c:/program files (x86)/microchip/xc32/v1.43/bin/bin/../../lib/gcc/pic32mx/4.8.3/../../../../pic32mx/lib\libm.a(fptodp.o)
 .data          0x00000000        0x0 c:/program files (x86)/microchip/xc32/v1.43/bin/bin/../../lib/gcc/pic32mx/4.8.3/../../../../pic32mx/lib\libm.a(fptodp.o)
 .bss           0x00000000        0x0 c:/program files (x86)/microchip/xc32/v1.43/bin/bin/../../lib/gcc/pic32mx/4.8.3/../../../../pic32mx/lib\libm.a(fptodp.o)
 .reginfo       0x00000000       0x18 c:/program files (x86)/microchip/xc32/v1.43/bin/bin/../../lib/gcc/pic32mx/4.8.3/../../../../pic32mx/lib\libm.a(fptodp.o)
 .text          0x00000000        0x0 c:/program files (x86)/microchip/xc32/v1.43/bin/bin/../../lib/gcc/pic32mx/4.8.3/../../../../pic32mx/lib\libe.a(_fixunsdfdi.o)
 .data          0x00000000        0x0 c:/program files (x86)/microchip/xc32/v1.43/bin/bin/../../lib/gcc/pic32mx/4.8.3/../../../../pic32mx/lib\libe.a(_fixunsdfdi.o)
 .bss           0x00000000        0x0 c:/program files (x86)/microchip/xc32/v1.43/bin/bin/../../lib/gcc/pic32mx/4.8.3/../../../../pic32mx/lib\libe.a(_fixunsdfdi.o)
 .reginfo       0x00000000       0x18 c:/program files (x86)/microchip/xc32/v1.43/bin/bin/../../lib/gcc/pic32mx/4.8.3/../../../../pic32mx/lib\libe.a(_fixunsdfdi.o)
 .text          0x00000000        0x0 c:/program files (x86)/microchip/xc32/v1.43/bin/bin/../../lib/gcc/pic32mx/4.8.3/../../../../pic32mx/lib\libe.a(_orderdf2.o)
 .data          0x00000000        0x0 c:/program files (x86)/microchip/xc32/v1.43/bin/bin/../../lib/gcc/pic32mx/4.8.3/../../../../pic32mx/lib\libe.a(_orderdf2.o)
 .bss           0x00000000        0x0 c:/program files (x86)/microchip/xc32/v1.43/bin/bin/../../lib/gcc/pic32mx/4.8.3/../../../../pic32mx/lib\libe.a(_orderdf2.o)
 .reginfo       0x00000000       0x18 c:/program files (x86)/microchip/xc32/v1.43/bin/bin/../../lib/gcc/pic32mx/4.8.3/../../../../pic32mx/lib\libe.a(_orderdf2.o)
 .text          0x00000000        0x0 c:/program files (x86)/microchip/xc32/v1.43/bin/bin/../../lib/gcc/pic32mx/4.8.3/../../../../pic32mx/lib\libe.a(_fixdfdi.o)
 .data          0x00000000        0x0 c:/program files (x86)/microchip/xc32/v1.43/bin/bin/../../lib/gcc/pic32mx/4.8.3/../../../../pic32mx/lib\libe.a(_fixdfdi.o)
 .bss           0x00000000        0x0 c:/program files (x86)/microchip/xc32/v1.43/bin/bin/../../lib/gcc/pic32mx/4.8.3/../../../../pic32mx/lib\libe.a(_fixdfdi.o)
 .reginfo       0x00000000       0x18 c:/program files (x86)/microchip/xc32/v1.43/bin/bin/../../lib/gcc/pic32mx/4.8.3/../../../../pic32mx/lib\libe.a(_fixdfdi.o)
 .data          0x00000000        0x0 c:/program files (x86)/microchip/xc32/v1.43/bin/bin/../../lib/gcc/pic32mx/4.8.3\libgcc.a(_umoddi3.o)
 .bss           0x00000000        0x0 c:/program files (x86)/microchip/xc32/v1.43/bin/bin/../../lib/gcc/pic32mx/4.8.3\libgcc.a(_umoddi3.o)
 .reginfo       0x00000000       0x18 c:/program files (x86)/microchip/xc32/v1.43/bin/bin/../../lib/gcc/pic32mx/4.8.3\libgcc.a(_umoddi3.o)
 .data          0x00000000        0x0 c:/program files (x86)/microchip/xc32/v1.43/bin/bin/../../lib/gcc/pic32mx/4.8.3\libgcc.a(floatunsidf.o)
 .bss           0x00000000        0x0 c:/program files (x86)/microchip/xc32/v1.43/bin/bin/../../lib/gcc/pic32mx/4.8.3\libgcc.a(floatunsidf.o)
 .reginfo       0x00000000       0x18 c:/program files (x86)/microchip/xc32/v1.43/bin/bin/../../lib/gcc/pic32mx/4.8.3\libgcc.a(floatunsidf.o)
 .text          0x00000000        0x0 c:/program files (x86)/microchip/xc32/v1.43/bin/bin/../../lib/gcc/pic32mx/4.8.3/../../../../pic32mx/lib\libpic32.a(sbrk.o)
 .data          0x00000000        0x0 c:/program files (x86)/microchip/xc32/v1.43/bin/bin/../../lib/gcc/pic32mx/4.8.3/../../../../pic32mx/lib\libpic32.a(sbrk.o)
 .reginfo       0x00000000       0x18 c:/program files (x86)/microchip/xc32/v1.43/bin/bin/../../lib/gcc/pic32mx/4.8.3/../../../../pic32mx/lib\libpic32.a(sbrk.o)
 .text.getpagesize
                0x00000000        0x8 c:/program files (x86)/microchip/xc32/v1.43/bin/bin/../../lib/gcc/pic32mx/4.8.3/../../../../pic32mx/lib\libpic32.a(sbrk.o)
 .text          0x00000000        0x0 c:/program files (x86)/microchip/xc32/v1.43/bin/bin/../../lib/gcc/pic32mx/4.8.3/../../../../pic32mx/lib\libpic32.a(write.o)
 .data          0x00000000        0x0 c:/program files (x86)/microchip/xc32/v1.43/bin/bin/../../lib/gcc/pic32mx/4.8.3/../../../../pic32mx/lib\libpic32.a(write.o)
 .bss           0x00000000        0x0 c:/program files (x86)/microchip/xc32/v1.43/bin/bin/../../lib/gcc/pic32mx/4.8.3/../../../../pic32mx/lib\libpic32.a(write.o)
 .reginfo       0x00000000       0x18 c:/program files (x86)/microchip/xc32/v1.43/bin/bin/../../lib/gcc/pic32mx/4.8.3/../../../../pic32mx/lib\libpic32.a(write.o)
 .text          0x00000000        0x0 c:/program files (x86)/microchip/xc32/v1.43/bin/bin/../../lib/gcc/pic32mx/4.8.3/../../../../pic32mx/lib\libpic32.a(_mon_putc.o)
 .data          0x00000000        0x0 c:/program files (x86)/microchip/xc32/v1.43/bin/bin/../../lib/gcc/pic32mx/4.8.3/../../../../pic32mx/lib\libpic32.a(_mon_putc.o)
 .bss           0x00000000        0x0 c:/program files (x86)/microchip/xc32/v1.43/bin/bin/../../lib/gcc/pic32mx/4.8.3/../../../../pic32mx/lib\libpic32.a(_mon_putc.o)
 .reginfo       0x00000000       0x18 c:/program files (x86)/microchip/xc32/v1.43/bin/bin/../../lib/gcc/pic32mx/4.8.3/../../../../pic32mx/lib\libpic32.a(_mon_putc.o)
 .text          0x00000000        0x0 c:/program files (x86)/microchip/xc32/v1.43/bin/bin/../../lib/gcc/pic32mx/4.8.3/../../../../pic32mx/lib\libpic32.a(xc32_uart.o)
 .data          0x00000000        0x0 c:/program files (x86)/microchip/xc32/v1.43/bin/bin/../../lib/gcc/pic32mx/4.8.3/../../../../pic32mx/lib\libpic32.a(xc32_uart.o)
 .bss           0x00000000        0x0 c:/program files (x86)/microchip/xc32/v1.43/bin/bin/../../lib/gcc/pic32mx/4.8.3/../../../../pic32mx/lib\libpic32.a(xc32_uart.o)
 .reginfo       0x00000000       0x18 c:/program files (x86)/microchip/xc32/v1.43/bin/bin/../../lib/gcc/pic32mx/4.8.3/../../../../pic32mx/lib\libpic32.a(xc32_uart.o)
 .text          0x00000000        0x0 c:/program files (x86)/microchip/xc32/v1.43/bin/bin/../../lib/gcc/pic32mx/4.8.3/../../../../pic32mx/lib\libm.a(litodp.o)
 .data          0x00000000        0x0 c:/program files (x86)/microchip/xc32/v1.43/bin/bin/../../lib/gcc/pic32mx/4.8.3/../../../../pic32mx/lib\libm.a(litodp.o)
 .bss           0x00000000        0x0 c:/program files (x86)/microchip/xc32/v1.43/bin/bin/../../lib/gcc/pic32mx/4.8.3/../../../../pic32mx/lib\libm.a(litodp.o)
 .reginfo       0x00000000       0x18 c:/program files (x86)/microchip/xc32/v1.43/bin/bin/../../lib/gcc/pic32mx/4.8.3/../../../../pic32mx/lib\libm.a(litodp.o)

Memory Configuration

Name             Origin             Length             Attributes
kseg0_program_mem 0x9d000000         0x00200000         xr
kseg0_boot_mem   0x9fc004b0         0x00000000
kseg1_boot_mem   0xbfc00000         0x00000480
kseg1_boot_mem_4B0 0xbfc004b0         0x0000fa50
config_BFC0FF40  0xbfc0ff40         0x00000004
config_BFC0FF44  0xbfc0ff44         0x00000004
config_BFC0FF48  0xbfc0ff48         0x00000004
config_BFC0FF4C  0xbfc0ff4c         0x00000004
config_BFC0FF50  0xbfc0ff50         0x00000004
config_BFC0FF54  0xbfc0ff54         0x00000004
config_BFC0FF58  0xbfc0ff58         0x00000004
config_BFC0FF5C  0xbfc0ff5c         0x00000004
config_BFC0FF60  0xbfc0ff60         0x00000004
config_BFC0FF64  0xbfc0ff64         0x00000004
config_BFC0FF68  0xbfc0ff68         0x00000004
config_BFC0FF6C  0xbfc0ff6c         0x00000004
config_BFC0FF70  0xbfc0ff70         0x00000004
config_BFC0FF74  0xbfc0ff74         0x00000004
config_BFC0FF78  0xbfc0ff78         0x00000004
config_BFC0FF7C  0xbfc0ff7c         0x00000004
config_BFC0FFC0  0xbfc0ffc0         0x00000004
config_BFC0FFC4  0xbfc0ffc4         0x00000004
config_BFC0FFC8  0xbfc0ffc8         0x00000004
config_BFC0FFCC  0xbfc0ffcc         0x00000004
config_BFC0FFD0  0xbfc0ffd0         0x00000004
config_BFC0FFD4  0xbfc0ffd4         0x00000004
config_BFC0FFD8  0xbfc0ffd8         0x00000004
config_BFC0FFDC  0xbfc0ffdc         0x00000004
config_BFC0FFE0  0xbfc0ffe0         0x00000004
config_BFC0FFE4  0xbfc0ffe4         0x00000004
config_BFC0FFE8  0xbfc0ffe8         0x00000004
config_BFC0FFEC  0xbfc0ffec         0x00000004
config_BFC0FFF0  0xbfc0fff0         0x00000004
config_BFC0FFF4  0xbfc0fff4         0x00000004
config_BFC0FFF8  0xbfc0fff8         0x00000004
config_BFC0FFFC  0xbfc0fffc         0x00000004
lowerbootaliaslastpage 0xbfc10000         0x00004000
upperbootalias   0xbfc20000         0x0000ff00
config_BFC2FF40  0xbfc2ff40         0x00000004
config_BFC2FF44  0xbfc2ff44         0x00000004
config_BFC2FF48  0xbfc2ff48         0x00000004
config_BFC2FF4C  0xbfc2ff4c         0x00000004
config_BFC2FF50  0xbfc2ff50         0x00000004
config_BFC2FF54  0xbfc2ff54         0x00000004
config_BFC2FF58  0xbfc2ff58         0x00000004
config_BFC2FF5C  0xbfc2ff5c         0x00000004
config_BFC2FF60  0xbfc2ff60         0x00000004
config_BFC2FF64  0xbfc2ff64         0x00000004
config_BFC2FF68  0xbfc2ff68         0x00000004
config_BFC2FF6C  0xbfc2ff6c         0x00000004
config_BFC2FF70  0xbfc2ff70         0x00000004
config_BFC2FF74  0xbfc2ff74         0x00000004
config_BFC2FF78  0xbfc2ff78         0x00000004
config_BFC2FF7C  0xbfc2ff7c         0x00000004
config_BFC2FFC0  0xbfc2ffc0         0x00000004
config_BFC2FFC4  0xbfc2ffc4         0x00000004
config_BFC2FFC8  0xbfc2ffc8         0x00000004
config_BFC2FFCC  0xbfc2ffcc         0x00000004
config_BFC2FFD0  0xbfc2ffd0         0x00000004
config_BFC2FFD4  0xbfc2ffd4         0x00000004
config_BFC2FFD8  0xbfc2ffd8         0x00000004
config_BFC2FFDC  0xbfc2ffdc         0x00000004
config_BFC2FFE0  0xbfc2ffe0         0x00000004
config_BFC2FFE4  0xbfc2ffe4         0x00000004
config_BFC2FFE8  0xbfc2ffe8         0x00000004
config_BFC2FFEC  0xbfc2ffec         0x00000004
config_BFC2FFF0  0xbfc2fff0         0x00000004
config_BFC2FFF4  0xbfc2fff4         0x00000004
config_BFC2FFF8  0xbfc2fff8         0x00000004
config_BFC2FFFC  0xbfc2fffc         0x00000004
upperbootaliaslastpage 0xbfc30000         0x00004000
boot1            0xbfc40000         0x0000ff00
config_BFC4FF40  0xbfc4ff40         0x00000004
config_BFC4FF44  0xbfc4ff44         0x00000004
config_BFC4FF48  0xbfc4ff48         0x00000004
config_BFC4FF4C  0xbfc4ff4c         0x00000004
config_BFC4FF50  0xbfc4ff50         0x00000004
config_BFC4FF54  0xbfc4ff54         0x00000004
config_BFC4FF58  0xbfc4ff58         0x00000004
config_BFC4FF5C  0xbfc4ff5c         0x00000004
config_BFC4FF60  0xbfc4ff60         0x00000004
config_BFC4FF64  0xbfc4ff64         0x00000004
config_BFC4FF68  0xbfc4ff68         0x00000004
config_BFC4FF6C  0xbfc4ff6c         0x00000004
config_BFC4FF70  0xbfc4ff70         0x00000004
config_BFC4FF74  0xbfc4ff74         0x00000004
config_BFC4FF78  0xbfc4ff78         0x00000004
config_BFC4FF7C  0xbfc4ff7c         0x00000004
config_BFC4FFC0  0xbfc4ffc0         0x00000004
config_BFC4FFC4  0xbfc4ffc4         0x00000004
config_BFC4FFC8  0xbfc4ffc8         0x00000004
config_BFC4FFCC  0xbfc4ffcc         0x00000004
config_BFC4FFD0  0xbfc4ffd0         0x00000004
config_BFC4FFD4  0xbfc4ffd4         0x00000004
config_BFC4FFD8  0xbfc4ffd8         0x00000004
config_BFC4FFDC  0xbfc4ffdc         0x00000004
config_BFC4FFE0  0xbfc4ffe0         0x00000004
config_BFC4FFE4  0xbfc4ffe4         0x00000004
config_BFC4FFE8  0xbfc4ffe8         0x00000004
config_BFC4FFEC  0xbfc4ffec         0x00000004
config_BFC4FFF0  0xbfc4fff0         0x00000004
config_BFC4FFF4  0xbfc4fff4         0x00000004
config_BFC4FFF8  0xbfc4fff8         0x00000004
config_BFC4FFFC  0xbfc4fffc         0x00000004
boot1lastpage    0xbfc50000         0x00004000
config_BFC54000  0xbfc54000         0x00000004
config_BFC54004  0xbfc54004         0x00000004
config_BFC54008  0xbfc54008         0x00000004
config_BFC5400C  0xbfc5400c         0x00000004
config_BFC54010  0xbfc54010         0x00000004
config_BFC54020  0xbfc54020         0x00000004
config_BFC54024  0xbfc54024         0x00000004
boot2            0xbfc60000         0x0000ff00
config_BFC6FF40  0xbfc6ff40         0x00000004
config_BFC6FF44  0xbfc6ff44         0x00000004
config_BFC6FF48  0xbfc6ff48         0x00000004
config_BFC6FF4C  0xbfc6ff4c         0x00000004
config_BFC6FF50  0xbfc6ff50         0x00000004
config_BFC6FF54  0xbfc6ff54         0x00000004
config_BFC6FF58  0xbfc6ff58         0x00000004
config_BFC6FF5C  0xbfc6ff5c         0x00000004
config_BFC6FF60  0xbfc6ff60         0x00000004
config_BFC6FF64  0xbfc6ff64         0x00000004
config_BFC6FF68  0xbfc6ff68         0x00000004
config_BFC6FF6C  0xbfc6ff6c         0x00000004
config_BFC6FF70  0xbfc6ff70         0x00000004
config_BFC6FF74  0xbfc6ff74         0x00000004
config_BFC6FF78  0xbfc6ff78         0x00000004
config_BFC6FF7C  0xbfc6ff7c         0x00000004
config_BFC6FFC0  0xbfc6ffc0         0x00000004
config_BFC6FFC4  0xbfc6ffc4         0x00000004
config_BFC6FFC8  0xbfc6ffc8         0x00000004
config_BFC6FFCC  0xbfc6ffcc         0x00000004
config_BFC6FFD0  0xbfc6ffd0         0x00000004
config_BFC6FFD4  0xbfc6ffd4         0x00000004
config_BFC6FFD8  0xbfc6ffd8         0x00000004
config_BFC6FFDC  0xbfc6ffdc         0x00000004
config_BFC6FFE0  0xbfc6ffe0         0x00000004
config_BFC6FFE4  0xbfc6ffe4         0x00000004
config_BFC6FFE8  0xbfc6ffe8         0x00000004
config_BFC6FFEC  0xbfc6ffec         0x00000004
config_BFC6FFF0  0xbfc6fff0         0x00000004
config_BFC6FFF4  0xbfc6fff4         0x00000004
config_BFC6FFF8  0xbfc6fff8         0x00000004
config_BFC6FFFC  0xbfc6fffc         0x00000004
boot2lastpage    0xbfc70000         0x00004000
kseg0_data_mem   0x80000000         0x00080000         w !x
sfrs             0xbf800000         0x00100000
configsfrs_BFC0FF40 0xbfc0ff40         0x00000040
configsfrs_BFC0FFC0 0xbfc0ffc0         0x00000040
configsfrs_BFC2FF40 0xbfc2ff40         0x00000040
configsfrs_BFC2FFC0 0xbfc2ffc0         0x00000040
configsfrs_BFC4FF40 0xbfc4ff40         0x00000040
configsfrs_BFC4FFC0 0xbfc4ffc0         0x00000040
configsfrs_BFC54000 0xbfc54000         0x00000014
configsfrs_BFC54020 0xbfc54020         0x00000008
configsfrs_BFC6FF40 0xbfc6ff40         0x00000040
configsfrs_BFC6FFC0 0xbfc6ffc0         0x00000040
kseg2_sqi_data_mem 0xd0000000         0x04000000
kseg3_sqi_data_mem 0xf0000000         0x04000000
*default*        0x00000000         0xffffffff

Linker script and memory map

LOAD c:/program files (x86)/microchip/xc32/v1.43/bin/bin/../../lib/gcc/pic32mx/4.8.3/../../../../pic32mx/lib/./proc/32MZ2048ECG064/crt0_mips32r2.o
LOAD c:/program files (x86)/microchip/xc32/v1.43/bin/bin/../../lib/gcc/pic32mx/4.8.3/../../../../pic32mx/lib\debug-exception-return.o
LOAD build/default/production/_ext/1046770110/ecc.o
LOAD build/default/production/_ext/1046770110/ssl-dummy.o
LOAD build/default/production/_ext/1046770110/arc4.o
LOAD build/default/production/_ext/1046770110/pwdbased.o
LOAD build/default/production/_ext/1046770110/tfm.o
LOAD build/default/production/_ext/1046770110/asn.o
LOAD build/default/production/_ext/1046770110/des3.o
LOAD build/default/production/_ext/1046770110/rsa.o
LOAD build/default/production/_ext/1046770110/aes.o
LOAD build/default/production/_ext/1046770110/md5.o
LOAD build/default/production/_ext/1046770110/sha.o
LOAD build/default/production/_ext/1046770110/sha256.o
LOAD build/default/production/_ext/1046770110/sha512.o
LOAD build/default/production/_ext/1046770110/hmac.o
LOAD build/default/production/_ext/1046770110/hash.o
LOAD build/default/production/_ext/1046770110/compress.o
LOAD build/default/production/_ext/1107806295/adler32.o
LOAD build/default/production/_ext/1107806295/compress.o
LOAD build/default/production/_ext/1107806295/crc32.o
LOAD build/default/production/_ext/1107806295/deflate.o
LOAD build/default/production/_ext/1107806295/infback.o
LOAD build/default/production/_ext/1107806295/inffast.o
LOAD build/default/production/_ext/1107806295/inflate.o
LOAD build/default/production/_ext/1107806295/inftrees.o
LOAD build/default/production/_ext/1107806295/trees.o
LOAD build/default/production/_ext/1107806295/uncompr.o
LOAD build/default/production/_ext/1107806295/zutil.o
LOAD build/default/production/_ext/1046770110/random.o
LOAD build/default/production/_ext/1046770110/crypto.o
LOAD build/default/production/_ext/1046770110/coding.o
LOAD build/default/production/_ext/1046770110/error.o
LOAD build/default/production/_ext/1046770110/integer.o
LOAD build/default/production/_ext/1046770110/logging.o
LOAD build/default/production/_ext/1046770110/memory.o
LOAD build/default/production/_ext/1046770110/misc.o
LOAD build/default/production/_ext/1046770110/port.o
LOAD build/default/production/_ext/508588874/drv_ethmac.o
LOAD build/default/production/_ext/508588874/drv_ethmac_lib.o
LOAD build/default/production/_ext/1684742680/drv_ethphy.o
LOAD build/default/production/_ext/1684742680/drv_extphy_smsc8740.o
LOAD build/default/production/_ext/1895062557/drv_tmr.o
LOAD build/default/production/_ext/1601094287/drv_usart.o
LOAD build/default/production/_ext/1601094287/drv_usart_buffer_queue.o
LOAD build/default/production/_ext/1601094287/drv_usart_read_write.o
LOAD build/default/production/_ext/1333902316/sys_command.o
LOAD build/default/production/_ext/388960396/sys_buffer.o
LOAD build/default/production/_ext/388960396/sys_queue.o
LOAD build/default/production/_ext/877190136/sys_console.o
LOAD build/default/production/_ext/877190136/sys_console_uart.o
LOAD build/default/production/_ext/996864500/sys_debug.o
LOAD build/default/production/_ext/1470476842/sys_devcon.o
LOAD build/default/production/_ext/1470476842/sys_devcon_pic32mz.o
LOAD build/default/production/_ext/1470476842/sys_devcon_cache_pic32mz.o
LOAD build/default/production/_ext/1979725680/sys_int_pic32.o
LOAD build/default/production/_ext/1966875597/sys_ports.o
LOAD build/default/production/_ext/1457815988/sys_random.o
LOAD build/default/production/_ext/1076061456/sys_reset.o
LOAD build/default/production/_ext/837595974/sys_tmr.o
LOAD build/default/production/_ext/1406599153/tcp.o
LOAD build/default/production/_ext/1406599153/udp.o
LOAD build/default/production/_ext/1406599153/tcpip_heap_alloc.o
LOAD build/default/production/_ext/1406599153/tcpip_heap_internal.o
LOAD build/default/production/_ext/1406599153/arp.o
LOAD build/default/production/_ext/1406599153/dhcp.o
LOAD build/default/production/_ext/1406599153/dns.o
LOAD build/default/production/_ext/1406599153/nbns.o
LOAD build/default/production/_ext/1406599153/tcpip_announce.o
LOAD build/default/production/_ext/1268476361/helpers.o
LOAD build/default/production/_ext/1268476361/lfsr.o
LOAD build/default/production/_ext/1406599153/hash_fnv.o
LOAD build/default/production/_ext/1406599153/oahash.o
LOAD build/default/production/_ext/1406599153/tcpip_helpers.o
LOAD build/default/production/_ext/1406599153/tcpip_helper_c32.o
LOAD build/default/production/_ext/1406599153/tcpip_manager.o
LOAD build/default/production/_ext/1406599153/tcpip_notify.o
LOAD build/default/production/_ext/1406599153/tcpip_packet.o
LOAD build/default/production/_ext/1406599153/ipv4.o
LOAD build/default/production/_ext/1360937237/app.o
LOAD build/default/production/_ext/639803181/sys_clk_static.o
LOAD build/default/production/_ext/822048611/sys_ports_static.o
LOAD build/default/production/_ext/1688732426/system_init.o
LOAD build/default/production/_ext/1688732426/system_interrupt.o
LOAD build/default/production/_ext/1688732426/system_exceptions.o
LOAD build/default/production/_ext/1360937237/main.o
LOAD build/default/production/_ext/1688732426/system_tasks.o
LOAD ..\..\..\..\..\microchip\harmony\v1_07\bin\framework\peripheral\PIC32MZ2048ECG064_peripherals.a
                0x00000001                __MPLAB_BUILD = 0x1
                0x00010000                _min_heap_size = 0x10000
LOAD c:/program files (x86)/microchip/xc32/v1.43/bin/bin/../../lib/gcc/pic32mx/4.8.3/../../../../pic32mx/lib/./proc/32MZ2048ECG064\default_isr_vectors.o
LOAD c:/program files (x86)/microchip/xc32/v1.43/bin/bin/../../lib/gcc/pic32mx/4.8.3/../../../../pic32mx/lib\pic32_software_reset.o
                0x00000400                PROVIDE (_min_stack_size, 0x400)
LOAD c:/program files (x86)/microchip/xc32/v1.43/bin/bin/../../lib/gcc/pic32mx/4.8.3/../../../../pic32mx/lib/./proc/32MZ2048ECG064\processor.o
START GROUP
LOAD c:/program files (x86)/microchip/xc32/v1.43/bin/bin/../../lib/gcc/pic32mx/4.8.3/../../../../pic32mx/lib/./proc/32MZ2048ECG064\vector_offset_init.o
END GROUP
                0x00000001                PROVIDE (_vector_spacing, 0x1)
                0x9d000000                PROVIDE (_ebase_address, 0x9d000000)
                0xbfc00000                _RESET_ADDR = 0xbfc00000
                0xbfc00380                _BEV_EXCPT_ADDR = 0xbfc00380
                0xbfc00480                _DBG_EXCPT_ADDR = 0xbfc00480
                0x9d000000                _SIMPLE_TLB_REFILL_EXCPT_ADDR = (_ebase_address + 0x0)
                0x9d000100                _CACHE_ERR_EXCPT_ADDR = (_ebase_address + 0x100)
                0x9d000180                _GEN_EXCPT_ADDR = (_ebase_address + 0x180)

.config_BFC0FF40
 *(.config_BFC0FF40)

.config_BFC0FF44
 *(.config_BFC0FF44)

.config_BFC0FF48
 *(.config_BFC0FF48)

.config_BFC0FF4C
 *(.config_BFC0FF4C)

.config_BFC0FF50
 *(.config_BFC0FF50)

.config_BFC0FF54
 *(.config_BFC0FF54)

.config_BFC0FF58
 *(.config_BFC0FF58)

.config_BFC0FF5C
 *(.config_BFC0FF5C)

.config_BFC0FF60
 *(.config_BFC0FF60)

.config_BFC0FF64
 *(.config_BFC0FF64)

.config_BFC0FF68
 *(.config_BFC0FF68)

.config_BFC0FF6C
 *(.config_BFC0FF6C)

.config_BFC0FF70
 *(.config_BFC0FF70)

.config_BFC0FF74
 *(.config_BFC0FF74)

.config_BFC0FF78
 *(.config_BFC0FF78)

.config_BFC0FF7C
 *(.config_BFC0FF7C)

.config_BFC0FFC0
                0xbfc0ffc0        0x4
 *(.config_BFC0FFC0)
 .config_BFC0FFC0
                0xbfc0ffc0        0x4 build/default/production/_ext/1688732426/system_init.o

.config_BFC0FFC4
                0xbfc0ffc4        0x4
 *(.config_BFC0FFC4)
 .config_BFC0FFC4
                0xbfc0ffc4        0x4 build/default/production/_ext/1688732426/system_init.o

.config_BFC0FFC8
                0xbfc0ffc8        0x4
 *(.config_BFC0FFC8)
 .config_BFC0FFC8
                0xbfc0ffc8        0x4 build/default/production/_ext/1688732426/system_init.o

.config_BFC0FFCC
                0xbfc0ffcc        0x4
 *(.config_BFC0FFCC)
 .config_BFC0FFCC
                0xbfc0ffcc        0x4 build/default/production/_ext/1688732426/system_init.o

.config_BFC0FFD0
 *(.config_BFC0FFD0)

.config_BFC0FFD4
 *(.config_BFC0FFD4)

.config_BFC0FFD8
 *(.config_BFC0FFD8)

.config_BFC0FFDC
                0xbfc0ffdc        0x4
 *(.config_BFC0FFDC)
 .config_BFC0FFDC
                0xbfc0ffdc        0x4 build/default/production/_ext/1688732426/system_init.o

.config_BFC0FFE0
 *(.config_BFC0FFE0)

.config_BFC0FFE4
 *(.config_BFC0FFE4)

.config_BFC0FFE8
 *(.config_BFC0FFE8)

.config_BFC0FFEC
 *(.config_BFC0FFEC)

.config_BFC0FFF0
 *(.config_BFC0FFF0)

.config_BFC0FFF4
 *(.config_BFC0FFF4)

.config_BFC0FFF8
 *(.config_BFC0FFF8)

.config_BFC0FFFC
                0xbfc0fffc        0x4
 *(.config_BFC0FFFC)
 .config_BFC0FFFC
                0xbfc0fffc        0x4 build/default/production/_ext/1688732426/system_init.o

.config_BFC2FF40
 *(.config_BFC2FF40)

.config_BFC2FF44
 *(.config_BFC2FF44)

.config_BFC2FF48
 *(.config_BFC2FF48)

.config_BFC2FF4C
 *(.config_BFC2FF4C)

.config_BFC2FF50
 *(.config_BFC2FF50)

.config_BFC2FF54
 *(.config_BFC2FF54)

.config_BFC2FF58
 *(.config_BFC2FF58)

.config_BFC2FF5C
 *(.config_BFC2FF5C)

.config_BFC2FF60
 *(.config_BFC2FF60)

.config_BFC2FF64
 *(.config_BFC2FF64)

.config_BFC2FF68
 *(.config_BFC2FF68)

.config_BFC2FF6C
 *(.config_BFC2FF6C)

.config_BFC2FF70
 *(.config_BFC2FF70)

.config_BFC2FF74
 *(.config_BFC2FF74)

.config_BFC2FF78
 *(.config_BFC2FF78)

.config_BFC2FF7C
 *(.config_BFC2FF7C)

.config_BFC2FFC0
 *(.config_BFC2FFC0)

.config_BFC2FFC4
 *(.config_BFC2FFC4)

.config_BFC2FFC8
 *(.config_BFC2FFC8)

.config_BFC2FFCC
 *(.config_BFC2FFCC)

.config_BFC2FFD0
 *(.config_BFC2FFD0)

.config_BFC2FFD4
 *(.config_BFC2FFD4)

.config_BFC2FFD8
 *(.config_BFC2FFD8)

.config_BFC2FFDC
 *(.config_BFC2FFDC)

.config_BFC2FFE0
 *(.config_BFC2FFE0)

.config_BFC2FFE4
 *(.config_BFC2FFE4)

.config_BFC2FFE8
 *(.config_BFC2FFE8)

.config_BFC2FFEC
 *(.config_BFC2FFEC)

.config_BFC2FFF0
 *(.config_BFC2FFF0)

.config_BFC2FFF4
 *(.config_BFC2FFF4)

.config_BFC2FFF8
 *(.config_BFC2FFF8)

.config_BFC2FFFC
 *(.config_BFC2FFFC)

.config_BFC4FF40
 *(.config_BFC4FF40)

.config_BFC4FF44
 *(.config_BFC4FF44)

.config_BFC4FF48
 *(.config_BFC4FF48)

.config_BFC4FF4C
 *(.config_BFC4FF4C)

.config_BFC4FF50
 *(.config_BFC4FF50)

.config_BFC4FF54
 *(.config_BFC4FF54)

.config_BFC4FF58
 *(.config_BFC4FF58)

.config_BFC4FF5C
 *(.config_BFC4FF5C)

.config_BFC4FF60
 *(.config_BFC4FF60)

.config_BFC4FF64
 *(.config_BFC4FF64)

.config_BFC4FF68
 *(.config_BFC4FF68)

.config_BFC4FF6C
 *(.config_BFC4FF6C)

.config_BFC4FF70
 *(.config_BFC4FF70)

.config_BFC4FF74
 *(.config_BFC4FF74)

.config_BFC4FF78
 *(.config_BFC4FF78)

.config_BFC4FF7C
 *(.config_BFC4FF7C)

.config_BFC4FFC0
 *(.config_BFC4FFC0)

.config_BFC4FFC4
 *(.config_BFC4FFC4)

.config_BFC4FFC8
 *(.config_BFC4FFC8)

.config_BFC4FFCC
 *(.config_BFC4FFCC)

.config_BFC4FFD0
 *(.config_BFC4FFD0)

.config_BFC4FFD4
 *(.config_BFC4FFD4)

.config_BFC4FFD8
 *(.config_BFC4FFD8)

.config_BFC4FFDC
 *(.config_BFC4FFDC)

.config_BFC4FFE0
 *(.config_BFC4FFE0)

.config_BFC4FFE4
 *(.config_BFC4FFE4)

.config_BFC4FFE8
 *(.config_BFC4FFE8)

.config_BFC4FFEC
 *(.config_BFC4FFEC)

.config_BFC4FFF0
 *(.config_BFC4FFF0)

.config_BFC4FFF4
 *(.config_BFC4FFF4)

.config_BFC4FFF8
 *(.config_BFC4FFF8)

.config_BFC4FFFC
 *(.config_BFC4FFFC)

.config_BFC54000
 *(.config_BFC54000)

.config_BFC54004
 *(.config_BFC54004)

.config_BFC54008
 *(.config_BFC54008)

.config_BFC5400C
 *(.config_BFC5400C)

.config_BFC54010
 *(.config_BFC54010)

.config_BFC54020
 *(.config_BFC54020)

.config_BFC54024
 *(.config_BFC54024)

.config_BFC6FF40
 *(.config_BFC6FF40)

.config_BFC6FF44
 *(.config_BFC6FF44)

.config_BFC6FF48
 *(.config_BFC6FF48)

.config_BFC6FF4C
 *(.config_BFC6FF4C)

.config_BFC6FF50
 *(.config_BFC6FF50)

.config_BFC6FF54
 *(.config_BFC6FF54)

.config_BFC6FF58
 *(.config_BFC6FF58)

.config_BFC6FF5C
 *(.config_BFC6FF5C)

.config_BFC6FF60
 *(.config_BFC6FF60)

.config_BFC6FF64
 *(.config_BFC6FF64)

.config_BFC6FF68
 *(.config_BFC6FF68)

.config_BFC6FF6C
 *(.config_BFC6FF6C)

.config_BFC6FF70
 *(.config_BFC6FF70)

.config_BFC6FF74
 *(.config_BFC6FF74)

.config_BFC6FF78
 *(.config_BFC6FF78)

.config_BFC6FF7C
 *(.config_BFC6FF7C)

.config_BFC6FFC0
 *(.config_BFC6FFC0)

.config_BFC6FFC4
 *(.config_BFC6FFC4)

.config_BFC6FFC8
 *(.config_BFC6FFC8)

.config_BFC6FFCC
 *(.config_BFC6FFCC)

.config_BFC6FFD0
 *(.config_BFC6FFD0)

.config_BFC6FFD4
 *(.config_BFC6FFD4)

.config_BFC6FFD8
 *(.config_BFC6FFD8)

.config_BFC6FFDC
 *(.config_BFC6FFDC)

.config_BFC6FFE0
 *(.config_BFC6FFE0)

.config_BFC6FFE4
 *(.config_BFC6FFE4)

.config_BFC6FFE8
 *(.config_BFC6FFE8)

.config_BFC6FFEC
 *(.config_BFC6FFEC)

.config_BFC6FFF0
 *(.config_BFC6FFF0)

.config_BFC6FFF4
 *(.config_BFC6FFF4)

.config_BFC6FFF8
 *(.config_BFC6FFF8)

.config_BFC6FFFC
 *(.config_BFC6FFFC)

.reset          0xbfc00000      0x210
 *(.reset)
 .reset         0xbfc00000       0x18 c:/program files (x86)/microchip/xc32/v1.43/bin/bin/../../lib/gcc/pic32mx/4.8.3/../../../../pic32mx/lib/./proc/32MZ2048ECG064/crt0_mips32r2.o
                0xbfc00000                _reset
 *(.reset.startup)
 .reset.startup
                0xbfc00018      0x1f8 c:/program files (x86)/microchip/xc32/v1.43/bin/bin/../../lib/gcc/pic32mx/4.8.3/../../../../pic32mx/lib/./proc/32MZ2048ECG064/crt0_mips32r2.o
                0xbfc00018                _startup

.bev_excpt      0xbfc00380       0x10
 *(.bev_handler)
 .bev_handler   0xbfc00380       0x10 c:/program files (x86)/microchip/xc32/v1.43/bin/bin/../../lib/gcc/pic32mx/4.8.3/../../../../pic32mx/lib/./proc/32MZ2048ECG064/crt0_mips32r2.o

.cache_init     0xbfc004b0      0x19c
 *(.cache_init)
 *(.cache_init.*)
 .cache_init.cache
                0xbfc004b0       0xc0 c:/program files (x86)/microchip/xc32/v1.43/bin/bin/../../lib/gcc/pic32mx/4.8.3/../../../../pic32mx/lib\libpic32.a(pic32_init_cache.o)
 .cache_init.pic32_init_cache
                0xbfc00570       0xdc c:/program files (x86)/microchip/xc32/v1.43/bin/bin/../../lib/gcc/pic32mx/4.8.3/../../../../pic32mx/lib\libpic32.a(pic32_init_cache.o)
                0xbfc00570                __pic32_init_cache

.simple_tlb_refill_excpt
                0x9d000000       0x10
 *(.simple_tlb_refill_vector)
 .simple_tlb_refill_vector
                0x9d000000       0x10 c:/program files (x86)/microchip/xc32/v1.43/bin/bin/../../lib/gcc/pic32mx/4.8.3/../../../../pic32mx/lib/./proc/32MZ2048ECG064/crt0_mips32r2.o

.cache_err_excpt
                0x9d000100       0x10
 *(.cache_err_vector)
 .cache_err_vector
                0x9d000100       0x10 c:/program files (x86)/microchip/xc32/v1.43/bin/bin/../../lib/gcc/pic32mx/4.8.3/../../../../pic32mx/lib/./proc/32MZ2048ECG064/crt0_mips32r2.o

.app_excpt      0x9d000180       0x10
 *(.gen_handler)
 .gen_handler   0x9d000180       0x10 c:/program files (x86)/microchip/xc32/v1.43/bin/bin/../../lib/gcc/pic32mx/4.8.3/../../../../pic32mx/lib/./proc/32MZ2048ECG064/crt0_mips32r2.o

.vectors        0x9d000200       0x88
                0x00000240                __vector_offset_0 = DEFINED (__vector_dispatch_0)?(. - _ebase_address):__vector_offset_default
 *(.vector_0)
                0x00000240                __vector_offset_1 = DEFINED (__vector_dispatch_1)?(. - _ebase_address):__vector_offset_default
 *(.vector_1)
                0x00000240                __vector_offset_2 = DEFINED (__vector_dispatch_2)?(. - _ebase_address):__vector_offset_default
 *(.vector_2)
                0x00000240                __vector_offset_3 = DEFINED (__vector_dispatch_3)?(. - _ebase_address):__vector_offset_default
 *(.vector_3)
                0x00000200                __vector_offset_4 = DEFINED (__vector_dispatch_4)?(. - _ebase_address):__vector_offset_default
 *(.vector_4)
 .vector_4      0x9d000200        0x8 build/default/production/_ext/1688732426/system_interrupt.o
                0x9d000200                __vector_dispatch_4
                0x00000240                __vector_offset_5 = DEFINED (__vector_dispatch_5)?(. - _ebase_address):__vector_offset_default
 *(.vector_5)
                0x00000240                __vector_offset_6 = DEFINED (__vector_dispatch_6)?(. - _ebase_address):__vector_offset_default
 *(.vector_6)
                0x00000240                __vector_offset_7 = DEFINED (__vector_dispatch_7)?(. - _ebase_address):__vector_offset_default
 *(.vector_7)
                0x00000240                __vector_offset_8 = DEFINED (__vector_dispatch_8)?(. - _ebase_address):__vector_offset_default
 *(.vector_8)
                0x00000240                __vector_offset_9 = DEFINED (__vector_dispatch_9)?(. - _ebase_address):__vector_offset_default
 *(.vector_9)
                0x00000240                __vector_offset_10 = DEFINED (__vector_dispatch_10)?(. - _ebase_address):__vector_offset_default
 *(.vector_10)
                0x00000240                __vector_offset_11 = DEFINED (__vector_dispatch_11)?(. - _ebase_address):__vector_offset_default
 *(.vector_11)
                0x00000240                __vector_offset_12 = DEFINED (__vector_dispatch_12)?(. - _ebase_address):__vector_offset_default
 *(.vector_12)
                0x00000240                __vector_offset_13 = DEFINED (__vector_dispatch_13)?(. - _ebase_address):__vector_offset_default
 *(.vector_13)
                0x00000240                __vector_offset_14 = DEFINED (__vector_dispatch_14)?(. - _ebase_address):__vector_offset_default
 *(.vector_14)
                0x00000240                __vector_offset_15 = DEFINED (__vector_dispatch_15)?(. - _ebase_address):__vector_offset_default
 *(.vector_15)
                0x00000240                __vector_offset_16 = DEFINED (__vector_dispatch_16)?(. - _ebase_address):__vector_offset_default
 *(.vector_16)
                0x00000240                __vector_offset_17 = DEFINED (__vector_dispatch_17)?(. - _ebase_address):__vector_offset_default
 *(.vector_17)
                0x00000240                __vector_offset_18 = DEFINED (__vector_dispatch_18)?(. - _ebase_address):__vector_offset_default
 *(.vector_18)
                0x00000240                __vector_offset_19 = DEFINED (__vector_dispatch_19)?(. - _ebase_address):__vector_offset_default
 *(.vector_19)
                0x00000240                __vector_offset_20 = DEFINED (__vector_dispatch_20)?(. - _ebase_address):__vector_offset_default
 *(.vector_20)
                0x00000240                __vector_offset_21 = DEFINED (__vector_dispatch_21)?(. - _ebase_address):__vector_offset_default
 *(.vector_21)
                0x00000240                __vector_offset_22 = DEFINED (__vector_dispatch_22)?(. - _ebase_address):__vector_offset_default
 *(.vector_22)
                0x00000240                __vector_offset_23 = DEFINED (__vector_dispatch_23)?(. - _ebase_address):__vector_offset_default
 *(.vector_23)
                0x00000240                __vector_offset_24 = DEFINED (__vector_dispatch_24)?(. - _ebase_address):__vector_offset_default
 *(.vector_24)
                0x00000240                __vector_offset_25 = DEFINED (__vector_dispatch_25)?(. - _ebase_address):__vector_offset_default
 *(.vector_25)
                0x00000240                __vector_offset_26 = DEFINED (__vector_dispatch_26)?(. - _ebase_address):__vector_offset_default
 *(.vector_26)
                0x00000240                __vector_offset_27 = DEFINED (__vector_dispatch_27)?(. - _ebase_address):__vector_offset_default
 *(.vector_27)
                0x00000240                __vector_offset_28 = DEFINED (__vector_dispatch_28)?(. - _ebase_address):__vector_offset_default
 *(.vector_28)
                0x00000240                __vector_offset_29 = DEFINED (__vector_dispatch_29)?(. - _ebase_address):__vector_offset_default
 *(.vector_29)
                0x00000240                __vector_offset_30 = DEFINED (__vector_dispatch_30)?(. - _ebase_address):__vector_offset_default
 *(.vector_30)
                0x00000240                __vector_offset_31 = DEFINED (__vector_dispatch_31)?(. - _ebase_address):__vector_offset_default
 *(.vector_31)
                0x00000240                __vector_offset_32 = DEFINED (__vector_dispatch_32)?(. - _ebase_address):__vector_offset_default
 *(.vector_32)
                0x00000240                __vector_offset_33 = DEFINED (__vector_dispatch_33)?(. - _ebase_address):__vector_offset_default
 *(.vector_33)
                0x00000240                __vector_offset_34 = DEFINED (__vector_dispatch_34)?(. - _ebase_address):__vector_offset_default
 *(.vector_34)
                0x00000240                __vector_offset_35 = DEFINED (__vector_dispatch_35)?(. - _ebase_address):__vector_offset_default
 *(.vector_35)
                0x00000240                __vector_offset_36 = DEFINED (__vector_dispatch_36)?(. - _ebase_address):__vector_offset_default
 *(.vector_36)
                0x00000240                __vector_offset_37 = DEFINED (__vector_dispatch_37)?(. - _ebase_address):__vector_offset_default
 *(.vector_37)
                0x00000240                __vector_offset_38 = DEFINED (__vector_dispatch_38)?(. - _ebase_address):__vector_offset_default
 *(.vector_38)
                0x00000240                __vector_offset_39 = DEFINED (__vector_dispatch_39)?(. - _ebase_address):__vector_offset_default
 *(.vector_39)
                0x00000240                __vector_offset_40 = DEFINED (__vector_dispatch_40)?(. - _ebase_address):__vector_offset_default
 *(.vector_40)
                0x00000240                __vector_offset_41 = DEFINED (__vector_dispatch_41)?(. - _ebase_address):__vector_offset_default
 *(.vector_41)
                0x00000240                __vector_offset_42 = DEFINED (__vector_dispatch_42)?(. - _ebase_address):__vector_offset_default
 *(.vector_42)
                0x00000240                __vector_offset_43 = DEFINED (__vector_dispatch_43)?(. - _ebase_address):__vector_offset_default
 *(.vector_43)
                0x00000240                __vector_offset_44 = DEFINED (__vector_dispatch_44)?(. - _ebase_address):__vector_offset_default
 *(.vector_44)
                0x00000240                __vector_offset_45 = DEFINED (__vector_dispatch_45)?(. - _ebase_address):__vector_offset_default
 *(.vector_45)
                0x00000240                __vector_offset_46 = DEFINED (__vector_dispatch_46)?(. - _ebase_address):__vector_offset_default
 *(.vector_46)
                0x00000240                __vector_offset_47 = DEFINED (__vector_dispatch_47)?(. - _ebase_address):__vector_offset_default
 *(.vector_47)
                0x00000240                __vector_offset_48 = DEFINED (__vector_dispatch_48)?(. - _ebase_address):__vector_offset_default
 *(.vector_48)
                0x00000240                __vector_offset_49 = DEFINED (__vector_dispatch_49)?(. - _ebase_address):__vector_offset_default
 *(.vector_49)
                0x00000240                __vector_offset_50 = DEFINED (__vector_dispatch_50)?(. - _ebase_address):__vector_offset_default
 *(.vector_50)
                0x00000240                __vector_offset_51 = DEFINED (__vector_dispatch_51)?(. - _ebase_address):__vector_offset_default
 *(.vector_51)
                0x00000240                __vector_offset_52 = DEFINED (__vector_dispatch_52)?(. - _ebase_address):__vector_offset_default
 *(.vector_52)
                0x00000240                __vector_offset_53 = DEFINED (__vector_dispatch_53)?(. - _ebase_address):__vector_offset_default
 *(.vector_53)
                0x00000240                __vector_offset_54 = DEFINED (__vector_dispatch_54)?(. - _ebase_address):__vector_offset_default
 *(.vector_54)
                0x00000240                __vector_offset_55 = DEFINED (__vector_dispatch_55)?(. - _ebase_address):__vector_offset_default
 *(.vector_55)
                0x00000240                __vector_offset_56 = DEFINED (__vector_dispatch_56)?(. - _ebase_address):__vector_offset_default
 *(.vector_56)
                0x00000240                __vector_offset_57 = DEFINED (__vector_dispatch_57)?(. - _ebase_address):__vector_offset_default
 *(.vector_57)
                0x00000240                __vector_offset_58 = DEFINED (__vector_dispatch_58)?(. - _ebase_address):__vector_offset_default
 *(.vector_58)
                0x00000240                __vector_offset_59 = DEFINED (__vector_dispatch_59)?(. - _ebase_address):__vector_offset_default
 *(.vector_59)
                0x00000240                __vector_offset_60 = DEFINED (__vector_dispatch_60)?(. - _ebase_address):__vector_offset_default
 *(.vector_60)
                0x00000240                __vector_offset_61 = DEFINED (__vector_dispatch_61)?(. - _ebase_address):__vector_offset_default
 *(.vector_61)
                0x00000240                __vector_offset_62 = DEFINED (__vector_dispatch_62)?(. - _ebase_address):__vector_offset_default
 *(.vector_62)
                0x00000240                __vector_offset_63 = DEFINED (__vector_dispatch_63)?(. - _ebase_address):__vector_offset_default
 *(.vector_63)
                0x00000240                __vector_offset_64 = DEFINED (__vector_dispatch_64)?(. - _ebase_address):__vector_offset_default
 *(.vector_64)
                0x00000240                __vector_offset_65 = DEFINED (__vector_dispatch_65)?(. - _ebase_address):__vector_offset_default
 *(.vector_65)
                0x00000240                __vector_offset_66 = DEFINED (__vector_dispatch_66)?(. - _ebase_address):__vector_offset_default
 *(.vector_66)
                0x00000240                __vector_offset_67 = DEFINED (__vector_dispatch_67)?(. - _ebase_address):__vector_offset_default
 *(.vector_67)
                0x00000240                __vector_offset_68 = DEFINED (__vector_dispatch_68)?(. - _ebase_address):__vector_offset_default
 *(.vector_68)
                0x00000240                __vector_offset_69 = DEFINED (__vector_dispatch_69)?(. - _ebase_address):__vector_offset_default
 *(.vector_69)
                0x00000240                __vector_offset_70 = DEFINED (__vector_dispatch_70)?(. - _ebase_address):__vector_offset_default
 *(.vector_70)
                0x00000240                __vector_offset_71 = DEFINED (__vector_dispatch_71)?(. - _ebase_address):__vector_offset_default
 *(.vector_71)
                0x00000240                __vector_offset_72 = DEFINED (__vector_dispatch_72)?(. - _ebase_address):__vector_offset_default
 *(.vector_72)
                0x00000240                __vector_offset_73 = DEFINED (__vector_dispatch_73)?(. - _ebase_address):__vector_offset_default
 *(.vector_73)
                0x00000240                __vector_offset_74 = DEFINED (__vector_dispatch_74)?(. - _ebase_address):__vector_offset_default
 *(.vector_74)
                0x00000240                __vector_offset_75 = DEFINED (__vector_dispatch_75)?(. - _ebase_address):__vector_offset_default
 *(.vector_75)
                0x00000240                __vector_offset_76 = DEFINED (__vector_dispatch_76)?(. - _ebase_address):__vector_offset_default
 *(.vector_76)
                0x00000240                __vector_offset_77 = DEFINED (__vector_dispatch_77)?(. - _ebase_address):__vector_offset_default
 *(.vector_77)
                0x00000240                __vector_offset_78 = DEFINED (__vector_dispatch_78)?(. - _ebase_address):__vector_offset_default
 *(.vector_78)
                0x00000240                __vector_offset_79 = DEFINED (__vector_dispatch_79)?(. - _ebase_address):__vector_offset_default
 *(.vector_79)
                0x00000240                __vector_offset_80 = DEFINED (__vector_dispatch_80)?(. - _ebase_address):__vector_offset_default
 *(.vector_80)
                0x00000240                __vector_offset_81 = DEFINED (__vector_dispatch_81)?(. - _ebase_address):__vector_offset_default
 *(.vector_81)
                0x00000240                __vector_offset_82 = DEFINED (__vector_dispatch_82)?(. - _ebase_address):__vector_offset_default
 *(.vector_82)
                0x00000240                __vector_offset_83 = DEFINED (__vector_dispatch_83)?(. - _ebase_address):__vector_offset_default
 *(.vector_83)
                0x00000240                __vector_offset_84 = DEFINED (__vector_dispatch_84)?(. - _ebase_address):__vector_offset_default
 *(.vector_84)
                0x00000240                __vector_offset_85 = DEFINED (__vector_dispatch_85)?(. - _ebase_address):__vector_offset_default
 *(.vector_85)
                0x00000240                __vector_offset_86 = DEFINED (__vector_dispatch_86)?(. - _ebase_address):__vector_offset_default
 *(.vector_86)
                0x00000240                __vector_offset_87 = DEFINED (__vector_dispatch_87)?(. - _ebase_address):__vector_offset_default
 *(.vector_87)
                0x00000240                __vector_offset_88 = DEFINED (__vector_dispatch_88)?(. - _ebase_address):__vector_offset_default
 *(.vector_88)
                0x00000240                __vector_offset_89 = DEFINED (__vector_dispatch_89)?(. - _ebase_address):__vector_offset_default
 *(.vector_89)
                0x00000240                __vector_offset_90 = DEFINED (__vector_dispatch_90)?(. - _ebase_address):__vector_offset_default
 *(.vector_90)
                0x00000240                __vector_offset_91 = DEFINED (__vector_dispatch_91)?(. - _ebase_address):__vector_offset_default
 *(.vector_91)
                0x00000240                __vector_offset_92 = DEFINED (__vector_dispatch_92)?(. - _ebase_address):__vector_offset_default
 *(.vector_92)
                0x00000240                __vector_offset_93 = DEFINED (__vector_dispatch_93)?(. - _ebase_address):__vector_offset_default
 *(.vector_93)
                0x00000240                __vector_offset_94 = DEFINED (__vector_dispatch_94)?(. - _ebase_address):__vector_offset_default
 *(.vector_94)
                0x00000240                __vector_offset_95 = DEFINED (__vector_dispatch_95)?(. - _ebase_address):__vector_offset_default
 *(.vector_95)
                0x00000240                __vector_offset_96 = DEFINED (__vector_dispatch_96)?(. - _ebase_address):__vector_offset_default
 *(.vector_96)
                0x00000240                __vector_offset_97 = DEFINED (__vector_dispatch_97)?(. - _ebase_address):__vector_offset_default
 *(.vector_97)
                0x00000240                __vector_offset_98 = DEFINED (__vector_dispatch_98)?(. - _ebase_address):__vector_offset_default
 *(.vector_98)
                0x00000240                __vector_offset_99 = DEFINED (__vector_dispatch_99)?(. - _ebase_address):__vector_offset_default
 *(.vector_99)
                0x00000240                __vector_offset_100 = DEFINED (__vector_dispatch_100)?(. - _ebase_address):__vector_offset_default
 *(.vector_100)
                0x00000240                __vector_offset_101 = DEFINED (__vector_dispatch_101)?(. - _ebase_address):__vector_offset_default
 *(.vector_101)
                0x00000240                __vector_offset_102 = DEFINED (__vector_dispatch_102)?(. - _ebase_address):__vector_offset_default
 *(.vector_102)
                0x00000240                __vector_offset_103 = DEFINED (__vector_dispatch_103)?(. - _ebase_address):__vector_offset_default
 *(.vector_103)
                0x00000240                __vector_offset_104 = DEFINED (__vector_dispatch_104)?(. - _ebase_address):__vector_offset_default
 *(.vector_104)
                0x00000240                __vector_offset_105 = DEFINED (__vector_dispatch_105)?(. - _ebase_address):__vector_offset_default
 *(.vector_105)
                0x00000240                __vector_offset_106 = DEFINED (__vector_dispatch_106)?(. - _ebase_address):__vector_offset_default
 *(.vector_106)
                0x00000240                __vector_offset_107 = DEFINED (__vector_dispatch_107)?(. - _ebase_address):__vector_offset_default
 *(.vector_107)
                0x00000240                __vector_offset_108 = DEFINED (__vector_dispatch_108)?(. - _ebase_address):__vector_offset_default
 *(.vector_108)
                0x00000240                __vector_offset_109 = DEFINED (__vector_dispatch_109)?(. - _ebase_address):__vector_offset_default
 *(.vector_109)
                0x00000240                __vector_offset_110 = DEFINED (__vector_dispatch_110)?(. - _ebase_address):__vector_offset_default
 *(.vector_110)
                0x00000240                __vector_offset_111 = DEFINED (__vector_dispatch_111)?(. - _ebase_address):__vector_offset_default
 *(.vector_111)
                0x00000208                __vector_offset_112 = DEFINED (__vector_dispatch_112)?(. - _ebase_address):__vector_offset_default
 *(.vector_112)
 .vector_112    0x9d000208        0x8 build/default/production/_ext/1688732426/system_interrupt.o
                0x9d000208                __vector_dispatch_112
                0x00000210                __vector_offset_113 = DEFINED (__vector_dispatch_113)?(. - _ebase_address):__vector_offset_default
 *(.vector_113)
 .vector_113    0x9d000210        0x8 build/default/production/_ext/1688732426/system_interrupt.o
                0x9d000210                __vector_dispatch_113
                0x00000218                __vector_offset_114 = DEFINED (__vector_dispatch_114)?(. - _ebase_address):__vector_offset_default
 *(.vector_114)
 .vector_114    0x9d000218        0x8 build/default/production/_ext/1688732426/system_interrupt.o
                0x9d000218                __vector_dispatch_114
                0x00000240                __vector_offset_115 = DEFINED (__vector_dispatch_115)?(. - _ebase_address):__vector_offset_default
 *(.vector_115)
                0x00000240                __vector_offset_116 = DEFINED (__vector_dispatch_116)?(. - _ebase_address):__vector_offset_default
 *(.vector_116)
                0x00000240                __vector_offset_117 = DEFINED (__vector_dispatch_117)?(. - _ebase_address):__vector_offset_default
 *(.vector_117)
                0x00000240                __vector_offset_118 = DEFINED (__vector_dispatch_118)?(. - _ebase_address):__vector_offset_default
 *(.vector_118)
                0x00000240                __vector_offset_119 = DEFINED (__vector_dispatch_119)?(. - _ebase_address):__vector_offset_default
 *(.vector_119)
                0x00000240                __vector_offset_120 = DEFINED (__vector_dispatch_120)?(. - _ebase_address):__vector_offset_default
 *(.vector_120)
                0x00000240                __vector_offset_121 = DEFINED (__vector_dispatch_121)?(. - _ebase_address):__vector_offset_default
 *(.vector_121)
                0x00000240                __vector_offset_122 = DEFINED (__vector_dispatch_122)?(. - _ebase_address):__vector_offset_default
 *(.vector_122)
                0x00000240                __vector_offset_123 = DEFINED (__vector_dispatch_123)?(. - _ebase_address):__vector_offset_default
 *(.vector_123)
                0x00000240                __vector_offset_124 = DEFINED (__vector_dispatch_124)?(. - _ebase_address):__vector_offset_default
 *(.vector_124)
                0x00000240                __vector_offset_125 = DEFINED (__vector_dispatch_125)?(. - _ebase_address):__vector_offset_default
 *(.vector_125)
                0x00000240                __vector_offset_126 = DEFINED (__vector_dispatch_126)?(. - _ebase_address):__vector_offset_default
 *(.vector_126)
                0x00000240                __vector_offset_127 = DEFINED (__vector_dispatch_127)?(. - _ebase_address):__vector_offset_default
 *(.vector_127)
                0x00000240                __vector_offset_128 = DEFINED (__vector_dispatch_128)?(. - _ebase_address):__vector_offset_default
 *(.vector_128)
                0x00000240                __vector_offset_129 = DEFINED (__vector_dispatch_129)?(. - _ebase_address):__vector_offset_default
 *(.vector_129)
                0x00000240                __vector_offset_130 = DEFINED (__vector_dispatch_130)?(. - _ebase_address):__vector_offset_default
 *(.vector_130)
                0x00000240                __vector_offset_131 = DEFINED (__vector_dispatch_131)?(. - _ebase_address):__vector_offset_default
 *(.vector_131)
                0x00000240                __vector_offset_132 = DEFINED (__vector_dispatch_132)?(. - _ebase_address):__vector_offset_default
 *(.vector_132)
                0x00000240                __vector_offset_133 = DEFINED (__vector_dispatch_133)?(. - _ebase_address):__vector_offset_default
 *(.vector_133)
                0x00000240                __vector_offset_134 = DEFINED (__vector_dispatch_134)?(. - _ebase_address):__vector_offset_default
 *(.vector_134)
                0x00000240                __vector_offset_135 = DEFINED (__vector_dispatch_135)?(. - _ebase_address):__vector_offset_default
 *(.vector_135)
                0x00000240                __vector_offset_136 = DEFINED (__vector_dispatch_136)?(. - _ebase_address):__vector_offset_default
 *(.vector_136)
                0x00000240                __vector_offset_137 = DEFINED (__vector_dispatch_137)?(. - _ebase_address):__vector_offset_default
 *(.vector_137)
                0x00000240                __vector_offset_138 = DEFINED (__vector_dispatch_138)?(. - _ebase_address):__vector_offset_default
 *(.vector_138)
                0x00000240                __vector_offset_139 = DEFINED (__vector_dispatch_139)?(. - _ebase_address):__vector_offset_default
 *(.vector_139)
                0x00000240                __vector_offset_140 = DEFINED (__vector_dispatch_140)?(. - _ebase_address):__vector_offset_default
 *(.vector_140)
                0x00000240                __vector_offset_141 = DEFINED (__vector_dispatch_141)?(. - _ebase_address):__vector_offset_default
 *(.vector_141)
                0x00000240                __vector_offset_142 = DEFINED (__vector_dispatch_142)?(. - _ebase_address):__vector_offset_default
 *(.vector_142)
                0x00000240                __vector_offset_143 = DEFINED (__vector_dispatch_143)?(. - _ebase_address):__vector_offset_default
 *(.vector_143)
                0x00000240                __vector_offset_144 = DEFINED (__vector_dispatch_144)?(. - _ebase_address):__vector_offset_default
 *(.vector_144)
                0x00000240                __vector_offset_145 = DEFINED (__vector_dispatch_145)?(. - _ebase_address):__vector_offset_default
 *(.vector_145)
                0x00000240                __vector_offset_146 = DEFINED (__vector_dispatch_146)?(. - _ebase_address):__vector_offset_default
 *(.vector_146)
                0x00000240                __vector_offset_147 = DEFINED (__vector_dispatch_147)?(. - _ebase_address):__vector_offset_default
 *(.vector_147)
                0x00000240                __vector_offset_148 = DEFINED (__vector_dispatch_148)?(. - _ebase_address):__vector_offset_default
 *(.vector_148)
                0x00000240                __vector_offset_149 = DEFINED (__vector_dispatch_149)?(. - _ebase_address):__vector_offset_default
 *(.vector_149)
                0x00000240                __vector_offset_150 = DEFINED (__vector_dispatch_150)?(. - _ebase_address):__vector_offset_default
 *(.vector_150)
                0x00000240                __vector_offset_151 = DEFINED (__vector_dispatch_151)?(. - _ebase_address):__vector_offset_default
 *(.vector_151)
                0x00000240                __vector_offset_152 = DEFINED (__vector_dispatch_152)?(. - _ebase_address):__vector_offset_default
 *(.vector_152)
                0x00000220                __vector_offset_153 = DEFINED (__vector_dispatch_153)?(. - _ebase_address):__vector_offset_default
 *(.vector_153)
 .vector_153    0x9d000220        0x8 build/default/production/_ext/1688732426/system_interrupt.o
                0x9d000220                __vector_dispatch_153
                0x00000240                __vector_offset_154 = DEFINED (__vector_dispatch_154)?(. - _ebase_address):__vector_offset_default
 *(.vector_154)
                0x00000240                __vector_offset_155 = DEFINED (__vector_dispatch_155)?(. - _ebase_address):__vector_offset_default
 *(.vector_155)
                0x00000240                __vector_offset_156 = DEFINED (__vector_dispatch_156)?(. - _ebase_address):__vector_offset_default
 *(.vector_156)
                0x00000228                __vector_offset_157 = DEFINED (__vector_dispatch_157)?(. - _ebase_address):__vector_offset_default
 *(.vector_157)
 .vector_157    0x9d000228        0x8 build/default/production/_ext/1688732426/system_interrupt.o
                0x9d000228                __vector_dispatch_157
                0x00000230                __vector_offset_158 = DEFINED (__vector_dispatch_158)?(. - _ebase_address):__vector_offset_default
 *(.vector_158)
 .vector_158    0x9d000230        0x8 build/default/production/_ext/1688732426/system_interrupt.o
                0x9d000230                __vector_dispatch_158
                0x00000238                __vector_offset_159 = DEFINED (__vector_dispatch_159)?(. - _ebase_address):__vector_offset_default
 *(.vector_159)
 .vector_159    0x9d000238        0x8 build/default/production/_ext/1688732426/system_interrupt.o
                0x9d000238                __vector_dispatch_159
                0x00000240                __vector_offset_160 = DEFINED (__vector_dispatch_160)?(. - _ebase_address):__vector_offset_default
 *(.vector_160)
                0x00000240                __vector_offset_161 = DEFINED (__vector_dispatch_161)?(. - _ebase_address):__vector_offset_default
 *(.vector_161)
                0x00000240                __vector_offset_162 = DEFINED (__vector_dispatch_162)?(. - _ebase_address):__vector_offset_default
 *(.vector_162)
                0x00000240                __vector_offset_163 = DEFINED (__vector_dispatch_163)?(. - _ebase_address):__vector_offset_default
 *(.vector_163)
                0x00000240                __vector_offset_164 = DEFINED (__vector_dispatch_164)?(. - _ebase_address):__vector_offset_default
 *(.vector_164)
                0x00000240                __vector_offset_165 = DEFINED (__vector_dispatch_165)?(. - _ebase_address):__vector_offset_default
 *(.vector_165)
                0x00000240                __vector_offset_166 = DEFINED (__vector_dispatch_166)?(. - _ebase_address):__vector_offset_default
 *(.vector_166)
                0x00000240                __vector_offset_167 = DEFINED (__vector_dispatch_167)?(. - _ebase_address):__vector_offset_default
 *(.vector_167)
                0x00000240                __vector_offset_168 = DEFINED (__vector_dispatch_168)?(. - _ebase_address):__vector_offset_default
 *(.vector_168)
                0x00000240                __vector_offset_169 = DEFINED (__vector_dispatch_169)?(. - _ebase_address):__vector_offset_default
 *(.vector_169)
                0x00000240                __vector_offset_170 = DEFINED (__vector_dispatch_170)?(. - _ebase_address):__vector_offset_default
 *(.vector_170)
                0x00000240                __vector_offset_171 = DEFINED (__vector_dispatch_171)?(. - _ebase_address):__vector_offset_default
 *(.vector_171)
                0x00000240                __vector_offset_172 = DEFINED (__vector_dispatch_172)?(. - _ebase_address):__vector_offset_default
 *(.vector_172)
                0x00000240                __vector_offset_173 = DEFINED (__vector_dispatch_173)?(. - _ebase_address):__vector_offset_default
 *(.vector_173)
                0x00000240                __vector_offset_174 = DEFINED (__vector_dispatch_174)?(. - _ebase_address):__vector_offset_default
 *(.vector_174)
                0x00000240                __vector_offset_175 = DEFINED (__vector_dispatch_175)?(. - _ebase_address):__vector_offset_default
 *(.vector_175)
                0x00000240                __vector_offset_176 = DEFINED (__vector_dispatch_176)?(. - _ebase_address):__vector_offset_default
 *(.vector_176)
                0x00000240                __vector_offset_177 = DEFINED (__vector_dispatch_177)?(. - _ebase_address):__vector_offset_default
 *(.vector_177)
                0x00000240                __vector_offset_178 = DEFINED (__vector_dispatch_178)?(. - _ebase_address):__vector_offset_default
 *(.vector_178)
                0x00000240                __vector_offset_179 = DEFINED (__vector_dispatch_179)?(. - _ebase_address):__vector_offset_default
 *(.vector_179)
                0x00000240                __vector_offset_180 = DEFINED (__vector_dispatch_180)?(. - _ebase_address):__vector_offset_default
 *(.vector_180)
                0x00000240                __vector_offset_181 = DEFINED (__vector_dispatch_181)?(. - _ebase_address):__vector_offset_default
 *(.vector_181)
                0x00000240                __vector_offset_182 = DEFINED (__vector_dispatch_182)?(. - _ebase_address):__vector_offset_default
 *(.vector_182)
                0x00000240                __vector_offset_183 = DEFINED (__vector_dispatch_183)?(. - _ebase_address):__vector_offset_default
 *(.vector_183)
                0x00000240                __vector_offset_184 = DEFINED (__vector_dispatch_184)?(. - _ebase_address):__vector_offset_default
 *(.vector_184)
                0x00000240                __vector_offset_185 = DEFINED (__vector_dispatch_185)?(. - _ebase_address):__vector_offset_default
 *(.vector_185)
                0x00000240                __vector_offset_186 = DEFINED (__vector_dispatch_186)?(. - _ebase_address):__vector_offset_default
 *(.vector_186)
                0x00000240                __vector_offset_187 = DEFINED (__vector_dispatch_187)?(. - _ebase_address):__vector_offset_default
 *(.vector_187)
                0x00000240                __vector_offset_188 = DEFINED (__vector_dispatch_188)?(. - _ebase_address):__vector_offset_default
 *(.vector_188)
                0x00000240                __vector_offset_189 = DEFINED (__vector_dispatch_189)?(. - _ebase_address):__vector_offset_default
 *(.vector_189)
                0x00000240                __vector_offset_190 = DEFINED (__vector_dispatch_190)?(. - _ebase_address):__vector_offset_default
 *(.vector_190)
                0x00000240                __vector_offset_191 = DEFINED (__vector_dispatch_191)?(. - _ebase_address):__vector_offset_default
 *(.vector_191)
                0x00000240                __vector_offset_192 = DEFINED (__vector_dispatch_192)?(. - _ebase_address):__vector_offset_default
 *(.vector_192)
                0x00000240                __vector_offset_193 = DEFINED (__vector_dispatch_193)?(. - _ebase_address):__vector_offset_default
 *(.vector_193)
                0x00000240                __vector_offset_194 = DEFINED (__vector_dispatch_194)?(. - _ebase_address):__vector_offset_default
 *(.vector_194)
                0x00000240                __vector_offset_195 = DEFINED (__vector_dispatch_195)?(. - _ebase_address):__vector_offset_default
 *(.vector_195)
                0x00000240                __vector_offset_196 = DEFINED (__vector_dispatch_196)?(. - _ebase_address):__vector_offset_default
 *(.vector_196)
                0x00000240                __vector_offset_197 = DEFINED (__vector_dispatch_197)?(. - _ebase_address):__vector_offset_default
 *(.vector_197)
                0x00000240                __vector_offset_198 = DEFINED (__vector_dispatch_198)?(. - _ebase_address):__vector_offset_default
 *(.vector_198)
                0x00000240                __vector_offset_199 = DEFINED (__vector_dispatch_199)?(. - _ebase_address):__vector_offset_default
 *(.vector_199)
                0x00000240                __vector_offset_200 = DEFINED (__vector_dispatch_200)?(. - _ebase_address):__vector_offset_default
 *(.vector_200)
                0x00000240                __vector_offset_201 = DEFINED (__vector_dispatch_201)?(. - _ebase_address):__vector_offset_default
 *(.vector_201)
                0x00000240                __vector_offset_202 = DEFINED (__vector_dispatch_202)?(. - _ebase_address):__vector_offset_default
 *(.vector_202)
                0x00000240                __vector_offset_203 = DEFINED (__vector_dispatch_203)?(. - _ebase_address):__vector_offset_default
 *(.vector_203)
                0x00000240                __vector_offset_204 = DEFINED (__vector_dispatch_204)?(. - _ebase_address):__vector_offset_default
 *(.vector_204)
                0x00000240                __vector_offset_205 = DEFINED (__vector_dispatch_205)?(. - _ebase_address):__vector_offset_default
 *(.vector_205)
                0x00000240                __vector_offset_206 = DEFINED (__vector_dispatch_206)?(. - _ebase_address):__vector_offset_default
 *(.vector_206)
                0x00000240                __vector_offset_207 = DEFINED (__vector_dispatch_207)?(. - _ebase_address):__vector_offset_default
 *(.vector_207)
                0x00000240                __vector_offset_208 = DEFINED (__vector_dispatch_208)?(. - _ebase_address):__vector_offset_default
 *(.vector_208)
                0x00000240                __vector_offset_209 = DEFINED (__vector_dispatch_209)?(. - _ebase_address):__vector_offset_default
 *(.vector_209)
                0x00000240                __vector_offset_210 = DEFINED (__vector_dispatch_210)?(. - _ebase_address):__vector_offset_default
 *(.vector_210)
                0x00000240                __vector_offset_211 = DEFINED (__vector_dispatch_211)?(. - _ebase_address):__vector_offset_default
 *(.vector_211)
                0x00000240                __vector_offset_212 = DEFINED (__vector_dispatch_212)?(. - _ebase_address):__vector_offset_default
 *(.vector_212)
                0x00000240                __vector_offset_213 = DEFINED (__vector_dispatch_213)?(. - _ebase_address):__vector_offset_default
 *(.vector_213)
                0x00000240                __vector_offset_214 = DEFINED (__vector_dispatch_214)?(. - _ebase_address):__vector_offset_default
 *(.vector_214)
                0x00000240                __vector_offset_215 = DEFINED (__vector_dispatch_215)?(. - _ebase_address):__vector_offset_default
 *(.vector_215)
                0x00000240                __vector_offset_216 = DEFINED (__vector_dispatch_216)?(. - _ebase_address):__vector_offset_default
 *(.vector_216)
                0x00000240                __vector_offset_217 = DEFINED (__vector_dispatch_217)?(. - _ebase_address):__vector_offset_default
 *(.vector_217)
                0x00000240                __vector_offset_218 = DEFINED (__vector_dispatch_218)?(. - _ebase_address):__vector_offset_default
 *(.vector_218)
                0x00000240                __vector_offset_219 = DEFINED (__vector_dispatch_219)?(. - _ebase_address):__vector_offset_default
 *(.vector_219)
                0x00000240                __vector_offset_220 = DEFINED (__vector_dispatch_220)?(. - _ebase_address):__vector_offset_default
 *(.vector_220)
                0x00000240                __vector_offset_221 = DEFINED (__vector_dispatch_221)?(. - _ebase_address):__vector_offset_default
 *(.vector_221)
                0x00000240                __vector_offset_222 = DEFINED (__vector_dispatch_222)?(. - _ebase_address):__vector_offset_default
 *(.vector_222)
                0x00000240                __vector_offset_223 = DEFINED (__vector_dispatch_223)?(. - _ebase_address):__vector_offset_default
 *(.vector_223)
                0x00000240                __vector_offset_224 = DEFINED (__vector_dispatch_224)?(. - _ebase_address):__vector_offset_default
 *(.vector_224)
                0x00000240                __vector_offset_225 = DEFINED (__vector_dispatch_225)?(. - _ebase_address):__vector_offset_default
 *(.vector_225)
                0x00000240                __vector_offset_226 = DEFINED (__vector_dispatch_226)?(. - _ebase_address):__vector_offset_default
 *(.vector_226)
                0x00000240                __vector_offset_227 = DEFINED (__vector_dispatch_227)?(. - _ebase_address):__vector_offset_default
 *(.vector_227)
                0x00000240                __vector_offset_228 = DEFINED (__vector_dispatch_228)?(. - _ebase_address):__vector_offset_default
 *(.vector_228)
                0x00000240                __vector_offset_229 = DEFINED (__vector_dispatch_229)?(. - _ebase_address):__vector_offset_default
 *(.vector_229)
                0x00000240                __vector_offset_230 = DEFINED (__vector_dispatch_230)?(. - _ebase_address):__vector_offset_default
 *(.vector_230)
                0x00000240                __vector_offset_231 = DEFINED (__vector_dispatch_231)?(. - _ebase_address):__vector_offset_default
 *(.vector_231)
                0x00000240                __vector_offset_232 = DEFINED (__vector_dispatch_232)?(. - _ebase_address):__vector_offset_default
 *(.vector_232)
                0x00000240                __vector_offset_233 = DEFINED (__vector_dispatch_233)?(. - _ebase_address):__vector_offset_default
 *(.vector_233)
                0x00000240                __vector_offset_234 = DEFINED (__vector_dispatch_234)?(. - _ebase_address):__vector_offset_default
 *(.vector_234)
                0x00000240                __vector_offset_235 = DEFINED (__vector_dispatch_235)?(. - _ebase_address):__vector_offset_default
 *(.vector_235)
                0x00000240                __vector_offset_236 = DEFINED (__vector_dispatch_236)?(. - _ebase_address):__vector_offset_default
 *(.vector_236)
                0x00000240                __vector_offset_237 = DEFINED (__vector_dispatch_237)?(. - _ebase_address):__vector_offset_default
 *(.vector_237)
                0x00000240                __vector_offset_238 = DEFINED (__vector_dispatch_238)?(. - _ebase_address):__vector_offset_default
 *(.vector_238)
                0x00000240                __vector_offset_239 = DEFINED (__vector_dispatch_239)?(. - _ebase_address):__vector_offset_default
 *(.vector_239)
                0x00000240                __vector_offset_240 = DEFINED (__vector_dispatch_240)?(. - _ebase_address):__vector_offset_default
 *(.vector_240)
                0x00000240                __vector_offset_241 = DEFINED (__vector_dispatch_241)?(. - _ebase_address):__vector_offset_default
 *(.vector_241)
                0x00000240                __vector_offset_242 = DEFINED (__vector_dispatch_242)?(. - _ebase_address):__vector_offset_default
 *(.vector_242)
                0x00000240                __vector_offset_243 = DEFINED (__vector_dispatch_243)?(. - _ebase_address):__vector_offset_default
 *(.vector_243)
                0x00000240                __vector_offset_244 = DEFINED (__vector_dispatch_244)?(. - _ebase_address):__vector_offset_default
 *(.vector_244)
                0x00000240                __vector_offset_245 = DEFINED (__vector_dispatch_245)?(. - _ebase_address):__vector_offset_default
 *(.vector_245)
                0x00000240                __vector_offset_246 = DEFINED (__vector_dispatch_246)?(. - _ebase_address):__vector_offset_default
 *(.vector_246)
                0x00000240                __vector_offset_247 = DEFINED (__vector_dispatch_247)?(. - _ebase_address):__vector_offset_default
 *(.vector_247)
                0x00000240                __vector_offset_248 = DEFINED (__vector_dispatch_248)?(. - _ebase_address):__vector_offset_default
 *(.vector_248)
                0x00000240                __vector_offset_249 = DEFINED (__vector_dispatch_249)?(. - _ebase_address):__vector_offset_default
 *(.vector_249)
                0x00000240                __vector_offset_250 = DEFINED (__vector_dispatch_250)?(. - _ebase_address):__vector_offset_default
 *(.vector_250)
                0x00000240                __vector_offset_251 = DEFINED (__vector_dispatch_251)?(. - _ebase_address):__vector_offset_default
 *(.vector_251)
                0x00000240                __vector_offset_252 = DEFINED (__vector_dispatch_252)?(. - _ebase_address):__vector_offset_default
 *(.vector_252)
                0x00000240                __vector_offset_253 = DEFINED (__vector_dispatch_253)?(. - _ebase_address):__vector_offset_default
 *(.vector_253)
                0x00000240                __vector_offset_254 = DEFINED (__vector_dispatch_254)?(. - _ebase_address):__vector_offset_default
 *(.vector_254)
                0x00000240                __vector_offset_255 = DEFINED (__vector_dispatch_255)?(. - _ebase_address):__vector_offset_default
 *(.vector_255)
                0x00000240                __vector_offset_default = (. - _ebase_address)
 *(.vector_default)
 .vector_default
                0x9d000240       0x48 c:/program files (x86)/microchip/xc32/v1.43/bin/bin/../../lib/gcc/pic32mx/4.8.3/../../../../pic32mx/lib\libpic32.a(defaultinterrupt.o)
                0x9d000240                _DefaultInterrupt

.startup
 *(.startup)

.text           0x9d000288        0x0
 *(.stub .gnu.linkonce.t.*)
 *(.text.*personality*)
 *(.mips16.fn.*)
 *(.mips16.call.*)
 *(.gnu.warning)
                0x9d000288                . = ALIGN (0x4)

.init           0x9d000288        0x0
 *crti.o(.init)
 *crtbegin.o(.init)
 *(EXCLUDE_FILE(*crtn.o *crtend?.o *crtend.o) .init)
 *crtend.o(.init)
 *crtn.o(.init)
                0x9d000288                . = ALIGN (0x4)

.fini           0x9d000288        0x0
 *(.fini)
                0x9d000288                . = ALIGN (0x4)

.preinit_array  0x9d000288        0x0
                0x9d000288                PROVIDE (__preinit_array_start, .)
 *(.preinit_array)
                0x9d000288                PROVIDE (__preinit_array_end, .)
                0x9d000288                . = ALIGN (0x4)

.init_array     0x9d000288        0x0
                0x9d000288                PROVIDE (__init_array_start, .)
 *(SORT(.init_array.*))
 *(.init_array)
                0x9d000288                PROVIDE (__init_array_end, .)
                0x9d000288                . = ALIGN (0x4)

.fini_array     0x9d000288        0x0
                0x9d000288                PROVIDE (__fini_array_start, .)
 *(SORT(.fini_array.*))
 *(.fini_array)
                0x9d000288                PROVIDE (__fini_array_end, .)
                0x9d000288                . = ALIGN (0x4)

.ctors          0x9d000288        0x0
 *crtbegin.o(.ctors)
 *crtbegin?.o(.ctors)
 *(EXCLUDE_FILE(*crtend?.o *crtend.o) .ctors)
 *(SORT(.ctors.*))
 *(.ctors)
                0x9d000288                . = ALIGN (0x4)

.dtors          0x9d000288        0x0
 *crtbegin.o(.dtors)
 *crtbegin?.o(.dtors)
 *(EXCLUDE_FILE(*crtend?.o *crtend.o) .dtors)
 *(SORT(.dtors.*))
 *(.dtors)
                0x9d000288                . = ALIGN (0x4)

.rodata         0x9d000288        0x0
 *(.gnu.linkonce.r.*)
 *(.rodata1)
                0x9d000288                . = ALIGN (0x4)

.sdata2         0x9fc004b0        0x0
 *(.sdata2 .sdata2.* .gnu.linkonce.s2.*)
                0x9fc004b0                . = ALIGN (0x4)

.sbss2          0x9fc004b0        0x0
 *(.sbss2 .sbss2.* .gnu.linkonce.sb2.*)
                0x9fc004b0                . = ALIGN (0x4)

.eh_frame_hdr
 *(.eh_frame_hdr)
                0x9fc004b0                . = ALIGN (0x4)

.eh_frame
 *(.eh_frame)
                0x9fc004b0                . = ALIGN (0x4)

.gcc_except_table
 *(.gcc_except_table .gcc_except_table.*)
                0x9fc004b0                . = ALIGN (0x4)

.dbg_data       0x80000000        0x0
                0x80000000                . = (. + DEFINED (_DEBUGGER)?0x200:0x0)
                0x80000000                . = (. + DEFINED (_DEBUGGER)?0x80:0x0)

.jcr            0x80000000        0x0
 *(.jcr)
                0x80000000                . = ALIGN (0x4)

.eh_frame
 *(.eh_frame)
                0x80000000                . = ALIGN (0x4)

.gcc_except_table
 *(.gcc_except_table .gcc_except_table.*)
                0x80000000                . = ALIGN (0x4)

.persist        0x80000000        0x0
                0x80000000                _persist_begin = .
 *(.persist .persist.*)
 *(.pbss .pbss.*)
                0x80000000                . = ALIGN (0x4)
                0x80000000                _persist_end = .

.data           0x80000000        0x0
 *(.gnu.linkonce.d.*)
 *(.data1)
                0x80000000                . = ALIGN (0x4)
                0x80000000                . = .
                0x80007ff0                _gp = (ALIGN (0x10) + 0x7ff0)

.got            0x80000000        0x0
 *(.got.plt)
 *(.got)
                0x80000000                . = ALIGN (0x4)

.sdata          0x80000000       0x94
                0x80000000                _sdata_begin = .
 *(.sdata .sdata.* .gnu.linkonce.s.*)
 .sdata         0x80000000       0x50 build/default/production/_ext/1046770110/asn.o
                0x80000000                END_PUB_KEY
                0x80000004                BEGIN_PUB_KEY
                0x80000008                END_DSA_PRIV
                0x8000000c                BEGIN_DSA_PRIV
                0x80000010                END_EC_PRIV
                0x80000014                BEGIN_EC_PRIV
                0x80000018                END_ENC_PRIV_KEY
                0x8000001c                BEGIN_ENC_PRIV_KEY
                0x80000020                END_PRIV_KEY
                0x80000024                BEGIN_PRIV_KEY
                0x80000028                END_RSA_PRIV
                0x8000002c                BEGIN_RSA_PRIV
                0x80000030                END_X509_CRL
                0x80000034                BEGIN_X509_CRL
                0x80000038                END_DH_PARAM
                0x8000003c                BEGIN_DH_PARAM
                0x80000040                END_CERT_REQ
                0x80000044                BEGIN_CERT_REQ
                0x80000048                END_CERT
                0x8000004c                BEGIN_CERT
 .sdata         0x80000050        0x8 build/default/production/_ext/1406599153/arp.o
 .sdata         0x80000058        0x4 build/default/production/_ext/1268476361/lfsr.o
 .sdata         0x8000005c        0x4 build/default/production/_ext/1406599153/tcpip_manager.o
 .sdata         0x80000060        0xc build/default/production/_ext/1688732426/system_init.o
                0x80000060                consUsartInit0
                0x80000068                sysConsoleObjects
 .sdata         0x8000006c       0x24 c:/program files (x86)/microchip/xc32/v1.43/bin/bin/../../lib/gcc/pic32mx/4.8.3/../../../../pic32mx/lib\libpic32.a(pic32_init_cache.o)
                0x8000006c                __pic32_icache_size
                0x80000070                __pic32_icache_linesize
                0x80000074                __pic32_icache_ways
                0x80000078                __pic32_dcache_size
                0x8000007c                __pic32_dcache_linesize
                0x80000080                __pic32_dcache_ways
                0x80000084                __pic32_scache_size
                0x80000088                __pic32_scache_linesize
                0x8000008c                __pic32_scache_ways
 .sdata         0x80000090        0x4 c:/program files (x86)/microchip/xc32/v1.43/bin/bin/../../lib/gcc/pic32mx/4.8.3/../../../../pic32mx/lib\libpic32.a(xc32_uart.o)
                0x80000090                __XC_UART
                0x80000094                . = ALIGN (0x4)
                0x80000094                _sdata_end = .

.lit8
 *(.lit8)

.lit4
 *(.lit4)
                0x80000094                . = ALIGN (0x4)
                0x80000094                _data_end = .
                0x80000094                _bss_begin = .

.sbss           0x80000094      0x12c
                0x80000094                _sbss_begin = .
 *(.dynsbss)
 *(.sbss .sbss.* .gnu.linkonce.sb.*)
 .sbss          0x80000094        0xc build/default/production/_ext/1046770110/memory.o
 .sbss          0x800000a0        0x4 build/default/production/_ext/508588874/drv_ethmac.o
 .sbss          0x800000a4        0x4 build/default/production/_ext/1895062557/drv_tmr.o
 .sbss          0x800000a8        0x2 build/default/production/_ext/1601094287/drv_usart_buffer_queue.o
 *fill*         0x800000aa        0x2 
 .sbss          0x800000ac       0x10 build/default/production/_ext/1333902316/sys_command.o
 .sbss          0x800000bc       0x20 build/default/production/_ext/1406599153/tcp.o
 .sbss          0x800000dc       0x1c build/default/production/_ext/1406599153/udp.o
 .sbss          0x800000f8       0x20 build/default/production/_ext/1406599153/dhcp.o
 .sbss          0x80000118       0x10 build/default/production/_ext/1406599153/dns.o
                0x80000118                _DNSStayCondLoop
                0x8000011c                _DNSStayAssertLoop
 .sbss          0x80000128        0xc build/default/production/_ext/1406599153/nbns.o
 .sbss          0x80000134       0x1c build/default/production/_ext/1406599153/tcpip_announce.o
 .sbss          0x80000150       0x24 build/default/production/_ext/1406599153/tcpip_manager.o
 .sbss          0x80000174        0x8 build/default/production/_ext/1406599153/tcpip_packet.o
 .sbss          0x8000017c       0x14 build/default/production/_ext/1406599153/ipv4.o
 .sbss          0x80000190        0x8 build/default/production/_ext/1688732426/system_init.o
                0x80000190                sysCmdInit
 .sbss          0x80000198        0xc build/default/production/_ext/1688732426/system_exceptions.o
 *(.scommon)
 .scommon       0x800001a4        0x3 build/default/production/_ext/1601094287/drv_usart.o
                0x800001a4                gDrvUSARTCommonDataObj
 *fill*         0x800001a7        0x1 
 .scommon       0x800001a8        0x8 build/default/production/_ext/877190136/sys_console_uart.o
                0x800001a8                rdQueueElements
 .scommon       0x800001b0        0x4 build/default/production/_ext/996864500/sys_debug.o
                0x800001b0                gblErrLvl
 .scommon       0x800001b4        0x8 build/default/production/_ext/1470476842/sys_devcon.o
                0x800001b4                sysDevconObj
 .scommon       0x800001bc        0x4 build/default/production/_ext/1360937237/app.o
                0x800001bc                appData
                0x800001c0                _sbss_end = .
                0x800001c0                . = ALIGN (0x4)

.bss            0x800001c0      0xa64
 *(.dynbss)
 *(COMMON)
 COMMON         0x800001c0       0x5c build/default/production/_ext/1684742680/drv_ethphy.o
                0x800001c0                gDrvETHPHYClientObj
                0x800001f4                gDrvETHPHYObj
 COMMON         0x8000021c      0x198 build/default/production/_ext/1601094287/drv_usart.o
                0x8000021c                gDrvUSARTClientObj
                0x800002f4                gDrvUSARTObj
 COMMON         0x800003b4      0x640 build/default/production/_ext/1601094287/drv_usart_buffer_queue.o
                0x800003b4                gDrvUSARTBufferObj
 COMMON         0x800009f4      0x200 build/default/production/_ext/877190136/sys_console_uart.o
                0x800009f4                wrQueueElements
 COMMON         0x80000bf4       0x10 build/default/production/_ext/996864500/sys_debug.o
                0x80000bf4                sysDebugInstance
 COMMON         0x80000c04       0x20 build/default/production/_ext/1688732426/system_init.o
                0x80000c04                sysObj
                0x80000c24                . = ALIGN ((. != 0x0)?0x4:0x1)
                0x80000c24                . = ALIGN (0x4)
                0x80000c24                _end = .
                0x80000c24                _bss_end = .
                0x00080000                _bmxdudba_address = 0x80000
                0x00080000                _bmxdupba_address = 0x80000

/DISCARD/
 *(.pdr)
 *(.rel.dyn)
 *(.note.GNU-stack)
 *(.note.GNU-stack)
 *(.gnu_debuglink)
 *(.gnu.lto_*)
 *(.discard)

.gptab.sdata
 *(.gptab.data)
 *(.gptab.sdata)

.gptab.sbss
 *(.gptab.bss)
 *(.gptab.sbss)

.mdebug.abi32   0x00000000        0x0
 *(.mdebug.abi32)
 .mdebug.abi32  0x00000000        0x0 build/default/production/_ext/1046770110/ecc.o
 .mdebug.abi32  0x00000000        0x0 build/default/production/_ext/1046770110/ssl-dummy.o
 .mdebug.abi32  0x00000000        0x0 build/default/production/_ext/1046770110/arc4.o
 .mdebug.abi32  0x00000000        0x0 build/default/production/_ext/1046770110/pwdbased.o
 .mdebug.abi32  0x00000000        0x0 build/default/production/_ext/1046770110/tfm.o
 .mdebug.abi32  0x00000000        0x0 build/default/production/_ext/1046770110/asn.o
 .mdebug.abi32  0x00000000        0x0 build/default/production/_ext/1046770110/des3.o
 .mdebug.abi32  0x00000000        0x0 build/default/production/_ext/1046770110/rsa.o
 .mdebug.abi32  0x00000000        0x0 build/default/production/_ext/1046770110/aes.o
 .mdebug.abi32  0x00000000        0x0 build/default/production/_ext/1046770110/md5.o
 .mdebug.abi32  0x00000000        0x0 build/default/production/_ext/1046770110/sha.o
 .mdebug.abi32  0x00000000        0x0 build/default/production/_ext/1046770110/sha256.o
 .mdebug.abi32  0x00000000        0x0 build/default/production/_ext/1046770110/sha512.o
 .mdebug.abi32  0x00000000        0x0 build/default/production/_ext/1046770110/hmac.o
 .mdebug.abi32  0x00000000        0x0 build/default/production/_ext/1046770110/hash.o
 .mdebug.abi32  0x00000000        0x0 build/default/production/_ext/1046770110/compress.o
 .mdebug.abi32  0x00000000        0x0 build/default/production/_ext/1107806295/adler32.o
 .mdebug.abi32  0x00000000        0x0 build/default/production/_ext/1107806295/compress.o
 .mdebug.abi32  0x00000000        0x0 build/default/production/_ext/1107806295/crc32.o
 .mdebug.abi32  0x00000000        0x0 build/default/production/_ext/1107806295/deflate.o
 .mdebug.abi32  0x00000000        0x0 build/default/production/_ext/1107806295/infback.o
 .mdebug.abi32  0x00000000        0x0 build/default/production/_ext/1107806295/inffast.o
 .mdebug.abi32  0x00000000        0x0 build/default/production/_ext/1107806295/inflate.o
 .mdebug.abi32  0x00000000        0x0 build/default/production/_ext/1107806295/inftrees.o
 .mdebug.abi32  0x00000000        0x0 build/default/production/_ext/1107806295/trees.o
 .mdebug.abi32  0x00000000        0x0 build/default/production/_ext/1107806295/uncompr.o
 .mdebug.abi32  0x00000000        0x0 build/default/production/_ext/1107806295/zutil.o
 .mdebug.abi32  0x00000000        0x0 build/default/production/_ext/1046770110/random.o
 .mdebug.abi32  0x00000000        0x0 build/default/production/_ext/1046770110/crypto.o
 .mdebug.abi32  0x00000000        0x0 build/default/production/_ext/1046770110/coding.o
 .mdebug.abi32  0x00000000        0x0 build/default/production/_ext/1046770110/error.o
 .mdebug.abi32  0x00000000        0x0 build/default/production/_ext/1046770110/integer.o
 .mdebug.abi32  0x00000000        0x0 build/default/production/_ext/1046770110/logging.o
 .mdebug.abi32  0x00000000        0x0 build/default/production/_ext/1046770110/memory.o
 .mdebug.abi32  0x00000000        0x0 build/default/production/_ext/1046770110/misc.o
 .mdebug.abi32  0x00000000        0x0 build/default/production/_ext/1046770110/port.o
 .mdebug.abi32  0x00000000        0x0 build/default/production/_ext/508588874/drv_ethmac.o
 .mdebug.abi32  0x00000000        0x0 build/default/production/_ext/508588874/drv_ethmac_lib.o
 .mdebug.abi32  0x00000000        0x0 build/default/production/_ext/1684742680/drv_ethphy.o
 .mdebug.abi32  0x00000000        0x0 build/default/production/_ext/1684742680/drv_extphy_smsc8740.o
 .mdebug.abi32  0x00000000        0x0 build/default/production/_ext/1895062557/drv_tmr.o
 .mdebug.abi32  0x00000000        0x0 build/default/production/_ext/1601094287/drv_usart.o
 .mdebug.abi32  0x00000000        0x0 build/default/production/_ext/1601094287/drv_usart_buffer_queue.o
 .mdebug.abi32  0x00000000        0x0 build/default/production/_ext/1601094287/drv_usart_read_write.o
 .mdebug.abi32  0x00000000        0x0 build/default/production/_ext/1333902316/sys_command.o
 .mdebug.abi32  0x00000000        0x0 build/default/production/_ext/388960396/sys_buffer.o
 .mdebug.abi32  0x00000000        0x0 build/default/production/_ext/388960396/sys_queue.o
 .mdebug.abi32  0x00000000        0x0 build/default/production/_ext/877190136/sys_console.o
 .mdebug.abi32  0x00000000        0x0 build/default/production/_ext/877190136/sys_console_uart.o
 .mdebug.abi32  0x00000000        0x0 build/default/production/_ext/996864500/sys_debug.o
 .mdebug.abi32  0x00000000        0x0 build/default/production/_ext/1470476842/sys_devcon.o
 .mdebug.abi32  0x00000000        0x0 build/default/production/_ext/1470476842/sys_devcon_pic32mz.o
 .mdebug.abi32  0x00000000        0x0 build/default/production/_ext/1979725680/sys_int_pic32.o
 .mdebug.abi32  0x00000000        0x0 build/default/production/_ext/1966875597/sys_ports.o
 .mdebug.abi32  0x00000000        0x0 build/default/production/_ext/1457815988/sys_random.o
 .mdebug.abi32  0x00000000        0x0 build/default/production/_ext/1076061456/sys_reset.o
 .mdebug.abi32  0x00000000        0x0 build/default/production/_ext/837595974/sys_tmr.o
 .mdebug.abi32  0x00000000        0x0 build/default/production/_ext/1406599153/tcp.o
 .mdebug.abi32  0x00000000        0x0 build/default/production/_ext/1406599153/udp.o
 .mdebug.abi32  0x00000000        0x0 build/default/production/_ext/1406599153/tcpip_heap_alloc.o
 .mdebug.abi32  0x00000000        0x0 build/default/production/_ext/1406599153/tcpip_heap_internal.o
 .mdebug.abi32  0x00000000        0x0 build/default/production/_ext/1406599153/arp.o
 .mdebug.abi32  0x00000000        0x0 build/default/production/_ext/1406599153/dhcp.o
 .mdebug.abi32  0x00000000        0x0 build/default/production/_ext/1406599153/dns.o
 .mdebug.abi32  0x00000000        0x0 build/default/production/_ext/1406599153/nbns.o
 .mdebug.abi32  0x00000000        0x0 build/default/production/_ext/1406599153/tcpip_announce.o
 .mdebug.abi32  0x00000000        0x0 build/default/production/_ext/1268476361/helpers.o
 .mdebug.abi32  0x00000000        0x0 build/default/production/_ext/1268476361/lfsr.o
 .mdebug.abi32  0x00000000        0x0 build/default/production/_ext/1406599153/hash_fnv.o
 .mdebug.abi32  0x00000000        0x0 build/default/production/_ext/1406599153/oahash.o
 .mdebug.abi32  0x00000000        0x0 build/default/production/_ext/1406599153/tcpip_helpers.o
 .mdebug.abi32  0x00000000        0x0 build/default/production/_ext/1406599153/tcpip_manager.o
 .mdebug.abi32  0x00000000        0x0 build/default/production/_ext/1406599153/tcpip_notify.o
 .mdebug.abi32  0x00000000        0x0 build/default/production/_ext/1406599153/tcpip_packet.o
 .mdebug.abi32  0x00000000        0x0 build/default/production/_ext/1406599153/ipv4.o
 .mdebug.abi32  0x00000000        0x0 build/default/production/_ext/1360937237/app.o
 .mdebug.abi32  0x00000000        0x0 build/default/production/_ext/639803181/sys_clk_static.o
 .mdebug.abi32  0x00000000        0x0 build/default/production/_ext/822048611/sys_ports_static.o
 .mdebug.abi32  0x00000000        0x0 build/default/production/_ext/1688732426/system_init.o
 .mdebug.abi32  0x00000000        0x0 build/default/production/_ext/1688732426/system_interrupt.o
 .mdebug.abi32  0x00000000        0x0 build/default/production/_ext/1688732426/system_exceptions.o
 .mdebug.abi32  0x00000000        0x0 build/default/production/_ext/1360937237/main.o
 .mdebug.abi32  0x00000000        0x0 build/default/production/_ext/1688732426/system_tasks.o
 .mdebug.abi32  0x00000000        0x0 ..\..\..\..\..\microchip\harmony\v1_07\bin\framework\peripheral\PIC32MZ2048ECG064_peripherals.a(plib_eth_lib.o)
 .mdebug.abi32  0x00000000        0x0 c:/program files (x86)/microchip/xc32/v1.43/bin/bin/../../lib/gcc/pic32mx/4.8.3\libgcc.a(_udivdi3.o)
 .mdebug.abi32  0x00000000        0x0 c:/program files (x86)/microchip/xc32/v1.43/bin/bin/../../lib/gcc/pic32mx/4.8.3/../../../../pic32mx/lib\libpic32.a(default-bootstrap-exception-handler.o)
 .mdebug.abi32  0x00000000        0x0 c:/program files (x86)/microchip/xc32/v1.43/bin/bin/../../lib/gcc/pic32mx/4.8.3/../../../../pic32mx/lib\libpic32.a(default-on-reset.o)
 .mdebug.abi32  0x00000000        0x0 c:/program files (x86)/microchip/xc32/v1.43/bin/bin/../../lib/gcc/pic32mx/4.8.3/../../../../pic32mx/lib\libpic32.a(default-on-bootstrap.o)
 .mdebug.abi32  0x00000000        0x0 c:/program files (x86)/microchip/xc32/v1.43/bin/bin/../../lib/gcc/pic32mx/4.8.3/../../../../pic32mx/lib\libpic32.a(defaultinterrupt.o)
 .mdebug.abi32  0x00000000        0x0 c:/program files (x86)/microchip/xc32/v1.43/bin/bin/../../lib/gcc/pic32mx/4.8.3/../../../../pic32mx/lib\libpic32.a(default-cache-err-exception-handler.o)
 .mdebug.abi32  0x00000000        0x0 c:/program files (x86)/microchip/xc32/v1.43/bin/bin/../../lib/gcc/pic32mx/4.8.3/../../../../pic32mx/lib\libpic32.a(default-simple-tlb-refill-exception-handler.o)
 .mdebug.abi32  0x00000000        0x0 c:/program files (x86)/microchip/xc32/v1.43/bin/bin/../../lib/gcc/pic32mx/4.8.3/../../../../pic32mx/lib\libc.a(calloc.o)
 .mdebug.abi32  0x00000000        0x0 c:/program files (x86)/microchip/xc32/v1.43/bin/bin/../../lib/gcc/pic32mx/4.8.3/../../../../pic32mx/lib\libc.a(ctime.o)
 .mdebug.abi32  0x00000000        0x0 c:/program files (x86)/microchip/xc32/v1.43/bin/bin/../../lib/gcc/pic32mx/4.8.3/../../../../pic32mx/lib\libc.a(ctype.o)
 .mdebug.abi32  0x00000000        0x0 c:/program files (x86)/microchip/xc32/v1.43/bin/bin/../../lib/gcc/pic32mx/4.8.3/../../../../pic32mx/lib\libc.a(ctypef.o)
 .mdebug.abi32  0x00000000        0x0 c:/program files (x86)/microchip/xc32/v1.43/bin/bin/../../lib/gcc/pic32mx/4.8.3/../../../../pic32mx/lib\libc.a(malloc.o)
 .mdebug.abi32  0x00000000        0x0 c:/program files (x86)/microchip/xc32/v1.43/bin/bin/../../lib/gcc/pic32mx/4.8.3/../../../../pic32mx/lib\libc.a(memmove.o)
 .mdebug.abi32  0x00000000        0x0 c:/program files (x86)/microchip/xc32/v1.43/bin/bin/../../lib/gcc/pic32mx/4.8.3/../../../../pic32mx/lib\libc.a(rand.o)
 .mdebug.abi32  0x00000000        0x0 c:/program files (x86)/microchip/xc32/v1.43/bin/bin/../../lib/gcc/pic32mx/4.8.3/../../../../pic32mx/lib\libc.a(strncpy.o)
 .mdebug.abi32  0x00000000        0x0 c:/program files (x86)/microchip/xc32/v1.43/bin/bin/../../lib/gcc/pic32mx/4.8.3/../../../../pic32mx/lib\libc.a(strtol.o)
 .mdebug.abi32  0x00000000        0x0 c:/program files (x86)/microchip/xc32/v1.43/bin/bin/../../lib/gcc/pic32mx/4.8.3/../../../../pic32mx/lib\libc.a(time.o)
 .mdebug.abi32  0x00000000        0x0 c:/program files (x86)/microchip/xc32/v1.43/bin/bin/../../lib/gcc/pic32mx/4.8.3/../../../../pic32mx/lib\libc.a(sprintf_cdnopuxX.eo)
 .mdebug.abi32  0x00000000        0x0 c:/program files (x86)/microchip/xc32/v1.43/bin/bin/../../lib/gcc/pic32mx/4.8.3/../../../../pic32mx/lib\libc.a(vsnprintf.o)
 .mdebug.abi32  0x00000000        0x0 c:/program files (x86)/microchip/xc32/v1.43/bin/bin/../../lib/gcc/pic32mx/4.8.3/../../../../pic32mx/lib\libc.a(errno.o)
 .mdebug.abi32  0x00000000        0x0 c:/program files (x86)/microchip/xc32/v1.43/bin/bin/../../lib/gcc/pic32mx/4.8.3/../../../../pic32mx/lib\libc.a(doprnt_cdnopuxX.eo)
 .mdebug.abi32  0x00000000        0x0 c:/program files (x86)/microchip/xc32/v1.43/bin/bin/../../lib/gcc/pic32mx/4.8.3/../../../../pic32mx/lib\libc.a(doprnt.o)
 .mdebug.abi32  0x00000000        0x0 c:/program files (x86)/microchip/xc32/v1.43/bin/bin/../../lib/gcc/pic32mx/4.8.3/../../../../pic32mx/lib\libc.a(_fputc_simple.o)
 .mdebug.abi32  0x00000000        0x0 c:/program files (x86)/microchip/xc32/v1.43/bin/bin/../../lib/gcc/pic32mx/4.8.3/../../../../pic32mx/lib\libc.a(ldpowers.o)
 .mdebug.abi32  0x00000000        0x0 c:/program files (x86)/microchip/xc32/v1.43/bin/bin/../../lib/gcc/pic32mx/4.8.3/../../../../pic32mx/lib\libc.a(_iob.o)
 .mdebug.abi32  0x00000000        0x0 c:/program files (x86)/microchip/xc32/v1.43/bin/bin/../../lib/gcc/pic32mx/4.8.3/../../../../pic32mx/lib\libc.a(_flsbuf_simple.o)
 .mdebug.abi32  0x00000000        0x0 c:/program files (x86)/microchip/xc32/v1.43/bin/bin/../../lib/gcc/pic32mx/4.8.3/../../../../pic32mx/lib\libe.a(_fixunsdfdi.o)
 .mdebug.abi32  0x00000000        0x0 c:/program files (x86)/microchip/xc32/v1.43/bin/bin/../../lib/gcc/pic32mx/4.8.3/../../../../pic32mx/lib\libe.a(_orderdf2.o)
 .mdebug.abi32  0x00000000        0x0 c:/program files (x86)/microchip/xc32/v1.43/bin/bin/../../lib/gcc/pic32mx/4.8.3/../../../../pic32mx/lib\libe.a(_fixdfdi.o)
 .mdebug.abi32  0x00000000        0x0 c:/program files (x86)/microchip/xc32/v1.43/bin/bin/../../lib/gcc/pic32mx/4.8.3\libgcc.a(_umoddi3.o)
 .mdebug.abi32  0x00000000        0x0 c:/program files (x86)/microchip/xc32/v1.43/bin/bin/../../lib/gcc/pic32mx/4.8.3\libgcc.a(floatunsidf.o)
 .mdebug.abi32  0x00000000        0x0 c:/program files (x86)/microchip/xc32/v1.43/bin/bin/../../lib/gcc/pic32mx/4.8.3/../../../../pic32mx/lib\libpic32.a(sbrk.o)
 .mdebug.abi32  0x00000000        0x0 c:/program files (x86)/microchip/xc32/v1.43/bin/bin/../../lib/gcc/pic32mx/4.8.3/../../../../pic32mx/lib\libpic32.a(write.o)
 .mdebug.abi32  0x00000000        0x0 c:/program files (x86)/microchip/xc32/v1.43/bin/bin/../../lib/gcc/pic32mx/4.8.3/../../../../pic32mx/lib\libpic32.a(_mon_putc.o)
 .mdebug.abi32  0x00000000        0x0 c:/program files (x86)/microchip/xc32/v1.43/bin/bin/../../lib/gcc/pic32mx/4.8.3/../../../../pic32mx/lib\libpic32.a(xc32_uart.o)

.mdebug.abiN32
 *(.mdebug.abiN32)

.mdebug.abi64
 *(.mdebug.abi64)

.mdebug.abiO64
 *(.mdebug.abiO64)

.mdebug.eabi32
 *(.mdebug.eabi32)

.mdebug.eabi64
 *(.mdebug.eabi64)

.gcc_compiled_long32
 *(.gcc_compiled_long32)

.gcc_compiled_long64
 *(.gcc_compiled_long64)

.stab
 *(.stab)

.stabstr
 *(.stabstr)

.stab.excl
 *(.stab.excl)

.stab.exclstr
 *(.stab.exclstr)

.stab.index
 *(.stab.index)

.stab.indexstr
 *(.stab.indexstr)

.comment        0x00000000      0x31a
 *(.comment)
 .comment       0x00000000       0x3c build/default/production/_ext/1046770110/ecc.o
                                 0x3d (size before relaxing)
 .comment       0x00000000       0x3d build/default/production/_ext/1046770110/ssl-dummy.o
 .comment       0x00000000       0x3d build/default/production/_ext/1046770110/arc4.o
 .comment       0x00000000       0x3d build/default/production/_ext/1046770110/pwdbased.o
 .comment       0x00000000       0x3d build/default/production/_ext/1046770110/tfm.o
 .comment       0x00000000       0x3d build/default/production/_ext/1046770110/asn.o
 .comment       0x00000000       0x3d build/default/production/_ext/1046770110/des3.o
 .comment       0x00000000       0x3d build/default/production/_ext/1046770110/rsa.o
 .comment       0x00000000       0x3d build/default/production/_ext/1046770110/aes.o
 .comment       0x00000000       0x3d build/default/production/_ext/1046770110/md5.o
 .comment       0x00000000       0x3d build/default/production/_ext/1046770110/sha.o
 .comment       0x00000000       0x3d build/default/production/_ext/1046770110/sha256.o
 .comment       0x00000000       0x3d build/default/production/_ext/1046770110/sha512.o
 .comment       0x00000000       0x3d build/default/production/_ext/1046770110/hmac.o
 .comment       0x00000000       0x3d build/default/production/_ext/1046770110/hash.o
 .comment       0x00000000       0x3d build/default/production/_ext/1046770110/compress.o
 .comment       0x00000000       0x3d build/default/production/_ext/1107806295/adler32.o
 .comment       0x00000000       0x3d build/default/production/_ext/1107806295/compress.o
 .comment       0x00000000       0x3d build/default/production/_ext/1107806295/crc32.o
 .comment       0x00000000       0x3d build/default/production/_ext/1107806295/deflate.o
 .comment       0x00000000       0x3d build/default/production/_ext/1107806295/infback.o
 .comment       0x00000000       0x3d build/default/production/_ext/1107806295/inffast.o
 .comment       0x00000000       0x3d build/default/production/_ext/1107806295/inflate.o
 .comment       0x00000000       0x3d build/default/production/_ext/1107806295/inftrees.o
 .comment       0x00000000       0x3d build/default/production/_ext/1107806295/trees.o
 .comment       0x00000000       0x3d build/default/production/_ext/1107806295/uncompr.o
 .comment       0x00000000       0x3d build/default/production/_ext/1107806295/zutil.o
 .comment       0x00000000       0x3d build/default/production/_ext/1046770110/random.o
 .comment       0x00000000       0x3d build/default/production/_ext/1046770110/crypto.o
 .comment       0x00000000       0x3d build/default/production/_ext/1046770110/coding.o
 .comment       0x00000000       0x3d build/default/production/_ext/1046770110/error.o
 .comment       0x00000000       0x3d build/default/production/_ext/1046770110/integer.o
 .comment       0x00000000       0x3d build/default/production/_ext/1046770110/logging.o
 .comment       0x00000000       0x3d build/default/production/_ext/1046770110/memory.o
 .comment       0x00000000       0x3d build/default/production/_ext/1046770110/misc.o
 .comment       0x00000000       0x3d build/default/production/_ext/1046770110/port.o
 .comment       0x00000000       0x3d build/default/production/_ext/508588874/drv_ethmac.o
 .comment       0x00000000       0x3d build/default/production/_ext/508588874/drv_ethmac_lib.o
 .comment       0x00000000       0x3d build/default/production/_ext/1684742680/drv_ethphy.o
 .comment       0x00000000       0x3d build/default/production/_ext/1684742680/drv_extphy_smsc8740.o
 .comment       0x00000000       0x3d build/default/production/_ext/1895062557/drv_tmr.o
 .comment       0x00000000       0x3d build/default/production/_ext/1601094287/drv_usart.o
 .comment       0x00000000       0x3d build/default/production/_ext/1601094287/drv_usart_buffer_queue.o
 .comment       0x00000000       0x3d build/default/production/_ext/1601094287/drv_usart_read_write.o
 .comment       0x00000000       0x3d build/default/production/_ext/1333902316/sys_command.o
 .comment       0x00000000       0x3d build/default/production/_ext/388960396/sys_buffer.o
 .comment       0x00000000       0x3d build/default/production/_ext/388960396/sys_queue.o
 .comment       0x00000000       0x3d build/default/production/_ext/877190136/sys_console.o
 .comment       0x00000000       0x3d build/default/production/_ext/877190136/sys_console_uart.o
 .comment       0x00000000       0x3d build/default/production/_ext/996864500/sys_debug.o
 .comment       0x00000000       0x3d build/default/production/_ext/1470476842/sys_devcon.o
 .comment       0x00000000       0x3d build/default/production/_ext/1470476842/sys_devcon_pic32mz.o
 .comment       0x00000000       0x3d build/default/production/_ext/1979725680/sys_int_pic32.o
 .comment       0x00000000       0x3d build/default/production/_ext/1966875597/sys_ports.o
 .comment       0x00000000       0x3d build/default/production/_ext/1457815988/sys_random.o
 .comment       0x00000000       0x3d build/default/production/_ext/1076061456/sys_reset.o
 .comment       0x00000000       0x3d build/default/production/_ext/837595974/sys_tmr.o
 .comment       0x00000000       0x3d build/default/production/_ext/1406599153/tcp.o
 .comment       0x00000000       0x3d build/default/production/_ext/1406599153/udp.o
 .comment       0x00000000       0x3d build/default/production/_ext/1406599153/tcpip_heap_alloc.o
 .comment       0x00000000       0x3d build/default/production/_ext/1406599153/tcpip_heap_internal.o
 .comment       0x00000000       0x3d build/default/production/_ext/1406599153/arp.o
 .comment       0x00000000       0x3d build/default/production/_ext/1406599153/dhcp.o
 .comment       0x00000000       0x3d build/default/production/_ext/1406599153/dns.o
 .comment       0x00000000       0x3d build/default/production/_ext/1406599153/nbns.o
 .comment       0x00000000       0x3d build/default/production/_ext/1406599153/tcpip_announce.o
 .comment       0x00000000       0x3d build/default/production/_ext/1268476361/helpers.o
 .comment       0x00000000       0x3d build/default/production/_ext/1268476361/lfsr.o
 .comment       0x00000000       0x3d build/default/production/_ext/1406599153/hash_fnv.o
 .comment       0x00000000       0x3d build/default/production/_ext/1406599153/oahash.o
 .comment       0x00000000       0x3d build/default/production/_ext/1406599153/tcpip_helpers.o
 .comment       0x00000000       0x3d build/default/production/_ext/1406599153/tcpip_manager.o
 .comment       0x00000000       0x3d build/default/production/_ext/1406599153/tcpip_notify.o
 .comment       0x00000000       0x3d build/default/production/_ext/1406599153/tcpip_packet.o
 .comment       0x00000000       0x3d build/default/production/_ext/1406599153/ipv4.o
 .comment       0x00000000       0x3d build/default/production/_ext/1360937237/app.o
 .comment       0x00000000       0x3d build/default/production/_ext/639803181/sys_clk_static.o
 .comment       0x00000000       0x3d build/default/production/_ext/822048611/sys_ports_static.o
 .comment       0x00000000       0x3d build/default/production/_ext/1688732426/system_init.o
 .comment       0x00000000       0x3d build/default/production/_ext/1688732426/system_interrupt.o
 .comment       0x00000000       0x3d build/default/production/_ext/1688732426/system_exceptions.o
 .comment       0x00000000       0x3d build/default/production/_ext/1360937237/main.o
 .comment       0x00000000       0x3d build/default/production/_ext/1688732426/system_tasks.o
 .comment       0x0000003c       0x3c ..\..\..\..\..\microchip\harmony\v1_07\bin\framework\peripheral\PIC32MZ2048ECG064_peripherals.a(plib_eth_lib.o)
                                 0x3d (size before relaxing)
 .comment       0x00000000       0x3d c:/program files (x86)/microchip/xc32/v1.43/bin/bin/../../lib/gcc/pic32mx/4.8.3\libgcc.a(_udivdi3.o)
 .comment       0x00000078       0x18 c:/program files (x86)/microchip/xc32/v1.43/bin/bin/../../lib/gcc/pic32mx/4.8.3/../../../../pic32mx/lib\libpic32.a(memcmp.o)
                                 0x19 (size before relaxing)
 .comment       0x00000090       0x18 c:/program files (x86)/microchip/xc32/v1.43/bin/bin/../../lib/gcc/pic32mx/4.8.3/../../../../pic32mx/lib\libpic32.a(memset.o)
                                 0x19 (size before relaxing)
 .comment       0x000000a8       0x19 c:/program files (x86)/microchip/xc32/v1.43/bin/bin/../../lib/gcc/pic32mx/4.8.3/../../../../pic32mx/lib\libpic32.a(strcmp.o)
                                 0x1a (size before relaxing)
 .comment       0x000000c1       0x19 c:/program files (x86)/microchip/xc32/v1.43/bin/bin/../../lib/gcc/pic32mx/4.8.3/../../../../pic32mx/lib\libpic32.a(strcpy.o)
                                 0x1a (size before relaxing)
 .comment       0x000000da       0x19 c:/program files (x86)/microchip/xc32/v1.43/bin/bin/../../lib/gcc/pic32mx/4.8.3/../../../../pic32mx/lib\libpic32.a(strlen.o)
                                 0x1a (size before relaxing)
 .comment       0x00000000       0x3d c:/program files (x86)/microchip/xc32/v1.43/bin/bin/../../lib/gcc/pic32mx/4.8.3/../../../../pic32mx/lib\libpic32.a(default-bootstrap-exception-handler.o)
 .comment       0x00000000       0x3d c:/program files (x86)/microchip/xc32/v1.43/bin/bin/../../lib/gcc/pic32mx/4.8.3/../../../../pic32mx/lib\libpic32.a(default-on-reset.o)
 .comment       0x00000000       0x3d c:/program files (x86)/microchip/xc32/v1.43/bin/bin/../../lib/gcc/pic32mx/4.8.3/../../../../pic32mx/lib\libpic32.a(default-on-bootstrap.o)
 .comment       0x00000000       0x3d c:/program files (x86)/microchip/xc32/v1.43/bin/bin/../../lib/gcc/pic32mx/4.8.3/../../../../pic32mx/lib\libpic32.a(defaultinterrupt.o)
 .comment       0x00000000       0x3d c:/program files (x86)/microchip/xc32/v1.43/bin/bin/../../lib/gcc/pic32mx/4.8.3/../../../../pic32mx/lib\libpic32.a(default-cache-err-exception-handler.o)
 .comment       0x00000000       0x3d c:/program files (x86)/microchip/xc32/v1.43/bin/bin/../../lib/gcc/pic32mx/4.8.3/../../../../pic32mx/lib\libpic32.a(default-simple-tlb-refill-exception-handler.o)
 .comment       0x00000000       0x3d c:/program files (x86)/microchip/xc32/v1.43/bin/bin/../../lib/gcc/pic32mx/4.8.3/../../../../pic32mx/lib\libc.a(calloc.o)
 .comment       0x00000000       0x3d c:/program files (x86)/microchip/xc32/v1.43/bin/bin/../../lib/gcc/pic32mx/4.8.3/../../../../pic32mx/lib\libc.a(ctime.o)
 .comment       0x000000f3       0x4e c:/program files (x86)/microchip/xc32/v1.43/bin/bin/../../lib/gcc/pic32mx/4.8.3/../../../../pic32mx/lib\libc.a(ctype.o)
                                 0x8b (size before relaxing)
 .comment       0x00000141       0x4f c:/program files (x86)/microchip/xc32/v1.43/bin/bin/../../lib/gcc/pic32mx/4.8.3/../../../../pic32mx/lib\libc.a(ctypef.o)
                                 0x8c (size before relaxing)
 .comment       0x00000000       0x3d c:/program files (x86)/microchip/xc32/v1.43/bin/bin/../../lib/gcc/pic32mx/4.8.3/../../../../pic32mx/lib\libc.a(malloc.o)
 .comment       0x00000000       0x3d c:/program files (x86)/microchip/xc32/v1.43/bin/bin/../../lib/gcc/pic32mx/4.8.3/../../../../pic32mx/lib\libc.a(memmove.o)
 .comment       0x00000000       0x3d c:/program files (x86)/microchip/xc32/v1.43/bin/bin/../../lib/gcc/pic32mx/4.8.3/../../../../pic32mx/lib\libc.a(rand.o)
 .comment       0x00000000       0x3d c:/program files (x86)/microchip/xc32/v1.43/bin/bin/../../lib/gcc/pic32mx/4.8.3/../../../../pic32mx/lib\libc.a(strncpy.o)
 .comment       0x00000000       0x3d c:/program files (x86)/microchip/xc32/v1.43/bin/bin/../../lib/gcc/pic32mx/4.8.3/../../../../pic32mx/lib\libc.a(strtol.o)
 .comment       0x00000000       0x3d c:/program files (x86)/microchip/xc32/v1.43/bin/bin/../../lib/gcc/pic32mx/4.8.3/../../../../pic32mx/lib\libc.a(time.o)
 .comment       0x00000000       0x3d c:/program files (x86)/microchip/xc32/v1.43/bin/bin/../../lib/gcc/pic32mx/4.8.3/../../../../pic32mx/lib\libc.a(sprintf_cdnopuxX.eo)
 .comment       0x00000000       0x3d c:/program files (x86)/microchip/xc32/v1.43/bin/bin/../../lib/gcc/pic32mx/4.8.3/../../../../pic32mx/lib\libc.a(vsnprintf.o)
 .comment       0x00000000       0x3d c:/program files (x86)/microchip/xc32/v1.43/bin/bin/../../lib/gcc/pic32mx/4.8.3/../../../../pic32mx/lib\libc.a(errno.o)
 .comment       0x00000000       0x3d c:/program files (x86)/microchip/xc32/v1.43/bin/bin/../../lib/gcc/pic32mx/4.8.3/../../../../pic32mx/lib\libc.a(doprnt_cdnopuxX.eo)
 .comment       0x00000000       0x3d c:/program files (x86)/microchip/xc32/v1.43/bin/bin/../../lib/gcc/pic32mx/4.8.3/../../../../pic32mx/lib\libc.a(doprnt.o)
 .comment       0x00000000       0x3d c:/program files (x86)/microchip/xc32/v1.43/bin/bin/../../lib/gcc/pic32mx/4.8.3/../../../../pic32mx/lib\libc.a(_fputc_simple.o)
 .comment       0x00000000       0x3d c:/program files (x86)/microchip/xc32/v1.43/bin/bin/../../lib/gcc/pic32mx/4.8.3/../../../../pic32mx/lib\libc.a(ldpowers.o)
 .comment       0x00000000       0x3d c:/program files (x86)/microchip/xc32/v1.43/bin/bin/../../lib/gcc/pic32mx/4.8.3/../../../../pic32mx/lib\libc.a(_iob.o)
 .comment       0x00000000       0x3d c:/program files (x86)/microchip/xc32/v1.43/bin/bin/../../lib/gcc/pic32mx/4.8.3/../../../../pic32mx/lib\libc.a(_flsbuf_simple.o)
 .comment       0x00000190       0x9f c:/program files (x86)/microchip/xc32/v1.43/bin/bin/../../lib/gcc/pic32mx/4.8.3/../../../../pic32mx/lib\libe.a(_fixunsdfdi.o)
                                 0xdc (size before relaxing)
 .comment       0x0000022f       0x50 c:/program files (x86)/microchip/xc32/v1.43/bin/bin/../../lib/gcc/pic32mx/4.8.3/../../../../pic32mx/lib\libe.a(_orderdf2.o)
                                 0xdb (size before relaxing)
 .comment       0x0000027f       0x50 c:/program files (x86)/microchip/xc32/v1.43/bin/bin/../../lib/gcc/pic32mx/4.8.3/../../../../pic32mx/lib\libe.a(_fixdfdi.o)
                                 0xdb (size before relaxing)
 .comment       0x00000000       0x3d c:/program files (x86)/microchip/xc32/v1.43/bin/bin/../../lib/gcc/pic32mx/4.8.3\libgcc.a(_umoddi3.o)
 .comment       0x00000000       0x3d c:/program files (x86)/microchip/xc32/v1.43/bin/bin/../../lib/gcc/pic32mx/4.8.3\libgcc.a(floatunsidf.o)
 .comment       0x000002cf       0x4b c:/program files (x86)/microchip/xc32/v1.43/bin/bin/../../lib/gcc/pic32mx/4.8.3/../../../../pic32mx/lib\libpic32.a(sbrk.o)
                                 0x88 (size before relaxing)
 .comment       0x00000000       0x3d c:/program files (x86)/microchip/xc32/v1.43/bin/bin/../../lib/gcc/pic32mx/4.8.3/../../../../pic32mx/lib\libpic32.a(write.o)
 .comment       0x00000000       0x3d c:/program files (x86)/microchip/xc32/v1.43/bin/bin/../../lib/gcc/pic32mx/4.8.3/../../../../pic32mx/lib\libpic32.a(_mon_putc.o)
 .comment       0x00000000       0x3d c:/program files (x86)/microchip/xc32/v1.43/bin/bin/../../lib/gcc/pic32mx/4.8.3/../../../../pic32mx/lib\libpic32.a(xc32_uart.o)

.debug
 *.elf(.debug)
 *(.debug)

.line
 *.elf(.line)
 *(.line)

.debug_srcinfo
 *.elf(.debug_srcinfo)
 *(.debug_srcinfo)

.debug_sfnames
 *.elf(.debug_sfnames)
 *(.debug_sfnames)

.debug_aranges  0x00000000     0x3228
 *.elf(.debug_aranges)
 *(.debug_aranges)
 .debug_aranges
                0x00000000       0x38 build/default/production/_ext/1046770110/ssl-dummy.o
 .debug_aranges
                0x00000038       0x28 build/default/production/_ext/1046770110/arc4.o
 .debug_aranges
                0x00000060       0x48 build/default/production/_ext/1046770110/pwdbased.o
 .debug_aranges
                0x000000a8      0x250 build/default/production/_ext/1046770110/tfm.o
 .debug_aranges
                0x000002f8      0x190 build/default/production/_ext/1046770110/asn.o
 .debug_aranges
                0x00000488       0x78 build/default/production/_ext/1046770110/des3.o
 .debug_aranges
                0x00000500       0x78 build/default/production/_ext/1046770110/rsa.o
 .debug_aranges
                0x00000578       0x38 build/default/production/_ext/1046770110/aes.o
 .debug_aranges
                0x000005b0       0x40 build/default/production/_ext/1046770110/md5.o
 .debug_aranges
                0x000005f0       0x38 build/default/production/_ext/1046770110/sha.o
 .debug_aranges
                0x00000628       0x38 build/default/production/_ext/1046770110/sha256.o
 .debug_aranges
                0x00000660       0x40 build/default/production/_ext/1046770110/hmac.o
 .debug_aranges
                0x000006a0       0x68 build/default/production/_ext/1046770110/hash.o
 .debug_aranges
                0x00000708       0x38 build/default/production/_ext/1107806295/adler32.o
 .debug_aranges
                0x00000740       0x30 build/default/production/_ext/1107806295/compress.o
 .debug_aranges
                0x00000770       0x50 build/default/production/_ext/1107806295/crc32.o
 .debug_aranges
                0x000007c0       0xc0 build/default/production/_ext/1107806295/deflate.o
 .debug_aranges
                0x00000880       0x30 build/default/production/_ext/1107806295/infback.o
 .debug_aranges
                0x000008b0       0x20 build/default/production/_ext/1107806295/inffast.o
 .debug_aranges
                0x000008d0       0xa0 build/default/production/_ext/1107806295/inflate.o
 .debug_aranges
                0x00000970       0x20 build/default/production/_ext/1107806295/inftrees.o
 .debug_aranges
                0x00000990       0x88 build/default/production/_ext/1107806295/trees.o
 .debug_aranges
                0x00000a18       0x20 build/default/production/_ext/1107806295/uncompr.o
 .debug_aranges
                0x00000a38       0x40 build/default/production/_ext/1107806295/zutil.o
 .debug_aranges
                0x00000a78       0x78 build/default/production/_ext/1046770110/random.o
 .debug_aranges
                0x00000af0      0x128 build/default/production/_ext/1046770110/crypto.o
 .debug_aranges
                0x00000c18       0x48 build/default/production/_ext/1046770110/coding.o
 .debug_aranges
                0x00000c60       0x28 build/default/production/_ext/1046770110/error.o
 .debug_aranges
                0x00000c88       0x30 build/default/production/_ext/1046770110/logging.o
 .debug_aranges
                0x00000cb8       0x38 build/default/production/_ext/1046770110/memory.o
 .debug_aranges
                0x00000cf0       0x18 build/default/production/_ext/1046770110/misc.o
 .debug_aranges
                0x00000d08       0x40 build/default/production/_ext/1046770110/port.o
 .debug_aranges
                0x00000d48      0x180 build/default/production/_ext/508588874/drv_ethmac.o
 .debug_aranges
                0x00000ec8       0xf0 build/default/production/_ext/508588874/drv_ethmac_lib.o
 .debug_aranges
                0x00000fb8      0x288 build/default/production/_ext/1684742680/drv_ethphy.o
 .debug_aranges
                0x00001240       0x30 build/default/production/_ext/1684742680/drv_extphy_smsc8740.o
 .debug_aranges
                0x00001270      0x178 build/default/production/_ext/1895062557/drv_tmr.o
 .debug_aranges
                0x000013e8       0xd8 build/default/production/_ext/1601094287/drv_usart.o
 .debug_aranges
                0x000014c0       0x40 build/default/production/_ext/1601094287/drv_usart_buffer_queue.o
 .debug_aranges
                0x00001500       0x28 build/default/production/_ext/1601094287/drv_usart_read_write.o
 .debug_aranges
                0x00001528       0xd0 build/default/production/_ext/1333902316/sys_command.o
 .debug_aranges
                0x000015f8       0x50 build/default/production/_ext/388960396/sys_buffer.o
 .debug_aranges
                0x00001648       0x38 build/default/production/_ext/388960396/sys_queue.o
 .debug_aranges
                0x00001680       0x60 build/default/production/_ext/877190136/sys_console.o
 .debug_aranges
                0x000016e0       0x60 build/default/production/_ext/877190136/sys_console_uart.o
 .debug_aranges
                0x00001740       0x60 build/default/production/_ext/996864500/sys_debug.o
 .debug_aranges
                0x000017a0       0x78 build/default/production/_ext/1470476842/sys_devcon.o
 .debug_aranges
                0x00001818       0xc8 build/default/production/_ext/1470476842/sys_devcon_pic32mz.o
 .debug_aranges
                0x000018e0       0x48 build/default/production/_ext/1979725680/sys_int_pic32.o
 .debug_aranges
                0x00001928      0x100 build/default/production/_ext/1966875597/sys_ports.o
 .debug_aranges
                0x00001a28       0x68 build/default/production/_ext/1457815988/sys_random.o
 .debug_aranges
                0x00001a90       0x38 build/default/production/_ext/1076061456/sys_reset.o
 .debug_aranges
                0x00001ac8       0xd0 build/default/production/_ext/837595974/sys_tmr.o
 .debug_aranges
                0x00001b98      0x210 build/default/production/_ext/1406599153/tcp.o
 .debug_aranges
                0x00001da8      0x1b0 build/default/production/_ext/1406599153/udp.o
 .debug_aranges
                0x00001f58       0x48 build/default/production/_ext/1406599153/tcpip_heap_alloc.o
 .debug_aranges
                0x00001fa0       0x60 build/default/production/_ext/1406599153/tcpip_heap_internal.o
 .debug_aranges
                0x00002000      0x110 build/default/production/_ext/1406599153/arp.o
 .debug_aranges
                0x00002110      0x180 build/default/production/_ext/1406599153/dhcp.o
 .debug_aranges
                0x00002290      0x140 build/default/production/_ext/1406599153/dns.o
 .debug_aranges
                0x000023d0       0x40 build/default/production/_ext/1406599153/nbns.o
 .debug_aranges
                0x00002410       0x48 build/default/production/_ext/1406599153/tcpip_announce.o
 .debug_aranges
                0x00002458       0x58 build/default/production/_ext/1268476361/helpers.o
 .debug_aranges
                0x000024b0       0x28 build/default/production/_ext/1268476361/lfsr.o
 .debug_aranges
                0x000024d8       0x28 build/default/production/_ext/1406599153/hash_fnv.o
 .debug_aranges
                0x00002500       0x50 build/default/production/_ext/1406599153/oahash.o
 .debug_aranges
                0x00002550      0x200 build/default/production/_ext/1406599153/tcpip_helpers.o
 .debug_aranges
                0x00002750       0x20 build/default/production/_ext/1406599153/tcpip_helper_c32.o
 .debug_aranges
                0x00002770      0x368 build/default/production/_ext/1406599153/tcpip_manager.o
 .debug_aranges
                0x00002ad8       0x40 build/default/production/_ext/1406599153/tcpip_notify.o
 .debug_aranges
                0x00002b18       0x78 build/default/production/_ext/1406599153/tcpip_packet.o
 .debug_aranges
                0x00002b90       0x68 build/default/production/_ext/1406599153/ipv4.o
 .debug_aranges
                0x00002bf8       0x28 build/default/production/_ext/1360937237/app.o
 .debug_aranges
                0x00002c20       0x50 build/default/production/_ext/639803181/sys_clk_static.o
 .debug_aranges
                0x00002c70       0x20 build/default/production/_ext/822048611/sys_ports_static.o
 .debug_aranges
                0x00002c90       0x28 build/default/production/_ext/1688732426/system_init.o
 .debug_aranges
                0x00002cb8       0x60 build/default/production/_ext/1688732426/system_interrupt.o
 .debug_aranges
                0x00002d18       0x20 build/default/production/_ext/1688732426/system_exceptions.o
 .debug_aranges
                0x00002d38       0x20 build/default/production/_ext/1360937237/main.o
 .debug_aranges
                0x00002d58       0x20 build/default/production/_ext/1688732426/system_tasks.o
 .debug_aranges
                0x00002d78       0x20 c:/program files (x86)/microchip/xc32/v1.43/bin/bin/../../lib/gcc/pic32mx/4.8.3\libgcc.a(_udivdi3.o)
 .debug_aranges
                0x00002d98       0x20 c:/program files (x86)/microchip/xc32/v1.43/bin/bin/../../lib/gcc/pic32mx/4.8.3/../../../../pic32mx/lib\libpic32.a(default-bootstrap-exception-handler.o)
 .debug_aranges
                0x00002db8       0x20 c:/program files (x86)/microchip/xc32/v1.43/bin/bin/../../lib/gcc/pic32mx/4.8.3/../../../../pic32mx/lib\libpic32.a(default-on-reset.o)
 .debug_aranges
                0x00002dd8       0x20 c:/program files (x86)/microchip/xc32/v1.43/bin/bin/../../lib/gcc/pic32mx/4.8.3/../../../../pic32mx/lib\libpic32.a(default-on-bootstrap.o)
 .debug_aranges
                0x00002df8       0x20 c:/program files (x86)/microchip/xc32/v1.43/bin/bin/../../lib/gcc/pic32mx/4.8.3/../../../../pic32mx/lib\libpic32.a(defaultinterrupt.o)
 .debug_aranges
                0x00002e18       0x20 c:/program files (x86)/microchip/xc32/v1.43/bin/bin/../../lib/gcc/pic32mx/4.8.3/../../../../pic32mx/lib\libpic32.a(default-cache-err-exception-handler.o)
 .debug_aranges
                0x00002e38       0x20 c:/program files (x86)/microchip/xc32/v1.43/bin/bin/../../lib/gcc/pic32mx/4.8.3/../../../../pic32mx/lib\libpic32.a(default-simple-tlb-refill-exception-handler.o)
 .debug_aranges
                0x00002e58       0x20 c:/program files (x86)/microchip/xc32/v1.43/bin/bin/../../lib/gcc/pic32mx/4.8.3/../../../../pic32mx/lib\libc.a(calloc.o)
 .debug_aranges
                0x00002e78       0x40 c:/program files (x86)/microchip/xc32/v1.43/bin/bin/../../lib/gcc/pic32mx/4.8.3/../../../../pic32mx/lib\libc.a(ctime.o)
 .debug_aranges
                0x00002eb8       0xa0 c:/program files (x86)/microchip/xc32/v1.43/bin/bin/../../lib/gcc/pic32mx/4.8.3/../../../../pic32mx/lib\libc.a(ctypef.o)
 .debug_aranges
                0x00002f58       0x30 c:/program files (x86)/microchip/xc32/v1.43/bin/bin/../../lib/gcc/pic32mx/4.8.3/../../../../pic32mx/lib\libc.a(malloc.o)
 .debug_aranges
                0x00002f88       0x20 c:/program files (x86)/microchip/xc32/v1.43/bin/bin/../../lib/gcc/pic32mx/4.8.3/../../../../pic32mx/lib\libc.a(memmove.o)
 .debug_aranges
                0x00002fa8       0x28 c:/program files (x86)/microchip/xc32/v1.43/bin/bin/../../lib/gcc/pic32mx/4.8.3/../../../../pic32mx/lib\libc.a(rand.o)
 .debug_aranges
                0x00002fd0       0x20 c:/program files (x86)/microchip/xc32/v1.43/bin/bin/../../lib/gcc/pic32mx/4.8.3/../../../../pic32mx/lib\libc.a(strncpy.o)
 .debug_aranges
                0x00002ff0       0x28 c:/program files (x86)/microchip/xc32/v1.43/bin/bin/../../lib/gcc/pic32mx/4.8.3/../../../../pic32mx/lib\libc.a(strtol.o)
 .debug_aranges
                0x00003018       0x20 c:/program files (x86)/microchip/xc32/v1.43/bin/bin/../../lib/gcc/pic32mx/4.8.3/../../../../pic32mx/lib\libc.a(time.o)
 .debug_aranges
                0x00003038       0x20 c:/program files (x86)/microchip/xc32/v1.43/bin/bin/../../lib/gcc/pic32mx/4.8.3/../../../../pic32mx/lib\libc.a(sprintf_cdnopuxX.eo)
 .debug_aranges
                0x00003058       0x20 c:/program files (x86)/microchip/xc32/v1.43/bin/bin/../../lib/gcc/pic32mx/4.8.3/../../../../pic32mx/lib\libc.a(vsnprintf.o)
 .debug_aranges
                0x00003078       0x20 c:/program files (x86)/microchip/xc32/v1.43/bin/bin/../../lib/gcc/pic32mx/4.8.3/../../../../pic32mx/lib\libc.a(doprnt_cdnopuxX.eo)
 .debug_aranges
                0x00003098       0x30 c:/program files (x86)/microchip/xc32/v1.43/bin/bin/../../lib/gcc/pic32mx/4.8.3/../../../../pic32mx/lib\libc.a(doprnt.o)
 .debug_aranges
                0x000030c8       0x20 c:/program files (x86)/microchip/xc32/v1.43/bin/bin/../../lib/gcc/pic32mx/4.8.3/../../../../pic32mx/lib\libc.a(_fputc_simple.o)
 .debug_aranges
                0x000030e8       0x20 c:/program files (x86)/microchip/xc32/v1.43/bin/bin/../../lib/gcc/pic32mx/4.8.3/../../../../pic32mx/lib\libc.a(_flsbuf_simple.o)
 .debug_aranges
                0x00003108       0x20 c:/program files (x86)/microchip/xc32/v1.43/bin/bin/../../lib/gcc/pic32mx/4.8.3/../../../../pic32mx/lib\libe.a(_fixunsdfdi.o)
 .debug_aranges
                0x00003128       0x20 c:/program files (x86)/microchip/xc32/v1.43/bin/bin/../../lib/gcc/pic32mx/4.8.3/../../../../pic32mx/lib\libe.a(_orderdf2.o)
 .debug_aranges
                0x00003148       0x20 c:/program files (x86)/microchip/xc32/v1.43/bin/bin/../../lib/gcc/pic32mx/4.8.3/../../../../pic32mx/lib\libe.a(_fixdfdi.o)
 .debug_aranges
                0x00003168       0x20 c:/program files (x86)/microchip/xc32/v1.43/bin/bin/../../lib/gcc/pic32mx/4.8.3\libgcc.a(_umoddi3.o)
 .debug_aranges
                0x00003188       0x20 c:/program files (x86)/microchip/xc32/v1.43/bin/bin/../../lib/gcc/pic32mx/4.8.3\libgcc.a(floatunsidf.o)
 .debug_aranges
                0x000031a8       0x40 c:/program files (x86)/microchip/xc32/v1.43/bin/bin/../../lib/gcc/pic32mx/4.8.3/../../../../pic32mx/lib\libpic32.a(sbrk.o)
 .debug_aranges
                0x000031e8       0x20 c:/program files (x86)/microchip/xc32/v1.43/bin/bin/../../lib/gcc/pic32mx/4.8.3/../../../../pic32mx/lib\libpic32.a(write.o)
 .debug_aranges
                0x00003208       0x20 c:/program files (x86)/microchip/xc32/v1.43/bin/bin/../../lib/gcc/pic32mx/4.8.3/../../../../pic32mx/lib\libpic32.a(_mon_putc.o)

.debug_pubnames
 *.elf(.debug_pubnames)
 *(.debug_pubnames)

.debug_info     0x00000000    0xe2b7a
 *.elf(.debug_info .gnu.linkonce.wi.*)
 *(.debug_info .gnu.linkonce.wi.*)
 .debug_info    0x00000000     0x2665 build/default/production/_ext/1046770110/ssl-dummy.o
 .debug_info    0x00002665      0x384 build/default/production/_ext/1046770110/arc4.o
 .debug_info    0x000029e9     0x2437 build/default/production/_ext/1046770110/pwdbased.o
 .debug_info    0x00004e20     0x3389 build/default/production/_ext/1046770110/tfm.o
 .debug_info    0x000081a9     0x86f5 build/default/production/_ext/1046770110/asn.o
 .debug_info    0x0001089e     0x1516 build/default/production/_ext/1046770110/des3.o
 .debug_info    0x00011db4     0x217b build/default/production/_ext/1046770110/rsa.o
 .debug_info    0x00013f2f     0x1648 build/default/production/_ext/1046770110/aes.o
 .debug_info    0x00015577      0xea4 build/default/production/_ext/1046770110/md5.o
 .debug_info    0x0001641b     0x267f build/default/production/_ext/1046770110/sha.o
 .debug_info    0x00018a9a      0xf81 build/default/production/_ext/1046770110/sha256.o
 .debug_info    0x00019a1b     0x1376 build/default/production/_ext/1046770110/hmac.o
 .debug_info    0x0001ad91     0x1167 build/default/production/_ext/1046770110/hash.o
 .debug_info    0x0001bef8      0x38e build/default/production/_ext/1107806295/adler32.o
 .debug_info    0x0001c286      0x5e5 build/default/production/_ext/1107806295/compress.o
 .debug_info    0x0001c86b      0x618 build/default/production/_ext/1107806295/crc32.o
 .debug_info    0x0001ce83     0x2432 build/default/production/_ext/1107806295/deflate.o
 .debug_info    0x0001f2b5     0x17ac build/default/production/_ext/1107806295/infback.o
 .debug_info    0x00020a61      0xa03 build/default/production/_ext/1107806295/inffast.o
 .debug_info    0x00021464     0x1ef4 build/default/production/_ext/1107806295/inflate.o
 .debug_info    0x00023358      0x497 build/default/production/_ext/1107806295/inftrees.o
 .debug_info    0x000237ef     0x1f1d build/default/production/_ext/1107806295/trees.o
 .debug_info    0x0002570c      0x505 build/default/production/_ext/1107806295/uncompr.o
 .debug_info    0x00025c11      0x343 build/default/production/_ext/1107806295/zutil.o
 .debug_info    0x00025f54     0x23d1 build/default/production/_ext/1046770110/random.o
 .debug_info    0x00028325     0x2983 build/default/production/_ext/1046770110/crypto.o
 .debug_info    0x0002aca8     0x1133 build/default/production/_ext/1046770110/coding.o
 .debug_info    0x0002bddb      0x956 build/default/production/_ext/1046770110/error.o
 .debug_info    0x0002c731      0x912 build/default/production/_ext/1046770110/logging.o
 .debug_info    0x0002d043      0xb01 build/default/production/_ext/1046770110/memory.o
 .debug_info    0x0002db44      0x115 build/default/production/_ext/1046770110/misc.o
 .debug_info    0x0002dc59      0x22d build/default/production/_ext/1046770110/port.o
 .debug_info    0x0002de86     0xa88c build/default/production/_ext/508588874/drv_ethmac.o
 .debug_info    0x00038712     0x9b84 build/default/production/_ext/508588874/drv_ethmac_lib.o
 .debug_info    0x00042296     0x7e4c build/default/production/_ext/1684742680/drv_ethphy.o
 .debug_info    0x0004a0e2     0x1c99 build/default/production/_ext/1684742680/drv_extphy_smsc8740.o
 .debug_info    0x0004bd7b     0x80f9 build/default/production/_ext/1895062557/drv_tmr.o
 .debug_info    0x00053e74     0x80f7 build/default/production/_ext/1601094287/drv_usart.o
 .debug_info    0x0005bf6b     0x32a6 build/default/production/_ext/1601094287/drv_usart_buffer_queue.o
 .debug_info    0x0005f211     0x37be build/default/production/_ext/1601094287/drv_usart_read_write.o
 .debug_info    0x000629cf     0x3771 build/default/production/_ext/1333902316/sys_command.o
 .debug_info    0x00066140      0x531 build/default/production/_ext/388960396/sys_buffer.o
 .debug_info    0x00066671      0x3b9 build/default/production/_ext/388960396/sys_queue.o
 .debug_info    0x00066a2a      0xc34 build/default/production/_ext/877190136/sys_console.o
 .debug_info    0x0006765e     0x1a41 build/default/production/_ext/877190136/sys_console_uart.o
 .debug_info    0x0006909f      0x8ea build/default/production/_ext/996864500/sys_debug.o
 .debug_info    0x00069989     0x126e build/default/production/_ext/1470476842/sys_devcon.o
 .debug_info    0x0006abf7     0x10b0 build/default/production/_ext/1470476842/sys_devcon_pic32mz.o
 .debug_info    0x0006bca7     0x1b79 build/default/production/_ext/1979725680/sys_int_pic32.o
 .debug_info    0x0006d820     0x44cc build/default/production/_ext/1966875597/sys_ports.o
 .debug_info    0x00071cec      0x81a build/default/production/_ext/1457815988/sys_random.o
 .debug_info    0x00072506      0xc99 build/default/production/_ext/1076061456/sys_reset.o
 .debug_info    0x0007319f     0x2501 build/default/production/_ext/837595974/sys_tmr.o
 .debug_info    0x000756a0     0xa6d3 build/default/production/_ext/1406599153/tcp.o
 .debug_info    0x0007fd73     0x89c2 build/default/production/_ext/1406599153/udp.o
 .debug_info    0x00088735     0x1e62 build/default/production/_ext/1406599153/tcpip_heap_alloc.o
 .debug_info    0x0008a597     0x2ab1 build/default/production/_ext/1406599153/tcpip_heap_internal.o
 .debug_info    0x0008d048     0x7333 build/default/production/_ext/1406599153/arp.o
 .debug_info    0x0009437b     0x99e2 build/default/production/_ext/1406599153/dhcp.o
 .debug_info    0x0009dd5d     0x7e97 build/default/production/_ext/1406599153/dns.o
 .debug_info    0x000a5bf4     0x4761 build/default/production/_ext/1406599153/nbns.o
 .debug_info    0x000aa355     0x4bda build/default/production/_ext/1406599153/tcpip_announce.o
 .debug_info    0x000aef2f      0x599 build/default/production/_ext/1268476361/helpers.o
 .debug_info    0x000af4c8      0x216 build/default/production/_ext/1268476361/lfsr.o
 .debug_info    0x000af6de      0x269 build/default/production/_ext/1406599153/hash_fnv.o
 .debug_info    0x000af947      0x883 build/default/production/_ext/1406599153/oahash.o
 .debug_info    0x000b01ca     0x59e2 build/default/production/_ext/1406599153/tcpip_helpers.o
 .debug_info    0x000b5bac       0x98 build/default/production/_ext/1406599153/tcpip_helper_c32.o
 .debug_info    0x000b5c44     0xb4f0 build/default/production/_ext/1406599153/tcpip_manager.o
 .debug_info    0x000c1134     0x1c94 build/default/production/_ext/1406599153/tcpip_notify.o
 .debug_info    0x000c2dc8     0x298f build/default/production/_ext/1406599153/tcpip_packet.o
 .debug_info    0x000c5757     0x5a63 build/default/production/_ext/1406599153/ipv4.o
 .debug_info    0x000cb1ba     0x1643 build/default/production/_ext/1360937237/app.o
 .debug_info    0x000cc7fd     0x29c4 build/default/production/_ext/639803181/sys_clk_static.o
 .debug_info    0x000cf1c1     0x2d9e build/default/production/_ext/822048611/sys_ports_static.o
 .debug_info    0x000d1f5f     0x8c73 build/default/production/_ext/1688732426/system_init.o
 .debug_info    0x000dabd2     0x288c build/default/production/_ext/1688732426/system_interrupt.o
 .debug_info    0x000dd45e     0x16f0 build/default/production/_ext/1688732426/system_exceptions.o
 .debug_info    0x000deb4e      0x186 build/default/production/_ext/1360937237/main.o
 .debug_info    0x000decd4     0x159d build/default/production/_ext/1688732426/system_tasks.o
 .debug_info    0x000e0271      0x76f c:/program files (x86)/microchip/xc32/v1.43/bin/bin/../../lib/gcc/pic32mx/4.8.3\libgcc.a(_udivdi3.o)
 .debug_info    0x000e09e0       0xf5 c:/program files (x86)/microchip/xc32/v1.43/bin/bin/../../lib/gcc/pic32mx/4.8.3/../../../../pic32mx/lib\libpic32.a(default-bootstrap-exception-handler.o)
 .debug_info    0x000e0ad5       0xce c:/program files (x86)/microchip/xc32/v1.43/bin/bin/../../lib/gcc/pic32mx/4.8.3/../../../../pic32mx/lib\libpic32.a(default-on-reset.o)
 .debug_info    0x000e0ba3       0xd6 c:/program files (x86)/microchip/xc32/v1.43/bin/bin/../../lib/gcc/pic32mx/4.8.3/../../../../pic32mx/lib\libpic32.a(default-on-bootstrap.o)
 .debug_info    0x000e0c79       0xe8 c:/program files (x86)/microchip/xc32/v1.43/bin/bin/../../lib/gcc/pic32mx/4.8.3/../../../../pic32mx/lib\libpic32.a(defaultinterrupt.o)
 .debug_info    0x000e0d61       0xf5 c:/program files (x86)/microchip/xc32/v1.43/bin/bin/../../lib/gcc/pic32mx/4.8.3/../../../../pic32mx/lib\libpic32.a(default-cache-err-exception-handler.o)
 .debug_info    0x000e0e56      0x105 c:/program files (x86)/microchip/xc32/v1.43/bin/bin/../../lib/gcc/pic32mx/4.8.3/../../../../pic32mx/lib\libpic32.a(default-simple-tlb-refill-exception-handler.o)
 .debug_info    0x000e0f5b       0xc6 c:/program files (x86)/microchip/xc32/v1.43/bin/bin/../../lib/gcc/pic32mx/4.8.3/../../../../pic32mx/lib\libc.a(calloc.o)
 .debug_info    0x000e1021      0x134 c:/program files (x86)/microchip/xc32/v1.43/bin/bin/../../lib/gcc/pic32mx/4.8.3/../../../../pic32mx/lib\libc.a(ctime.o)
 .debug_info    0x000e1155      0x23a c:/program files (x86)/microchip/xc32/v1.43/bin/bin/../../lib/gcc/pic32mx/4.8.3/../../../../pic32mx/lib\libc.a(ctypef.o)
 .debug_info    0x000e138f       0xf7 c:/program files (x86)/microchip/xc32/v1.43/bin/bin/../../lib/gcc/pic32mx/4.8.3/../../../../pic32mx/lib\libc.a(malloc.o)
 .debug_info    0x000e1486       0xc8 c:/program files (x86)/microchip/xc32/v1.43/bin/bin/../../lib/gcc/pic32mx/4.8.3/../../../../pic32mx/lib\libc.a(memmove.o)
 .debug_info    0x000e154e       0xdd c:/program files (x86)/microchip/xc32/v1.43/bin/bin/../../lib/gcc/pic32mx/4.8.3/../../../../pic32mx/lib\libc.a(rand.o)
 .debug_info    0x000e162b       0xc8 c:/program files (x86)/microchip/xc32/v1.43/bin/bin/../../lib/gcc/pic32mx/4.8.3/../../../../pic32mx/lib\libc.a(strncpy.o)
 .debug_info    0x000e16f3       0xdd c:/program files (x86)/microchip/xc32/v1.43/bin/bin/../../lib/gcc/pic32mx/4.8.3/../../../../pic32mx/lib\libc.a(strtol.o)
 .debug_info    0x000e17d0       0xc2 c:/program files (x86)/microchip/xc32/v1.43/bin/bin/../../lib/gcc/pic32mx/4.8.3/../../../../pic32mx/lib\libc.a(time.o)
 .debug_info    0x000e1892       0xd2 c:/program files (x86)/microchip/xc32/v1.43/bin/bin/../../lib/gcc/pic32mx/4.8.3/../../../../pic32mx/lib\libc.a(sprintf_cdnopuxX.eo)
 .debug_info    0x000e1964       0xcc c:/program files (x86)/microchip/xc32/v1.43/bin/bin/../../lib/gcc/pic32mx/4.8.3/../../../../pic32mx/lib\libc.a(vsnprintf.o)
 .debug_info    0x000e1a30       0xd3 c:/program files (x86)/microchip/xc32/v1.43/bin/bin/../../lib/gcc/pic32mx/4.8.3/../../../../pic32mx/lib\libc.a(doprnt_cdnopuxX.eo)
 .debug_info    0x000e1b03      0x100 c:/program files (x86)/microchip/xc32/v1.43/bin/bin/../../lib/gcc/pic32mx/4.8.3/../../../../pic32mx/lib\libc.a(doprnt.o)
 .debug_info    0x000e1c03       0xc4 c:/program files (x86)/microchip/xc32/v1.43/bin/bin/../../lib/gcc/pic32mx/4.8.3/../../../../pic32mx/lib\libc.a(_fputc_simple.o)
 .debug_info    0x000e1cc7       0xc7 c:/program files (x86)/microchip/xc32/v1.43/bin/bin/../../lib/gcc/pic32mx/4.8.3/../../../../pic32mx/lib\libc.a(_flsbuf_simple.o)
 .debug_info    0x000e1d8e       0xcf c:/program files (x86)/microchip/xc32/v1.43/bin/bin/../../lib/gcc/pic32mx/4.8.3/../../../../pic32mx/lib\libe.a(_fixunsdfdi.o)
 .debug_info    0x000e1e5d       0xbb c:/program files (x86)/microchip/xc32/v1.43/bin/bin/../../lib/gcc/pic32mx/4.8.3/../../../../pic32mx/lib\libe.a(_orderdf2.o)
 .debug_info    0x000e1f18       0xba c:/program files (x86)/microchip/xc32/v1.43/bin/bin/../../lib/gcc/pic32mx/4.8.3/../../../../pic32mx/lib\libe.a(_fixdfdi.o)
 .debug_info    0x000e1fd2      0x7ac c:/program files (x86)/microchip/xc32/v1.43/bin/bin/../../lib/gcc/pic32mx/4.8.3\libgcc.a(_umoddi3.o)
 .debug_info    0x000e277e      0x142 c:/program files (x86)/microchip/xc32/v1.43/bin/bin/../../lib/gcc/pic32mx/4.8.3\libgcc.a(floatunsidf.o)
 .debug_info    0x000e28c0      0x132 c:/program files (x86)/microchip/xc32/v1.43/bin/bin/../../lib/gcc/pic32mx/4.8.3/../../../../pic32mx/lib\libpic32.a(sbrk.o)
 .debug_info    0x000e29f2       0xc0 c:/program files (x86)/microchip/xc32/v1.43/bin/bin/../../lib/gcc/pic32mx/4.8.3/../../../../pic32mx/lib\libpic32.a(write.o)
 .debug_info    0x000e2ab2       0xc8 c:/program files (x86)/microchip/xc32/v1.43/bin/bin/../../lib/gcc/pic32mx/4.8.3/../../../../pic32mx/lib\libpic32.a(_mon_putc.o)

.debug_abbrev   0x00000000     0xdc5d
 *.elf(.debug_abbrev)
 *(.debug_abbrev)
 .debug_abbrev  0x00000000      0x1ba build/default/production/_ext/1046770110/ssl-dummy.o
 .debug_abbrev  0x000001ba      0x149 build/default/production/_ext/1046770110/arc4.o
 .debug_abbrev  0x00000303      0x338 build/default/production/_ext/1046770110/pwdbased.o
 .debug_abbrev  0x0000063b      0x2a8 build/default/production/_ext/1046770110/tfm.o
 .debug_abbrev  0x000008e3      0x409 build/default/production/_ext/1046770110/asn.o
 .debug_abbrev  0x00000cec      0x291 build/default/production/_ext/1046770110/des3.o
 .debug_abbrev  0x00000f7d      0x323 build/default/production/_ext/1046770110/rsa.o
 .debug_abbrev  0x000012a0      0x27f build/default/production/_ext/1046770110/aes.o
 .debug_abbrev  0x0000151f      0x1fa build/default/production/_ext/1046770110/md5.o
 .debug_abbrev  0x00001719      0x220 build/default/production/_ext/1046770110/sha.o
 .debug_abbrev  0x00001939      0x256 build/default/production/_ext/1046770110/sha256.o
 .debug_abbrev  0x00001b8f      0x249 build/default/production/_ext/1046770110/hmac.o
 .debug_abbrev  0x00001dd8      0x189 build/default/production/_ext/1046770110/hash.o
 .debug_abbrev  0x00001f61       0xd2 build/default/production/_ext/1107806295/adler32.o
 .debug_abbrev  0x00002033      0x162 build/default/production/_ext/1107806295/compress.o
 .debug_abbrev  0x00002195      0x1b6 build/default/production/_ext/1107806295/crc32.o
 .debug_abbrev  0x0000234b      0x3b8 build/default/production/_ext/1107806295/deflate.o
 .debug_abbrev  0x00002703      0x289 build/default/production/_ext/1107806295/infback.o
 .debug_abbrev  0x0000298c      0x13b build/default/production/_ext/1107806295/inffast.o
 .debug_abbrev  0x00002ac7      0x346 build/default/production/_ext/1107806295/inflate.o
 .debug_abbrev  0x00002e0d       0xeb build/default/production/_ext/1107806295/inftrees.o
 .debug_abbrev  0x00002ef8      0x2e6 build/default/production/_ext/1107806295/trees.o
 .debug_abbrev  0x000031de      0x13e build/default/production/_ext/1107806295/uncompr.o
 .debug_abbrev  0x0000331c      0x152 build/default/production/_ext/1107806295/zutil.o
 .debug_abbrev  0x0000346e      0x3ee build/default/production/_ext/1046770110/random.o
 .debug_abbrev  0x0000385c      0x28f build/default/production/_ext/1046770110/crypto.o
 .debug_abbrev  0x00003aeb      0x1cb build/default/production/_ext/1046770110/coding.o
 .debug_abbrev  0x00003cb6       0xf3 build/default/production/_ext/1046770110/error.o
 .debug_abbrev  0x00003da9       0xc1 build/default/production/_ext/1046770110/logging.o
 .debug_abbrev  0x00003e6a      0x13e build/default/production/_ext/1046770110/memory.o
 .debug_abbrev  0x00003fa8       0x1b build/default/production/_ext/1046770110/misc.o
 .debug_abbrev  0x00003fc3       0xa5 build/default/production/_ext/1046770110/port.o
 .debug_abbrev  0x00004068      0x5ca build/default/production/_ext/508588874/drv_ethmac.o
 .debug_abbrev  0x00004632      0x55a build/default/production/_ext/508588874/drv_ethmac_lib.o
 .debug_abbrev  0x00004b8c      0x573 build/default/production/_ext/1684742680/drv_ethphy.o
 .debug_abbrev  0x000050ff      0x215 build/default/production/_ext/1684742680/drv_extphy_smsc8740.o
 .debug_abbrev  0x00005314      0x4ee build/default/production/_ext/1895062557/drv_tmr.o
 .debug_abbrev  0x00005802      0x488 build/default/production/_ext/1601094287/drv_usart.o
 .debug_abbrev  0x00005c8a      0x37f build/default/production/_ext/1601094287/drv_usart_buffer_queue.o
 .debug_abbrev  0x00006009      0x3a3 build/default/production/_ext/1601094287/drv_usart_read_write.o
 .debug_abbrev  0x000063ac      0x45c build/default/production/_ext/1333902316/sys_command.o
 .debug_abbrev  0x00006808      0x124 build/default/production/_ext/388960396/sys_buffer.o
 .debug_abbrev  0x0000692c      0x102 build/default/production/_ext/388960396/sys_queue.o
 .debug_abbrev  0x00006a2e      0x22f build/default/production/_ext/877190136/sys_console.o
 .debug_abbrev  0x00006c5d      0x2e6 build/default/production/_ext/877190136/sys_console_uart.o
 .debug_abbrev  0x00006f43      0x284 build/default/production/_ext/996864500/sys_debug.o
 .debug_abbrev  0x000071c7      0x27e build/default/production/_ext/1470476842/sys_devcon.o
 .debug_abbrev  0x00007445      0x21d build/default/production/_ext/1470476842/sys_devcon_pic32mz.o
 .debug_abbrev  0x00007662      0x1c3 build/default/production/_ext/1979725680/sys_int_pic32.o
 .debug_abbrev  0x00007825      0x25a build/default/production/_ext/1966875597/sys_ports.o
 .debug_abbrev  0x00007a7f      0x23a build/default/production/_ext/1457815988/sys_random.o
 .debug_abbrev  0x00007cb9      0x18d build/default/production/_ext/1076061456/sys_reset.o
 .debug_abbrev  0x00007e46      0x4ff build/default/production/_ext/837595974/sys_tmr.o
 .debug_abbrev  0x00008345      0x620 build/default/production/_ext/1406599153/tcp.o
 .debug_abbrev  0x00008965      0x656 build/default/production/_ext/1406599153/udp.o
 .debug_abbrev  0x00008fbb      0x1bc build/default/production/_ext/1406599153/tcpip_heap_alloc.o
 .debug_abbrev  0x00009177      0x361 build/default/production/_ext/1406599153/tcpip_heap_internal.o
 .debug_abbrev  0x000094d8      0x540 build/default/production/_ext/1406599153/arp.o
 .debug_abbrev  0x00009a18      0x58f build/default/production/_ext/1406599153/dhcp.o
 .debug_abbrev  0x00009fa7      0x5e7 build/default/production/_ext/1406599153/dns.o
 .debug_abbrev  0x0000a58e      0x415 build/default/production/_ext/1406599153/nbns.o
 .debug_abbrev  0x0000a9a3      0x3f8 build/default/production/_ext/1406599153/tcpip_announce.o
 .debug_abbrev  0x0000ad9b      0x177 build/default/production/_ext/1268476361/helpers.o
 .debug_abbrev  0x0000af12       0x82 build/default/production/_ext/1268476361/lfsr.o
 .debug_abbrev  0x0000af94       0xb5 build/default/production/_ext/1406599153/hash_fnv.o
 .debug_abbrev  0x0000b049      0x277 build/default/production/_ext/1406599153/oahash.o
 .debug_abbrev  0x0000b2c0      0x486 build/default/production/_ext/1406599153/tcpip_helpers.o
 .debug_abbrev  0x0000b746       0x14 build/default/production/_ext/1406599153/tcpip_helper_c32.o
 .debug_abbrev  0x0000b75a      0x660 build/default/production/_ext/1406599153/tcpip_manager.o
 .debug_abbrev  0x0000bdba      0x219 build/default/production/_ext/1406599153/tcpip_notify.o
 .debug_abbrev  0x0000bfd3      0x340 build/default/production/_ext/1406599153/tcpip_packet.o
 .debug_abbrev  0x0000c313      0x4f8 build/default/production/_ext/1406599153/ipv4.o
 .debug_abbrev  0x0000c80b       0xe4 build/default/production/_ext/1360937237/app.o
 .debug_abbrev  0x0000c8ef      0x27a build/default/production/_ext/639803181/sys_clk_static.o
 .debug_abbrev  0x0000cb69      0x152 build/default/production/_ext/822048611/sys_ports_static.o
 .debug_abbrev  0x0000ccbb      0x39d build/default/production/_ext/1688732426/system_init.o
 .debug_abbrev  0x0000d058      0x1af build/default/production/_ext/1688732426/system_interrupt.o
 .debug_abbrev  0x0000d207       0xec build/default/production/_ext/1688732426/system_exceptions.o
 .debug_abbrev  0x0000d2f3       0x93 build/default/production/_ext/1360937237/main.o
 .debug_abbrev  0x0000d386       0xd6 build/default/production/_ext/1688732426/system_tasks.o
 .debug_abbrev  0x0000d45c      0x138 c:/program files (x86)/microchip/xc32/v1.43/bin/bin/../../lib/gcc/pic32mx/4.8.3\libgcc.a(_udivdi3.o)
 .debug_abbrev  0x0000d594       0x28 c:/program files (x86)/microchip/xc32/v1.43/bin/bin/../../lib/gcc/pic32mx/4.8.3/../../../../pic32mx/lib\libpic32.a(default-bootstrap-exception-handler.o)
 .debug_abbrev  0x0000d5bc       0x28 c:/program files (x86)/microchip/xc32/v1.43/bin/bin/../../lib/gcc/pic32mx/4.8.3/../../../../pic32mx/lib\libpic32.a(default-on-reset.o)
 .debug_abbrev  0x0000d5e4       0x28 c:/program files (x86)/microchip/xc32/v1.43/bin/bin/../../lib/gcc/pic32mx/4.8.3/../../../../pic32mx/lib\libpic32.a(default-on-bootstrap.o)
 .debug_abbrev  0x0000d60c       0x28 c:/program files (x86)/microchip/xc32/v1.43/bin/bin/../../lib/gcc/pic32mx/4.8.3/../../../../pic32mx/lib\libpic32.a(defaultinterrupt.o)
 .debug_abbrev  0x0000d634       0x28 c:/program files (x86)/microchip/xc32/v1.43/bin/bin/../../lib/gcc/pic32mx/4.8.3/../../../../pic32mx/lib\libpic32.a(default-cache-err-exception-handler.o)
 .debug_abbrev  0x0000d65c       0x28 c:/program files (x86)/microchip/xc32/v1.43/bin/bin/../../lib/gcc/pic32mx/4.8.3/../../../../pic32mx/lib\libpic32.a(default-simple-tlb-refill-exception-handler.o)
 .debug_abbrev  0x0000d684       0x28 c:/program files (x86)/microchip/xc32/v1.43/bin/bin/../../lib/gcc/pic32mx/4.8.3/../../../../pic32mx/lib\libc.a(calloc.o)
 .debug_abbrev  0x0000d6ac       0x7a c:/program files (x86)/microchip/xc32/v1.43/bin/bin/../../lib/gcc/pic32mx/4.8.3/../../../../pic32mx/lib\libc.a(ctime.o)
 .debug_abbrev  0x0000d726       0x28 c:/program files (x86)/microchip/xc32/v1.43/bin/bin/../../lib/gcc/pic32mx/4.8.3/../../../../pic32mx/lib\libc.a(ctypef.o)
 .debug_abbrev  0x0000d74e       0x47 c:/program files (x86)/microchip/xc32/v1.43/bin/bin/../../lib/gcc/pic32mx/4.8.3/../../../../pic32mx/lib\libc.a(malloc.o)
 .debug_abbrev  0x0000d795       0x28 c:/program files (x86)/microchip/xc32/v1.43/bin/bin/../../lib/gcc/pic32mx/4.8.3/../../../../pic32mx/lib\libc.a(memmove.o)
 .debug_abbrev  0x0000d7bd       0x47 c:/program files (x86)/microchip/xc32/v1.43/bin/bin/../../lib/gcc/pic32mx/4.8.3/../../../../pic32mx/lib\libc.a(rand.o)
 .debug_abbrev  0x0000d804       0x28 c:/program files (x86)/microchip/xc32/v1.43/bin/bin/../../lib/gcc/pic32mx/4.8.3/../../../../pic32mx/lib\libc.a(strncpy.o)
 .debug_abbrev  0x0000d82c       0x28 c:/program files (x86)/microchip/xc32/v1.43/bin/bin/../../lib/gcc/pic32mx/4.8.3/../../../../pic32mx/lib\libc.a(strtol.o)
 .debug_abbrev  0x0000d854       0x28 c:/program files (x86)/microchip/xc32/v1.43/bin/bin/../../lib/gcc/pic32mx/4.8.3/../../../../pic32mx/lib\libc.a(time.o)
 .debug_abbrev  0x0000d87c       0x28 c:/program files (x86)/microchip/xc32/v1.43/bin/bin/../../lib/gcc/pic32mx/4.8.3/../../../../pic32mx/lib\libc.a(sprintf_cdnopuxX.eo)
 .debug_abbrev  0x0000d8a4       0x28 c:/program files (x86)/microchip/xc32/v1.43/bin/bin/../../lib/gcc/pic32mx/4.8.3/../../../../pic32mx/lib\libc.a(vsnprintf.o)
 .debug_abbrev  0x0000d8cc       0x28 c:/program files (x86)/microchip/xc32/v1.43/bin/bin/../../lib/gcc/pic32mx/4.8.3/../../../../pic32mx/lib\libc.a(doprnt_cdnopuxX.eo)
 .debug_abbrev  0x0000d8f4       0x45 c:/program files (x86)/microchip/xc32/v1.43/bin/bin/../../lib/gcc/pic32mx/4.8.3/../../../../pic32mx/lib\libc.a(doprnt.o)
 .debug_abbrev  0x0000d939       0x28 c:/program files (x86)/microchip/xc32/v1.43/bin/bin/../../lib/gcc/pic32mx/4.8.3/../../../../pic32mx/lib\libc.a(_fputc_simple.o)
 .debug_abbrev  0x0000d961       0x28 c:/program files (x86)/microchip/xc32/v1.43/bin/bin/../../lib/gcc/pic32mx/4.8.3/../../../../pic32mx/lib\libc.a(_flsbuf_simple.o)
 .debug_abbrev  0x0000d989       0x37 c:/program files (x86)/microchip/xc32/v1.43/bin/bin/../../lib/gcc/pic32mx/4.8.3/../../../../pic32mx/lib\libe.a(_fixunsdfdi.o)
 .debug_abbrev  0x0000d9c0       0x28 c:/program files (x86)/microchip/xc32/v1.43/bin/bin/../../lib/gcc/pic32mx/4.8.3/../../../../pic32mx/lib\libe.a(_orderdf2.o)
 .debug_abbrev  0x0000d9e8       0x28 c:/program files (x86)/microchip/xc32/v1.43/bin/bin/../../lib/gcc/pic32mx/4.8.3/../../../../pic32mx/lib\libe.a(_fixdfdi.o)
 .debug_abbrev  0x0000da10      0x147 c:/program files (x86)/microchip/xc32/v1.43/bin/bin/../../lib/gcc/pic32mx/4.8.3\libgcc.a(_umoddi3.o)
 .debug_abbrev  0x0000db57       0x62 c:/program files (x86)/microchip/xc32/v1.43/bin/bin/../../lib/gcc/pic32mx/4.8.3\libgcc.a(floatunsidf.o)
 .debug_abbrev  0x0000dbb9       0x54 c:/program files (x86)/microchip/xc32/v1.43/bin/bin/../../lib/gcc/pic32mx/4.8.3/../../../../pic32mx/lib\libpic32.a(sbrk.o)
 .debug_abbrev  0x0000dc0d       0x28 c:/program files (x86)/microchip/xc32/v1.43/bin/bin/../../lib/gcc/pic32mx/4.8.3/../../../../pic32mx/lib\libpic32.a(write.o)
 .debug_abbrev  0x0000dc35       0x28 c:/program files (x86)/microchip/xc32/v1.43/bin/bin/../../lib/gcc/pic32mx/4.8.3/../../../../pic32mx/lib\libpic32.a(_mon_putc.o)

.debug_line     0x00000000    0x1bb93
 *.elf(.debug_line)
 *(.debug_line)
 .debug_line    0x00000000        0x0 build/default/production/_ext/1046770110/ecc.o
 .debug_line    0x00000000      0x138 build/default/production/_ext/1046770110/ssl-dummy.o
 .debug_line    0x00000138       0xaf build/default/production/_ext/1046770110/arc4.o
 .debug_line    0x000001e7      0x2db build/default/production/_ext/1046770110/pwdbased.o
 .debug_line    0x000004c2      0x944 build/default/production/_ext/1046770110/tfm.o
 .debug_line    0x00000e06      0xe45 build/default/production/_ext/1046770110/asn.o
 .debug_line    0x00001c4b      0x432 build/default/production/_ext/1046770110/des3.o
 .debug_line    0x0000207d      0x2be build/default/production/_ext/1046770110/rsa.o
 .debug_line    0x0000233b      0x407 build/default/production/_ext/1046770110/aes.o
 .debug_line    0x00002742      0x450 build/default/production/_ext/1046770110/md5.o
 .debug_line    0x00002b92      0xc4e build/default/production/_ext/1046770110/sha.o
 .debug_line    0x000037e0      0x362 build/default/production/_ext/1046770110/sha256.o
 .debug_line    0x00003b42        0x0 build/default/production/_ext/1046770110/sha512.o
 .debug_line    0x00003b42      0x170 build/default/production/_ext/1046770110/hmac.o
 .debug_line    0x00003cb2      0x189 build/default/production/_ext/1046770110/hash.o
 .debug_line    0x00003e3b        0x0 build/default/production/_ext/1046770110/compress.o
 .debug_line    0x00003e3b      0x119 build/default/production/_ext/1107806295/adler32.o
 .debug_line    0x00003f54       0xc2 build/default/production/_ext/1107806295/compress.o
 .debug_line    0x00004016      0x182 build/default/production/_ext/1107806295/crc32.o
 .debug_line    0x00004198      0x65e build/default/production/_ext/1107806295/deflate.o
 .debug_line    0x000047f6      0x2b7 build/default/production/_ext/1107806295/infback.o
 .debug_line    0x00004aad      0x17d build/default/production/_ext/1107806295/inffast.o
 .debug_line    0x00004c2a      0x64d build/default/production/_ext/1107806295/inflate.o
 .debug_line    0x00005277      0x135 build/default/production/_ext/1107806295/inftrees.o
 .debug_line    0x000053ac      0x3a8 build/default/production/_ext/1107806295/trees.o
 .debug_line    0x00005754       0xa0 build/default/production/_ext/1107806295/uncompr.o
 .debug_line    0x000057f4      0x11b build/default/production/_ext/1107806295/zutil.o
 .debug_line    0x0000590f      0x39e build/default/production/_ext/1046770110/random.o
 .debug_line    0x00005cad      0x44b build/default/production/_ext/1046770110/crypto.o
 .debug_line    0x000060f8      0x1ed build/default/production/_ext/1046770110/coding.o
 .debug_line    0x000062e5      0x162 build/default/production/_ext/1046770110/error.o
 .debug_line    0x00006447        0x0 build/default/production/_ext/1046770110/integer.o
 .debug_line    0x00006447       0xac build/default/production/_ext/1046770110/logging.o
 .debug_line    0x000064f3      0x11b build/default/production/_ext/1046770110/memory.o
 .debug_line    0x0000660e       0x1d build/default/production/_ext/1046770110/misc.o
 .debug_line    0x0000662b       0xb8 build/default/production/_ext/1046770110/port.o
 .debug_line    0x000066e3      0xedb build/default/production/_ext/508588874/drv_ethmac.o
 .debug_line    0x000075be      0xe61 build/default/production/_ext/508588874/drv_ethmac_lib.o
 .debug_line    0x0000841f     0x10a2 build/default/production/_ext/1684742680/drv_ethphy.o
 .debug_line    0x000094c1      0x2cc build/default/production/_ext/1684742680/drv_extphy_smsc8740.o
 .debug_line    0x0000978d     0x1308 build/default/production/_ext/1895062557/drv_tmr.o
 .debug_line    0x0000aa95     0x15e2 build/default/production/_ext/1601094287/drv_usart.o
 .debug_line    0x0000c077      0x7e5 build/default/production/_ext/1601094287/drv_usart_buffer_queue.o
 .debug_line    0x0000c85c      0x83c build/default/production/_ext/1601094287/drv_usart_read_write.o
 .debug_line    0x0000d098      0x7c7 build/default/production/_ext/1333902316/sys_command.o
 .debug_line    0x0000d85f      0x1cc build/default/production/_ext/388960396/sys_buffer.o
 .debug_line    0x0000da2b      0x15b build/default/production/_ext/388960396/sys_queue.o
 .debug_line    0x0000db86      0x30e build/default/production/_ext/877190136/sys_console.o
 .debug_line    0x0000de94      0x46e build/default/production/_ext/877190136/sys_console_uart.o
 .debug_line    0x0000e302      0x302 build/default/production/_ext/996864500/sys_debug.o
 .debug_line    0x0000e604      0x5ce build/default/production/_ext/1470476842/sys_devcon.o
 .debug_line    0x0000ebd2      0x58d build/default/production/_ext/1470476842/sys_devcon_pic32mz.o
 .debug_line    0x0000f15f      0x390 build/default/production/_ext/1979725680/sys_int_pic32.o
 .debug_line    0x0000f4ef      0x79a build/default/production/_ext/1966875597/sys_ports.o
 .debug_line    0x0000fc89      0x29e build/default/production/_ext/1457815988/sys_random.o
 .debug_line    0x0000ff27      0x3d0 build/default/production/_ext/1076061456/sys_reset.o
 .debug_line    0x000102f7      0x64f build/default/production/_ext/837595974/sys_tmr.o
 .debug_line    0x00010946     0x1344 build/default/production/_ext/1406599153/tcp.o
 .debug_line    0x00011c8a      0xd82 build/default/production/_ext/1406599153/udp.o
 .debug_line    0x00012a0c      0x227 build/default/production/_ext/1406599153/tcpip_heap_alloc.o
 .debug_line    0x00012c33      0x429 build/default/production/_ext/1406599153/tcpip_heap_internal.o
 .debug_line    0x0001305c      0x95c build/default/production/_ext/1406599153/arp.o
 .debug_line    0x000139b8      0xc82 build/default/production/_ext/1406599153/dhcp.o
 .debug_line    0x0001463a      0xa4d build/default/production/_ext/1406599153/dns.o
 .debug_line    0x00015087      0x3ec build/default/production/_ext/1406599153/nbns.o
 .debug_line    0x00015473      0x40c build/default/production/_ext/1406599153/tcpip_announce.o
 .debug_line    0x0001587f      0x1fd build/default/production/_ext/1268476361/helpers.o
 .debug_line    0x00015a7c       0xdb build/default/production/_ext/1268476361/lfsr.o
 .debug_line    0x00015b57      0x131 build/default/production/_ext/1406599153/hash_fnv.o
 .debug_line    0x00015c88      0x1e0 build/default/production/_ext/1406599153/oahash.o
 .debug_line    0x00015e68      0xc5e build/default/production/_ext/1406599153/tcpip_helpers.o
 .debug_line    0x00016ac6      0x115 build/default/production/_ext/1406599153/tcpip_helper_c32.o
 .debug_line    0x00016bdb     0x136f build/default/production/_ext/1406599153/tcpip_manager.o
 .debug_line    0x00017f4a      0x273 build/default/production/_ext/1406599153/tcpip_notify.o
 .debug_line    0x000181bd      0x46b build/default/production/_ext/1406599153/tcpip_packet.o
 .debug_line    0x00018628      0x68d build/default/production/_ext/1406599153/ipv4.o
 .debug_line    0x00018cb5      0x162 build/default/production/_ext/1360937237/app.o
 .debug_line    0x00018e17      0x4bf build/default/production/_ext/639803181/sys_clk_static.o
 .debug_line    0x000192d6      0x46e build/default/production/_ext/822048611/sys_ports_static.o
 .debug_line    0x00019744      0x9aa build/default/production/_ext/1688732426/system_init.o
 .debug_line    0x0001a0ee      0x412 build/default/production/_ext/1688732426/system_interrupt.o
 .debug_line    0x0001a500      0x1f3 build/default/production/_ext/1688732426/system_exceptions.o
 .debug_line    0x0001a6f3       0x9a build/default/production/_ext/1360937237/main.o
 .debug_line    0x0001a78d      0x2ed build/default/production/_ext/1688732426/system_tasks.o
 .debug_line    0x0001aa7a       0xfd c:/program files (x86)/microchip/xc32/v1.43/bin/bin/../../lib/gcc/pic32mx/4.8.3\libgcc.a(_udivdi3.o)
 .debug_line    0x0001ab77       0xa7 c:/program files (x86)/microchip/xc32/v1.43/bin/bin/../../lib/gcc/pic32mx/4.8.3/../../../../pic32mx/lib\libpic32.a(default-bootstrap-exception-handler.o)
 .debug_line    0x0001ac1e       0x94 c:/program files (x86)/microchip/xc32/v1.43/bin/bin/../../lib/gcc/pic32mx/4.8.3/../../../../pic32mx/lib\libpic32.a(default-on-reset.o)
 .debug_line    0x0001acb2       0x98 c:/program files (x86)/microchip/xc32/v1.43/bin/bin/../../lib/gcc/pic32mx/4.8.3/../../../../pic32mx/lib\libpic32.a(default-on-bootstrap.o)
 .debug_line    0x0001ad4a       0xa6 c:/program files (x86)/microchip/xc32/v1.43/bin/bin/../../lib/gcc/pic32mx/4.8.3/../../../../pic32mx/lib\libpic32.a(defaultinterrupt.o)
 .debug_line    0x0001adf0       0xa7 c:/program files (x86)/microchip/xc32/v1.43/bin/bin/../../lib/gcc/pic32mx/4.8.3/../../../../pic32mx/lib\libpic32.a(default-cache-err-exception-handler.o)
 .debug_line    0x0001ae97       0xaf c:/program files (x86)/microchip/xc32/v1.43/bin/bin/../../lib/gcc/pic32mx/4.8.3/../../../../pic32mx/lib\libpic32.a(default-simple-tlb-refill-exception-handler.o)
 .debug_line    0x0001af46       0x80 c:/program files (x86)/microchip/xc32/v1.43/bin/bin/../../lib/gcc/pic32mx/4.8.3/../../../../pic32mx/lib\libc.a(calloc.o)
 .debug_line    0x0001afc6       0x7f c:/program files (x86)/microchip/xc32/v1.43/bin/bin/../../lib/gcc/pic32mx/4.8.3/../../../../pic32mx/lib\libc.a(ctime.o)
 .debug_line    0x0001b045        0x0 c:/program files (x86)/microchip/xc32/v1.43/bin/bin/../../lib/gcc/pic32mx/4.8.3/../../../../pic32mx/lib\libc.a(ctype.o)
 .debug_line    0x0001b045       0x80 c:/program files (x86)/microchip/xc32/v1.43/bin/bin/../../lib/gcc/pic32mx/4.8.3/../../../../pic32mx/lib\libc.a(ctypef.o)
 .debug_line    0x0001b0c5       0x80 c:/program files (x86)/microchip/xc32/v1.43/bin/bin/../../lib/gcc/pic32mx/4.8.3/../../../../pic32mx/lib\libc.a(malloc.o)
 .debug_line    0x0001b145       0x81 c:/program files (x86)/microchip/xc32/v1.43/bin/bin/../../lib/gcc/pic32mx/4.8.3/../../../../pic32mx/lib\libc.a(memmove.o)
 .debug_line    0x0001b1c6       0x7e c:/program files (x86)/microchip/xc32/v1.43/bin/bin/../../lib/gcc/pic32mx/4.8.3/../../../../pic32mx/lib\libc.a(rand.o)
 .debug_line    0x0001b244       0x81 c:/program files (x86)/microchip/xc32/v1.43/bin/bin/../../lib/gcc/pic32mx/4.8.3/../../../../pic32mx/lib\libc.a(strncpy.o)
 .debug_line    0x0001b2c5       0x80 c:/program files (x86)/microchip/xc32/v1.43/bin/bin/../../lib/gcc/pic32mx/4.8.3/../../../../pic32mx/lib\libc.a(strtol.o)
 .debug_line    0x0001b345       0x7e c:/program files (x86)/microchip/xc32/v1.43/bin/bin/../../lib/gcc/pic32mx/4.8.3/../../../../pic32mx/lib\libc.a(time.o)
 .debug_line    0x0001b3c3       0x81 c:/program files (x86)/microchip/xc32/v1.43/bin/bin/../../lib/gcc/pic32mx/4.8.3/../../../../pic32mx/lib\libc.a(sprintf_cdnopuxX.eo)
 .debug_line    0x0001b444       0x83 c:/program files (x86)/microchip/xc32/v1.43/bin/bin/../../lib/gcc/pic32mx/4.8.3/../../../../pic32mx/lib\libc.a(vsnprintf.o)
 .debug_line    0x0001b4c7        0x0 c:/program files (x86)/microchip/xc32/v1.43/bin/bin/../../lib/gcc/pic32mx/4.8.3/../../../../pic32mx/lib\libc.a(errno.o)
 .debug_line    0x0001b4c7       0x80 c:/program files (x86)/microchip/xc32/v1.43/bin/bin/../../lib/gcc/pic32mx/4.8.3/../../../../pic32mx/lib\libc.a(doprnt_cdnopuxX.eo)
 .debug_line    0x0001b547       0x80 c:/program files (x86)/microchip/xc32/v1.43/bin/bin/../../lib/gcc/pic32mx/4.8.3/../../../../pic32mx/lib\libc.a(doprnt.o)
 .debug_line    0x0001b5c7       0x7f c:/program files (x86)/microchip/xc32/v1.43/bin/bin/../../lib/gcc/pic32mx/4.8.3/../../../../pic32mx/lib\libc.a(_fputc_simple.o)
 .debug_line    0x0001b646        0x0 c:/program files (x86)/microchip/xc32/v1.43/bin/bin/../../lib/gcc/pic32mx/4.8.3/../../../../pic32mx/lib\libc.a(ldpowers.o)
 .debug_line    0x0001b646        0x0 c:/program files (x86)/microchip/xc32/v1.43/bin/bin/../../lib/gcc/pic32mx/4.8.3/../../../../pic32mx/lib\libc.a(_iob.o)
 .debug_line    0x0001b646       0x80 c:/program files (x86)/microchip/xc32/v1.43/bin/bin/../../lib/gcc/pic32mx/4.8.3/../../../../pic32mx/lib\libc.a(_flsbuf_simple.o)
 .debug_line    0x0001b6c6       0x83 c:/program files (x86)/microchip/xc32/v1.43/bin/bin/../../lib/gcc/pic32mx/4.8.3/../../../../pic32mx/lib\libe.a(_fixunsdfdi.o)
 .debug_line    0x0001b749       0x82 c:/program files (x86)/microchip/xc32/v1.43/bin/bin/../../lib/gcc/pic32mx/4.8.3/../../../../pic32mx/lib\libe.a(_orderdf2.o)
 .debug_line    0x0001b7cb       0x82 c:/program files (x86)/microchip/xc32/v1.43/bin/bin/../../lib/gcc/pic32mx/4.8.3/../../../../pic32mx/lib\libe.a(_fixdfdi.o)
 .debug_line    0x0001b84d      0x10f c:/program files (x86)/microchip/xc32/v1.43/bin/bin/../../lib/gcc/pic32mx/4.8.3\libgcc.a(_umoddi3.o)
 .debug_line    0x0001b95c       0x99 c:/program files (x86)/microchip/xc32/v1.43/bin/bin/../../lib/gcc/pic32mx/4.8.3\libgcc.a(floatunsidf.o)
 .debug_line    0x0001b9f5       0x88 c:/program files (x86)/microchip/xc32/v1.43/bin/bin/../../lib/gcc/pic32mx/4.8.3/../../../../pic32mx/lib\libpic32.a(sbrk.o)
 .debug_line    0x0001ba7d       0x89 c:/program files (x86)/microchip/xc32/v1.43/bin/bin/../../lib/gcc/pic32mx/4.8.3/../../../../pic32mx/lib\libpic32.a(write.o)
 .debug_line    0x0001bb06       0x8d c:/program files (x86)/microchip/xc32/v1.43/bin/bin/../../lib/gcc/pic32mx/4.8.3/../../../../pic32mx/lib\libpic32.a(_mon_putc.o)
 .debug_line    0x0001bb93        0x0 c:/program files (x86)/microchip/xc32/v1.43/bin/bin/../../lib/gcc/pic32mx/4.8.3/../../../../pic32mx/lib\libpic32.a(xc32_uart.o)

.debug_frame    0x00000000     0x859c
 *.elf(.debug_frame)
 *(.debug_frame)
 .debug_frame   0x00000000       0x50 build/default/production/_ext/1046770110/ssl-dummy.o
 .debug_frame   0x00000050       0x30 build/default/production/_ext/1046770110/arc4.o
 .debug_frame   0x00000080       0xd4 build/default/production/_ext/1046770110/pwdbased.o
 .debug_frame   0x00000154      0x6e0 build/default/production/_ext/1046770110/tfm.o
 .debug_frame   0x00000834      0x564 build/default/production/_ext/1046770110/asn.o
 .debug_frame   0x00000d98      0x19c build/default/production/_ext/1046770110/des3.o
 .debug_frame   0x00000f34      0x168 build/default/production/_ext/1046770110/rsa.o
 .debug_frame   0x0000109c       0xb0 build/default/production/_ext/1046770110/aes.o
 .debug_frame   0x0000114c       0xac build/default/production/_ext/1046770110/md5.o
 .debug_frame   0x000011f8       0x90 build/default/production/_ext/1046770110/sha.o
 .debug_frame   0x00001288       0x84 build/default/production/_ext/1046770110/sha256.o
 .debug_frame   0x0000130c       0x90 build/default/production/_ext/1046770110/hmac.o
 .debug_frame   0x0000139c       0xfc build/default/production/_ext/1046770110/hash.o
 .debug_frame   0x00001498       0x70 build/default/production/_ext/1107806295/adler32.o
 .debug_frame   0x00001508       0x54 build/default/production/_ext/1107806295/compress.o
 .debug_frame   0x0000155c       0xb0 build/default/production/_ext/1107806295/crc32.o
 .debug_frame   0x0000160c      0x294 build/default/production/_ext/1107806295/deflate.o
 .debug_frame   0x000018a0       0x80 build/default/production/_ext/1107806295/infback.o
 .debug_frame   0x00001920       0x38 build/default/production/_ext/1107806295/inffast.o
 .debug_frame   0x00001958      0x1cc build/default/production/_ext/1107806295/inflate.o
 .debug_frame   0x00001b24       0x38 build/default/production/_ext/1107806295/inftrees.o
 .debug_frame   0x00001b5c      0x154 build/default/production/_ext/1107806295/trees.o
 .debug_frame   0x00001cb0       0x2c build/default/production/_ext/1107806295/uncompr.o
 .debug_frame   0x00001cdc       0x70 build/default/production/_ext/1107806295/zutil.o
 .debug_frame   0x00001d4c      0x16c build/default/production/_ext/1046770110/random.o
 .debug_frame   0x00001eb8      0x3f0 build/default/production/_ext/1046770110/crypto.o
 .debug_frame   0x000022a8       0xdc build/default/production/_ext/1046770110/coding.o
 .debug_frame   0x00002384       0x38 build/default/production/_ext/1046770110/error.o
 .debug_frame   0x000023bc       0x40 build/default/production/_ext/1046770110/logging.o
 .debug_frame   0x000023fc       0x68 build/default/production/_ext/1046770110/memory.o
 .debug_frame   0x00002464       0x60 build/default/production/_ext/1046770110/port.o
 .debug_frame   0x000024c4      0x460 build/default/production/_ext/508588874/drv_ethmac.o
 .debug_frame   0x00002924      0x290 build/default/production/_ext/508588874/drv_ethmac_lib.o
 .debug_frame   0x00002bb4      0x6e8 build/default/production/_ext/1684742680/drv_ethphy.o
 .debug_frame   0x0000329c       0x60 build/default/production/_ext/1684742680/drv_extphy_smsc8740.o
 .debug_frame   0x000032fc      0x3e4 build/default/production/_ext/1895062557/drv_tmr.o
 .debug_frame   0x000036e0      0x274 build/default/production/_ext/1601094287/drv_usart.o
 .debug_frame   0x00003954       0x90 build/default/production/_ext/1601094287/drv_usart_buffer_queue.o
 .debug_frame   0x000039e4       0x58 build/default/production/_ext/1601094287/drv_usart_read_write.o
 .debug_frame   0x00003a3c      0x2c8 build/default/production/_ext/1333902316/sys_command.o
 .debug_frame   0x00003d04       0x80 build/default/production/_ext/388960396/sys_buffer.o
 .debug_frame   0x00003d84       0x50 build/default/production/_ext/388960396/sys_queue.o
 .debug_frame   0x00003dd4      0x10c build/default/production/_ext/877190136/sys_console.o
 .debug_frame   0x00003ee0       0xcc build/default/production/_ext/877190136/sys_console_uart.o
 .debug_frame   0x00003fac       0xb4 build/default/production/_ext/996864500/sys_debug.o
 .debug_frame   0x00004060       0xe8 build/default/production/_ext/1470476842/sys_devcon.o
 .debug_frame   0x00004148      0x220 build/default/production/_ext/1470476842/sys_devcon_pic32mz.o
 .debug_frame   0x00004368       0x90 build/default/production/_ext/1979725680/sys_int_pic32.o
 .debug_frame   0x000043f8      0x1e0 build/default/production/_ext/1966875597/sys_ports.o
 .debug_frame   0x000045d8       0xe4 build/default/production/_ext/1457815988/sys_random.o
 .debug_frame   0x000046bc       0x50 build/default/production/_ext/1076061456/sys_reset.o
 .debug_frame   0x0000470c      0x24c build/default/production/_ext/837595974/sys_tmr.o
 .debug_frame   0x00004958      0x6bc build/default/production/_ext/1406599153/tcp.o
 .debug_frame   0x00005014      0x590 build/default/production/_ext/1406599153/udp.o
 .debug_frame   0x000055a4       0x98 build/default/production/_ext/1406599153/tcpip_heap_alloc.o
 .debug_frame   0x0000563c      0x104 build/default/production/_ext/1406599153/tcpip_heap_internal.o
 .debug_frame   0x00005740      0x3c8 build/default/production/_ext/1406599153/arp.o
 .debug_frame   0x00005b08      0x4e8 build/default/production/_ext/1406599153/dhcp.o
 .debug_frame   0x00005ff0      0x400 build/default/production/_ext/1406599153/dns.o
 .debug_frame   0x000063f0       0xa4 build/default/production/_ext/1406599153/nbns.o
 .debug_frame   0x00006494       0xc0 build/default/production/_ext/1406599153/tcpip_announce.o
 .debug_frame   0x00006554       0xa4 build/default/production/_ext/1268476361/helpers.o
 .debug_frame   0x000065f8       0x3c build/default/production/_ext/1268476361/lfsr.o
 .debug_frame   0x00006634       0x30 build/default/production/_ext/1406599153/hash_fnv.o
 .debug_frame   0x00006664       0xb4 build/default/production/_ext/1406599153/oahash.o
 .debug_frame   0x00006718      0x5c0 build/default/production/_ext/1406599153/tcpip_helpers.o
 .debug_frame   0x00006cd8      0x958 build/default/production/_ext/1406599153/tcpip_manager.o
 .debug_frame   0x00007630       0x94 build/default/production/_ext/1406599153/tcpip_notify.o
 .debug_frame   0x000076c4      0x144 build/default/production/_ext/1406599153/tcpip_packet.o
 .debug_frame   0x00007808      0x144 build/default/production/_ext/1406599153/ipv4.o
 .debug_frame   0x0000794c       0x30 build/default/production/_ext/1360937237/app.o
 .debug_frame   0x0000797c       0xa0 build/default/production/_ext/639803181/sys_clk_static.o
 .debug_frame   0x00007a1c       0x20 build/default/production/_ext/822048611/sys_ports_static.o
 .debug_frame   0x00007a3c       0x44 build/default/production/_ext/1688732426/system_init.o
 .debug_frame   0x00007a80      0x3a0 build/default/production/_ext/1688732426/system_interrupt.o
 .debug_frame   0x00007e20       0x28 build/default/production/_ext/1688732426/system_exceptions.o
 .debug_frame   0x00007e48       0x28 build/default/production/_ext/1360937237/main.o
 .debug_frame   0x00007e70       0x2c build/default/production/_ext/1688732426/system_tasks.o
 .debug_frame   0x00007e9c       0x20 c:/program files (x86)/microchip/xc32/v1.43/bin/bin/../../lib/gcc/pic32mx/4.8.3\libgcc.a(_udivdi3.o)
 .debug_frame   0x00007ebc       0x2c c:/program files (x86)/microchip/xc32/v1.43/bin/bin/../../lib/gcc/pic32mx/4.8.3/../../../../pic32mx/lib\libpic32.a(default-bootstrap-exception-handler.o)
 .debug_frame   0x00007ee8       0x20 c:/program files (x86)/microchip/xc32/v1.43/bin/bin/../../lib/gcc/pic32mx/4.8.3/../../../../pic32mx/lib\libpic32.a(default-on-reset.o)
 .debug_frame   0x00007f08       0x20 c:/program files (x86)/microchip/xc32/v1.43/bin/bin/../../lib/gcc/pic32mx/4.8.3/../../../../pic32mx/lib\libpic32.a(default-on-bootstrap.o)
 .debug_frame   0x00007f28       0x20 c:/program files (x86)/microchip/xc32/v1.43/bin/bin/../../lib/gcc/pic32mx/4.8.3/../../../../pic32mx/lib\libpic32.a(defaultinterrupt.o)
 .debug_frame   0x00007f48       0x2c c:/program files (x86)/microchip/xc32/v1.43/bin/bin/../../lib/gcc/pic32mx/4.8.3/../../../../pic32mx/lib\libpic32.a(default-cache-err-exception-handler.o)
 .debug_frame   0x00007f74       0x2c c:/program files (x86)/microchip/xc32/v1.43/bin/bin/../../lib/gcc/pic32mx/4.8.3/../../../../pic32mx/lib\libpic32.a(default-simple-tlb-refill-exception-handler.o)
 .debug_frame   0x00007fa0       0x28 c:/program files (x86)/microchip/xc32/v1.43/bin/bin/../../lib/gcc/pic32mx/4.8.3/../../../../pic32mx/lib\libc.a(calloc.o)
 .debug_frame   0x00007fc8       0x78 c:/program files (x86)/microchip/xc32/v1.43/bin/bin/../../lib/gcc/pic32mx/4.8.3/../../../../pic32mx/lib\libc.a(ctime.o)
 .debug_frame   0x00008040      0x120 c:/program files (x86)/microchip/xc32/v1.43/bin/bin/../../lib/gcc/pic32mx/4.8.3/../../../../pic32mx/lib\libc.a(ctypef.o)
 .debug_frame   0x00008160       0x68 c:/program files (x86)/microchip/xc32/v1.43/bin/bin/../../lib/gcc/pic32mx/4.8.3/../../../../pic32mx/lib\libc.a(malloc.o)
 .debug_frame   0x000081c8       0x20 c:/program files (x86)/microchip/xc32/v1.43/bin/bin/../../lib/gcc/pic32mx/4.8.3/../../../../pic32mx/lib\libc.a(memmove.o)
 .debug_frame   0x000081e8       0x30 c:/program files (x86)/microchip/xc32/v1.43/bin/bin/../../lib/gcc/pic32mx/4.8.3/../../../../pic32mx/lib\libc.a(rand.o)
 .debug_frame   0x00008218       0x20 c:/program files (x86)/microchip/xc32/v1.43/bin/bin/../../lib/gcc/pic32mx/4.8.3/../../../../pic32mx/lib\libc.a(strncpy.o)
 .debug_frame   0x00008238       0x58 c:/program files (x86)/microchip/xc32/v1.43/bin/bin/../../lib/gcc/pic32mx/4.8.3/../../../../pic32mx/lib\libc.a(strtol.o)
 .debug_frame   0x00008290       0x20 c:/program files (x86)/microchip/xc32/v1.43/bin/bin/../../lib/gcc/pic32mx/4.8.3/../../../../pic32mx/lib\libc.a(time.o)
 .debug_frame   0x000082b0       0x28 c:/program files (x86)/microchip/xc32/v1.43/bin/bin/../../lib/gcc/pic32mx/4.8.3/../../../../pic32mx/lib\libc.a(sprintf_cdnopuxX.eo)
 .debug_frame   0x000082d8       0x2c c:/program files (x86)/microchip/xc32/v1.43/bin/bin/../../lib/gcc/pic32mx/4.8.3/../../../../pic32mx/lib\libc.a(vsnprintf.o)
 .debug_frame   0x00008304       0x38 c:/program files (x86)/microchip/xc32/v1.43/bin/bin/../../lib/gcc/pic32mx/4.8.3/../../../../pic32mx/lib\libc.a(doprnt_cdnopuxX.eo)
 .debug_frame   0x0000833c       0x74 c:/program files (x86)/microchip/xc32/v1.43/bin/bin/../../lib/gcc/pic32mx/4.8.3/../../../../pic32mx/lib\libc.a(doprnt.o)
 .debug_frame   0x000083b0       0x2c c:/program files (x86)/microchip/xc32/v1.43/bin/bin/../../lib/gcc/pic32mx/4.8.3/../../../../pic32mx/lib\libc.a(_fputc_simple.o)
 .debug_frame   0x000083dc       0x28 c:/program files (x86)/microchip/xc32/v1.43/bin/bin/../../lib/gcc/pic32mx/4.8.3/../../../../pic32mx/lib\libc.a(_flsbuf_simple.o)
 .debug_frame   0x00008404       0x2c c:/program files (x86)/microchip/xc32/v1.43/bin/bin/../../lib/gcc/pic32mx/4.8.3/../../../../pic32mx/lib\libe.a(_fixunsdfdi.o)
 .debug_frame   0x00008430       0x20 c:/program files (x86)/microchip/xc32/v1.43/bin/bin/../../lib/gcc/pic32mx/4.8.3/../../../../pic32mx/lib\libe.a(_orderdf2.o)
 .debug_frame   0x00008450       0x20 c:/program files (x86)/microchip/xc32/v1.43/bin/bin/../../lib/gcc/pic32mx/4.8.3/../../../../pic32mx/lib\libe.a(_fixdfdi.o)
 .debug_frame   0x00008470       0x20 c:/program files (x86)/microchip/xc32/v1.43/bin/bin/../../lib/gcc/pic32mx/4.8.3\libgcc.a(_umoddi3.o)
 .debug_frame   0x00008490       0x28 c:/program files (x86)/microchip/xc32/v1.43/bin/bin/../../lib/gcc/pic32mx/4.8.3\libgcc.a(floatunsidf.o)
 .debug_frame   0x000084b8       0x84 c:/program files (x86)/microchip/xc32/v1.43/bin/bin/../../lib/gcc/pic32mx/4.8.3/../../../../pic32mx/lib\libpic32.a(sbrk.o)
 .debug_frame   0x0000853c       0x38 c:/program files (x86)/microchip/xc32/v1.43/bin/bin/../../lib/gcc/pic32mx/4.8.3/../../../../pic32mx/lib\libpic32.a(write.o)
 .debug_frame   0x00008574       0x28 c:/program files (x86)/microchip/xc32/v1.43/bin/bin/../../lib/gcc/pic32mx/4.8.3/../../../../pic32mx/lib\libpic32.a(_mon_putc.o)

.debug_str      0x00000000     0x2087
 *.elf(.debug_str)
 *(.debug_str)
 .debug_str     0x00000000        0x0 build/default/production/_ext/1046770110/ecc.o
 .debug_str     0x00000000      0x2cc build/default/production/_ext/1046770110/ssl-dummy.o
 .debug_str     0x000002cc        0x0 build/default/production/_ext/1046770110/arc4.o
 .debug_str     0x000002cc       0x4c build/default/production/_ext/1046770110/pwdbased.o
 .debug_str     0x00000318        0x8 build/default/production/_ext/1046770110/tfm.o
 .debug_str     0x00000320      0x117 build/default/production/_ext/1046770110/asn.o
 .debug_str     0x00000437        0x7 build/default/production/_ext/1046770110/des3.o
 .debug_str     0x0000043e       0x36 build/default/production/_ext/1046770110/rsa.o
 .debug_str     0x00000474        0x9 build/default/production/_ext/1046770110/aes.o
 .debug_str     0x0000047d        0x0 build/default/production/_ext/1046770110/md5.o
 .debug_str     0x0000047d        0x0 build/default/production/_ext/1046770110/sha.o
 .debug_str     0x0000047d        0x7 build/default/production/_ext/1046770110/sha256.o
 .debug_str     0x00000484        0x0 build/default/production/_ext/1046770110/sha512.o
 .debug_str     0x00000484       0x16 build/default/production/_ext/1046770110/hmac.o
 .debug_str     0x0000049a       0x2e build/default/production/_ext/1046770110/hash.o
 .debug_str     0x000004c8        0x0 build/default/production/_ext/1046770110/compress.o
 .debug_str     0x000004c8        0xe build/default/production/_ext/1107806295/adler32.o
 .debug_str     0x000004d6        0xa build/default/production/_ext/1107806295/compress.o
 .debug_str     0x000004e0        0x0 build/default/production/_ext/1107806295/crc32.o
 .debug_str     0x000004e0       0x6d build/default/production/_ext/1107806295/deflate.o
 .debug_str     0x0000054d        0x6 build/default/production/_ext/1107806295/infback.o
 .debug_str     0x00000553        0x0 build/default/production/_ext/1107806295/inffast.o
 .debug_str     0x00000553       0x22 build/default/production/_ext/1107806295/inflate.o
 .debug_str     0x00000575        0x0 build/default/production/_ext/1107806295/inftrees.o
 .debug_str     0x00000575       0x4d build/default/production/_ext/1107806295/trees.o
 .debug_str     0x000005c2        0x0 build/default/production/_ext/1107806295/uncompr.o
 .debug_str     0x000005c2        0x0 build/default/production/_ext/1107806295/zutil.o
 .debug_str     0x000005c2       0x51 build/default/production/_ext/1046770110/random.o
 .debug_str     0x00000613       0xa4 build/default/production/_ext/1046770110/crypto.o
 .debug_str     0x000006b7       0x17 build/default/production/_ext/1046770110/coding.o
 .debug_str     0x000006ce        0x0 build/default/production/_ext/1046770110/error.o
 .debug_str     0x000006ce        0x0 build/default/production/_ext/1046770110/integer.o
 .debug_str     0x000006ce        0x0 build/default/production/_ext/1046770110/logging.o
 .debug_str     0x000006ce        0x0 build/default/production/_ext/1046770110/memory.o
 .debug_str     0x000006ce        0x0 build/default/production/_ext/1046770110/misc.o
 .debug_str     0x000006ce        0x0 build/default/production/_ext/1046770110/port.o
 .debug_str     0x000006ce      0x175 build/default/production/_ext/508588874/drv_ethmac.o
 .debug_str     0x00000843      0x160 build/default/production/_ext/508588874/drv_ethmac_lib.o
 .debug_str     0x000009a3      0x475 build/default/production/_ext/1684742680/drv_ethphy.o
 .debug_str     0x00000e18       0x2a build/default/production/_ext/1684742680/drv_extphy_smsc8740.o
 .debug_str     0x00000e42       0xb9 build/default/production/_ext/1895062557/drv_tmr.o
 .debug_str     0x00000efb      0x1b5 build/default/production/_ext/1601094287/drv_usart.o
 .debug_str     0x000010b0       0x74 build/default/production/_ext/1601094287/drv_usart_buffer_queue.o
 .debug_str     0x00001124       0x65 build/default/production/_ext/1601094287/drv_usart_read_write.o
 .debug_str     0x00001189       0x46 build/default/production/_ext/1333902316/sys_command.o
 .debug_str     0x000011cf       0x34 build/default/production/_ext/388960396/sys_buffer.o
 .debug_str     0x00001203       0x14 build/default/production/_ext/388960396/sys_queue.o
 .debug_str     0x00001217        0xd build/default/production/_ext/877190136/sys_console.o
 .debug_str     0x00001224       0x18 build/default/production/_ext/877190136/sys_console_uart.o
 .debug_str     0x0000123c       0x12 build/default/production/_ext/996864500/sys_debug.o
 .debug_str     0x0000124e       0x16 build/default/production/_ext/1470476842/sys_devcon.o
 .debug_str     0x00001264       0x1a build/default/production/_ext/1470476842/sys_devcon_pic32mz.o
 .debug_str     0x0000127e       0x2d build/default/production/_ext/1979725680/sys_int_pic32.o
 .debug_str     0x000012ab       0x98 build/default/production/_ext/1966875597/sys_ports.o
 .debug_str     0x00001343       0x1d build/default/production/_ext/1457815988/sys_random.o
 .debug_str     0x00001360       0x17 build/default/production/_ext/1076061456/sys_reset.o
 .debug_str     0x00001377       0x84 build/default/production/_ext/837595974/sys_tmr.o
 .debug_str     0x000013fb      0x1cb build/default/production/_ext/1406599153/tcp.o
 .debug_str     0x000015c6      0x15f build/default/production/_ext/1406599153/udp.o
 .debug_str     0x00001725       0x70 build/default/production/_ext/1406599153/tcpip_heap_alloc.o
 .debug_str     0x00001795       0x59 build/default/production/_ext/1406599153/tcpip_heap_internal.o
 .debug_str     0x000017ee      0x104 build/default/production/_ext/1406599153/arp.o
 .debug_str     0x000018f2       0xe1 build/default/production/_ext/1406599153/dhcp.o
 .debug_str     0x000019d3      0x15a build/default/production/_ext/1406599153/dns.o
 .debug_str     0x00001b2d       0x24 build/default/production/_ext/1406599153/nbns.o
 .debug_str     0x00001b51       0x24 build/default/production/_ext/1406599153/tcpip_announce.o
 .debug_str     0x00001b75        0x0 build/default/production/_ext/1268476361/helpers.o
 .debug_str     0x00001b75        0x0 build/default/production/_ext/1268476361/lfsr.o
 .debug_str     0x00001b75        0x0 build/default/production/_ext/1406599153/hash_fnv.o
 .debug_str     0x00001b75        0xa build/default/production/_ext/1406599153/oahash.o
 .debug_str     0x00001b7f       0x7c build/default/production/_ext/1406599153/tcpip_helpers.o
 .debug_str     0x00001bfb      0x2ec build/default/production/_ext/1406599153/tcpip_manager.o
 .debug_str     0x00001ee7       0x33 build/default/production/_ext/1406599153/tcpip_notify.o
 .debug_str     0x00001f1a       0x2c build/default/production/_ext/1406599153/tcpip_packet.o
 .debug_str     0x00001f46       0x31 build/default/production/_ext/1406599153/ipv4.o
 .debug_str     0x00001f77        0x0 build/default/production/_ext/1360937237/app.o
 .debug_str     0x00001f77       0x46 build/default/production/_ext/639803181/sys_clk_static.o
 .debug_str     0x00001fbd       0x56 build/default/production/_ext/822048611/sys_ports_static.o
 .debug_str     0x00002013       0x74 build/default/production/_ext/1688732426/system_init.o
 .debug_str     0x00002087        0x0 build/default/production/_ext/1688732426/system_interrupt.o
 .debug_str     0x00002087        0x0 build/default/production/_ext/1688732426/system_exceptions.o
 .debug_str     0x00002087        0x0 build/default/production/_ext/1360937237/main.o
 .debug_str     0x00002087        0x0 build/default/production/_ext/1688732426/system_tasks.o
 .debug_str     0x00002087        0x0 c:/program files (x86)/microchip/xc32/v1.43/bin/bin/../../lib/gcc/pic32mx/4.8.3\libgcc.a(_udivdi3.o)
 .debug_str     0x00002087        0x0 c:/program files (x86)/microchip/xc32/v1.43/bin/bin/../../lib/gcc/pic32mx/4.8.3/../../../../pic32mx/lib\libpic32.a(default-bootstrap-exception-handler.o)
 .debug_str     0x00002087        0x0 c:/program files (x86)/microchip/xc32/v1.43/bin/bin/../../lib/gcc/pic32mx/4.8.3/../../../../pic32mx/lib\libpic32.a(default-on-reset.o)
 .debug_str     0x00002087        0x0 c:/program files (x86)/microchip/xc32/v1.43/bin/bin/../../lib/gcc/pic32mx/4.8.3/../../../../pic32mx/lib\libpic32.a(default-on-bootstrap.o)
 .debug_str     0x00002087        0x0 c:/program files (x86)/microchip/xc32/v1.43/bin/bin/../../lib/gcc/pic32mx/4.8.3/../../../../pic32mx/lib\libpic32.a(defaultinterrupt.o)
 .debug_str     0x00002087        0x0 c:/program files (x86)/microchip/xc32/v1.43/bin/bin/../../lib/gcc/pic32mx/4.8.3/../../../../pic32mx/lib\libpic32.a(default-cache-err-exception-handler.o)
 .debug_str     0x00002087        0x0 c:/program files (x86)/microchip/xc32/v1.43/bin/bin/../../lib/gcc/pic32mx/4.8.3/../../../../pic32mx/lib\libpic32.a(default-simple-tlb-refill-exception-handler.o)
 .debug_str     0x00002087        0x0 c:/program files (x86)/microchip/xc32/v1.43/bin/bin/../../lib/gcc/pic32mx/4.8.3/../../../../pic32mx/lib\libc.a(calloc.o)
 .debug_str     0x00002087        0x0 c:/program files (x86)/microchip/xc32/v1.43/bin/bin/../../lib/gcc/pic32mx/4.8.3/../../../../pic32mx/lib\libc.a(ctime.o)
 .debug_str     0x00002087        0x0 c:/program files (x86)/microchip/xc32/v1.43/bin/bin/../../lib/gcc/pic32mx/4.8.3/../../../../pic32mx/lib\libc.a(ctype.o)
 .debug_str     0x00002087        0x0 c:/program files (x86)/microchip/xc32/v1.43/bin/bin/../../lib/gcc/pic32mx/4.8.3/../../../../pic32mx/lib\libc.a(ctypef.o)
 .debug_str     0x00002087        0x0 c:/program files (x86)/microchip/xc32/v1.43/bin/bin/../../lib/gcc/pic32mx/4.8.3/../../../../pic32mx/lib\libc.a(malloc.o)
 .debug_str     0x00002087        0x0 c:/program files (x86)/microchip/xc32/v1.43/bin/bin/../../lib/gcc/pic32mx/4.8.3/../../../../pic32mx/lib\libc.a(memmove.o)
 .debug_str     0x00002087        0x0 c:/program files (x86)/microchip/xc32/v1.43/bin/bin/../../lib/gcc/pic32mx/4.8.3/../../../../pic32mx/lib\libc.a(rand.o)
 .debug_str     0x00002087        0x0 c:/program files (x86)/microchip/xc32/v1.43/bin/bin/../../lib/gcc/pic32mx/4.8.3/../../../../pic32mx/lib\libc.a(strncpy.o)
 .debug_str     0x00002087        0x0 c:/program files (x86)/microchip/xc32/v1.43/bin/bin/../../lib/gcc/pic32mx/4.8.3/../../../../pic32mx/lib\libc.a(strtol.o)
 .debug_str     0x00002087        0x0 c:/program files (x86)/microchip/xc32/v1.43/bin/bin/../../lib/gcc/pic32mx/4.8.3/../../../../pic32mx/lib\libc.a(time.o)
 .debug_str     0x00002087        0x0 c:/program files (x86)/microchip/xc32/v1.43/bin/bin/../../lib/gcc/pic32mx/4.8.3/../../../../pic32mx/lib\libc.a(sprintf_cdnopuxX.eo)
 .debug_str     0x00002087        0x0 c:/program files (x86)/microchip/xc32/v1.43/bin/bin/../../lib/gcc/pic32mx/4.8.3/../../../../pic32mx/lib\libc.a(vsnprintf.o)
 .debug_str     0x00002087        0x0 c:/program files (x86)/microchip/xc32/v1.43/bin/bin/../../lib/gcc/pic32mx/4.8.3/../../../../pic32mx/lib\libc.a(errno.o)
 .debug_str     0x00002087        0x0 c:/program files (x86)/microchip/xc32/v1.43/bin/bin/../../lib/gcc/pic32mx/4.8.3/../../../../pic32mx/lib\libc.a(doprnt_cdnopuxX.eo)
 .debug_str     0x00002087        0x0 c:/program files (x86)/microchip/xc32/v1.43/bin/bin/../../lib/gcc/pic32mx/4.8.3/../../../../pic32mx/lib\libc.a(doprnt.o)
 .debug_str     0x00002087        0x0 c:/program files (x86)/microchip/xc32/v1.43/bin/bin/../../lib/gcc/pic32mx/4.8.3/../../../../pic32mx/lib\libc.a(_fputc_simple.o)
 .debug_str     0x00002087        0x0 c:/program files (x86)/microchip/xc32/v1.43/bin/bin/../../lib/gcc/pic32mx/4.8.3/../../../../pic32mx/lib\libc.a(ldpowers.o)
 .debug_str     0x00002087        0x0 c:/program files (x86)/microchip/xc32/v1.43/bin/bin/../../lib/gcc/pic32mx/4.8.3/../../../../pic32mx/lib\libc.a(_iob.o)
 .debug_str     0x00002087        0x0 c:/program files (x86)/microchip/xc32/v1.43/bin/bin/../../lib/gcc/pic32mx/4.8.3/../../../../pic32mx/lib\libc.a(_flsbuf_simple.o)
 .debug_str     0x00002087        0x0 c:/program files (x86)/microchip/xc32/v1.43/bin/bin/../../lib/gcc/pic32mx/4.8.3/../../../../pic32mx/lib\libe.a(_fixunsdfdi.o)
 .debug_str     0x00002087        0x0 c:/program files (x86)/microchip/xc32/v1.43/bin/bin/../../lib/gcc/pic32mx/4.8.3/../../../../pic32mx/lib\libe.a(_orderdf2.o)
 .debug_str     0x00002087        0x0 c:/program files (x86)/microchip/xc32/v1.43/bin/bin/../../lib/gcc/pic32mx/4.8.3/../../../../pic32mx/lib\libe.a(_fixdfdi.o)
 .debug_str     0x00002087        0x0 c:/program files (x86)/microchip/xc32/v1.43/bin/bin/../../lib/gcc/pic32mx/4.8.3\libgcc.a(_umoddi3.o)
 .debug_str     0x00002087        0x0 c:/program files (x86)/microchip/xc32/v1.43/bin/bin/../../lib/gcc/pic32mx/4.8.3\libgcc.a(floatunsidf.o)
 .debug_str     0x00002087        0x0 c:/program files (x86)/microchip/xc32/v1.43/bin/bin/../../lib/gcc/pic32mx/4.8.3/../../../../pic32mx/lib\libpic32.a(sbrk.o)
 .debug_str     0x00002087        0x0 c:/program files (x86)/microchip/xc32/v1.43/bin/bin/../../lib/gcc/pic32mx/4.8.3/../../../../pic32mx/lib\libpic32.a(write.o)
 .debug_str     0x00002087        0x0 c:/program files (x86)/microchip/xc32/v1.43/bin/bin/../../lib/gcc/pic32mx/4.8.3/../../../../pic32mx/lib\libpic32.a(_mon_putc.o)
 .debug_str     0x00002087        0x0 c:/program files (x86)/microchip/xc32/v1.43/bin/bin/../../lib/gcc/pic32mx/4.8.3/../../../../pic32mx/lib\libpic32.a(xc32_uart.o)

.debug_loc      0x00000000    0x7cbb8
 *.elf(.debug_loc)
 *(.debug_loc)
 .debug_loc     0x00000000      0x1b5 build/default/production/_ext/1046770110/arc4.o
 .debug_loc     0x000001b5      0xf11 build/default/production/_ext/1046770110/pwdbased.o
 .debug_loc     0x000010c6     0x3004 build/default/production/_ext/1046770110/tfm.o
 .debug_loc     0x000040ca     0x579c build/default/production/_ext/1046770110/asn.o
 .debug_loc     0x00009866     0x4542 build/default/production/_ext/1046770110/des3.o
 .debug_loc     0x0000dda8      0xf2a build/default/production/_ext/1046770110/rsa.o
 .debug_loc     0x0000ecd2      0xcf9 build/default/production/_ext/1046770110/aes.o
 .debug_loc     0x0000f9cb     0x20a0 build/default/production/_ext/1046770110/md5.o
 .debug_loc     0x00011a6b    0x2f790 build/default/production/_ext/1046770110/sha.o
 .debug_loc     0x000411fb      0xc0c build/default/production/_ext/1046770110/sha256.o
 .debug_loc     0x00041e07      0x559 build/default/production/_ext/1046770110/hmac.o
 .debug_loc     0x00042360      0x4ab build/default/production/_ext/1046770110/hash.o
 .debug_loc     0x0004280b      0x799 build/default/production/_ext/1107806295/adler32.o
 .debug_loc     0x00042fa4      0x1a2 build/default/production/_ext/1107806295/compress.o
 .debug_loc     0x00043146      0x875 build/default/production/_ext/1107806295/crc32.o
 .debug_loc     0x000439bb     0x1693 build/default/production/_ext/1107806295/deflate.o
 .debug_loc     0x0004504e      0xf2e build/default/production/_ext/1107806295/infback.o
 .debug_loc     0x00045f7c      0x705 build/default/production/_ext/1107806295/inffast.o
 .debug_loc     0x00046681     0x15ca build/default/production/_ext/1107806295/inflate.o
 .debug_loc     0x00047c4b      0x726 build/default/production/_ext/1107806295/inftrees.o
 .debug_loc     0x00048371     0x14ed build/default/production/_ext/1107806295/trees.o
 .debug_loc     0x0004985e       0xdb build/default/production/_ext/1107806295/uncompr.o
 .debug_loc     0x00049939       0xc6 build/default/production/_ext/1107806295/zutil.o
 .debug_loc     0x000499ff     0x1201 build/default/production/_ext/1046770110/random.o
 .debug_loc     0x0004ac00     0x137f build/default/production/_ext/1046770110/crypto.o
 .debug_loc     0x0004bf7f     0x1070 build/default/production/_ext/1046770110/coding.o
 .debug_loc     0x0004cfef       0x7c build/default/production/_ext/1046770110/error.o
 .debug_loc     0x0004d06b      0x173 build/default/production/_ext/1046770110/memory.o
 .debug_loc     0x0004d1de     0x224d build/default/production/_ext/508588874/drv_ethmac.o
 .debug_loc     0x0004f42b     0x277b build/default/production/_ext/508588874/drv_ethmac_lib.o
 .debug_loc     0x00051ba6     0x2e69 build/default/production/_ext/1684742680/drv_ethphy.o
 .debug_loc     0x00054a0f      0x250 build/default/production/_ext/1684742680/drv_extphy_smsc8740.o
 .debug_loc     0x00054c5f     0x4182 build/default/production/_ext/1895062557/drv_tmr.o
 .debug_loc     0x00058de1     0x5c69 build/default/production/_ext/1601094287/drv_usart.o
 .debug_loc     0x0005ea4a      0xc7c build/default/production/_ext/1601094287/drv_usart_buffer_queue.o
 .debug_loc     0x0005f6c6      0xf3b build/default/production/_ext/1601094287/drv_usart_read_write.o
 .debug_loc     0x00060601      0xfe0 build/default/production/_ext/1333902316/sys_command.o
 .debug_loc     0x000615e1      0x118 build/default/production/_ext/388960396/sys_buffer.o
 .debug_loc     0x000616f9      0x11a build/default/production/_ext/388960396/sys_queue.o
 .debug_loc     0x00061813      0x3a9 build/default/production/_ext/877190136/sys_console.o
 .debug_loc     0x00061bbc      0x29d build/default/production/_ext/877190136/sys_console_uart.o
 .debug_loc     0x00061e59       0xe3 build/default/production/_ext/996864500/sys_debug.o
 .debug_loc     0x00061f3c       0xf0 build/default/production/_ext/1470476842/sys_devcon.o
 .debug_loc     0x0006202c      0x3ed build/default/production/_ext/1470476842/sys_devcon_pic32mz.o
 .debug_loc     0x00062419       0x8d build/default/production/_ext/1979725680/sys_int_pic32.o
 .debug_loc     0x000624a6      0xea5 build/default/production/_ext/1966875597/sys_ports.o
 .debug_loc     0x0006334b       0xe8 build/default/production/_ext/1457815988/sys_random.o
 .debug_loc     0x00063433       0x63 build/default/production/_ext/1076061456/sys_reset.o
 .debug_loc     0x00063496      0xf1e build/default/production/_ext/837595974/sys_tmr.o
 .debug_loc     0x000643b4     0x4bee build/default/production/_ext/1406599153/tcp.o
 .debug_loc     0x00068fa2     0x2f23 build/default/production/_ext/1406599153/udp.o
 .debug_loc     0x0006bec5      0x29e build/default/production/_ext/1406599153/tcpip_heap_alloc.o
 .debug_loc     0x0006c163      0xa78 build/default/production/_ext/1406599153/tcpip_heap_internal.o
 .debug_loc     0x0006cbdb     0x1ea5 build/default/production/_ext/1406599153/arp.o
 .debug_loc     0x0006ea80     0x20d3 build/default/production/_ext/1406599153/dhcp.o
 .debug_loc     0x00070b53     0x21b7 build/default/production/_ext/1406599153/dns.o
 .debug_loc     0x00072d0a      0x440 build/default/production/_ext/1406599153/nbns.o
 .debug_loc     0x0007314a      0x3fe build/default/production/_ext/1406599153/tcpip_announce.o
 .debug_loc     0x00073548      0x4ce build/default/production/_ext/1268476361/helpers.o
 .debug_loc     0x00073a16       0xc8 build/default/production/_ext/1268476361/lfsr.o
 .debug_loc     0x00073ade      0x137 build/default/production/_ext/1406599153/hash_fnv.o
 .debug_loc     0x00073c15      0x2b1 build/default/production/_ext/1406599153/oahash.o
 .debug_loc     0x00073ec6     0x2cf1 build/default/production/_ext/1406599153/tcpip_helpers.o
 .debug_loc     0x00076bb7     0x30f4 build/default/production/_ext/1406599153/tcpip_manager.o
 .debug_loc     0x00079cab      0x27a build/default/production/_ext/1406599153/tcpip_notify.o
 .debug_loc     0x00079f25      0x85f build/default/production/_ext/1406599153/tcpip_packet.o
 .debug_loc     0x0007a784      0xc3b build/default/production/_ext/1406599153/ipv4.o
 .debug_loc     0x0007b3bf       0x14 build/default/production/_ext/1360937237/app.o
 .debug_loc     0x0007b3d3       0xd7 build/default/production/_ext/639803181/sys_clk_static.o
 .debug_loc     0x0007b4aa       0x35 build/default/production/_ext/1688732426/system_init.o
 .debug_loc     0x0007b4df       0x56 build/default/production/_ext/1688732426/system_interrupt.o
 .debug_loc     0x0007b535      0xa6a c:/program files (x86)/microchip/xc32/v1.43/bin/bin/../../lib/gcc/pic32mx/4.8.3\libgcc.a(_udivdi3.o)
 .debug_loc     0x0007bf9f       0x2c c:/program files (x86)/microchip/xc32/v1.43/bin/bin/../../lib/gcc/pic32mx/4.8.3/../../../../pic32mx/lib\libpic32.a(default-bootstrap-exception-handler.o)
 .debug_loc     0x0007bfcb       0x2c c:/program files (x86)/microchip/xc32/v1.43/bin/bin/../../lib/gcc/pic32mx/4.8.3/../../../../pic32mx/lib\libpic32.a(default-cache-err-exception-handler.o)
 .debug_loc     0x0007bff7       0x2c c:/program files (x86)/microchip/xc32/v1.43/bin/bin/../../lib/gcc/pic32mx/4.8.3/../../../../pic32mx/lib\libpic32.a(default-simple-tlb-refill-exception-handler.o)
 .debug_loc     0x0007c023       0x20 c:/program files (x86)/microchip/xc32/v1.43/bin/bin/../../lib/gcc/pic32mx/4.8.3/../../../../pic32mx/lib\libe.a(_fixunsdfdi.o)
 .debug_loc     0x0007c043      0xa3d c:/program files (x86)/microchip/xc32/v1.43/bin/bin/../../lib/gcc/pic32mx/4.8.3\libgcc.a(_umoddi3.o)
 .debug_loc     0x0007ca80       0x80 c:/program files (x86)/microchip/xc32/v1.43/bin/bin/../../lib/gcc/pic32mx/4.8.3\libgcc.a(floatunsidf.o)
 .debug_loc     0x0007cb00       0x60 c:/program files (x86)/microchip/xc32/v1.43/bin/bin/../../lib/gcc/pic32mx/4.8.3/../../../../pic32mx/lib\libpic32.a(sbrk.o)
 .debug_loc     0x0007cb60       0x38 c:/program files (x86)/microchip/xc32/v1.43/bin/bin/../../lib/gcc/pic32mx/4.8.3/../../../../pic32mx/lib\libpic32.a(write.o)
 .debug_loc     0x0007cb98       0x20 c:/program files (x86)/microchip/xc32/v1.43/bin/bin/../../lib/gcc/pic32mx/4.8.3/../../../../pic32mx/lib\libpic32.a(_mon_putc.o)

.debug_macinfo
 *.elf(.debug_macinfo)
 *(.debug_macinfo)

.debug_weaknames
 *.elf(.debug_weaknames)
 *(.debug_weaknames)

.debug_funcnames
 *.elf(.debug_funcnames)
 *(.debug_funcnames)

.debug_typenames
 *.elf(.debug_typenames)
 *(.debug_typenames)

.debug_varnames
 *.elf(.debug_varnames)
 *(.debug_varnames)

.debug_pubtypes
 *.elf(.debug_pubtypes)
 *(.debug_pubtypes)

.debug_ranges   0x00000000     0x7080
 *.elf(.debug_ranges)
 *(.debug_ranges)
 .debug_ranges  0x00000000       0x28 build/default/production/_ext/1046770110/ssl-dummy.o
 .debug_ranges  0x00000028       0x18 build/default/production/_ext/1046770110/arc4.o
 .debug_ranges  0x00000040       0xf0 build/default/production/_ext/1046770110/pwdbased.o
 .debug_ranges  0x00000130      0x300 build/default/production/_ext/1046770110/tfm.o
 .debug_ranges  0x00000430      0x830 build/default/production/_ext/1046770110/asn.o
 .debug_ranges  0x00000c60      0x150 build/default/production/_ext/1046770110/des3.o
 .debug_ranges  0x00000db0       0x88 build/default/production/_ext/1046770110/rsa.o
 .debug_ranges  0x00000e38      0x168 build/default/production/_ext/1046770110/aes.o
 .debug_ranges  0x00000fa0       0x30 build/default/production/_ext/1046770110/md5.o
 .debug_ranges  0x00000fd0       0xa0 build/default/production/_ext/1046770110/sha.o
 .debug_ranges  0x00001070       0xb8 build/default/production/_ext/1046770110/sha256.o
 .debug_ranges  0x00001128       0x48 build/default/production/_ext/1046770110/hmac.o
 .debug_ranges  0x00001170       0x58 build/default/production/_ext/1046770110/hash.o
 .debug_ranges  0x000011c8       0x28 build/default/production/_ext/1107806295/adler32.o
 .debug_ranges  0x000011f0       0x20 build/default/production/_ext/1107806295/compress.o
 .debug_ranges  0x00001210       0x40 build/default/production/_ext/1107806295/crc32.o
 .debug_ranges  0x00001250      0x260 build/default/production/_ext/1107806295/deflate.o
 .debug_ranges  0x000014b0       0x20 build/default/production/_ext/1107806295/infback.o
 .debug_ranges  0x000014d0       0x10 build/default/production/_ext/1107806295/inffast.o
 .debug_ranges  0x000014e0       0x90 build/default/production/_ext/1107806295/inflate.o
 .debug_ranges  0x00001570       0x10 build/default/production/_ext/1107806295/inftrees.o
 .debug_ranges  0x00001580      0x170 build/default/production/_ext/1107806295/trees.o
 .debug_ranges  0x000016f0       0x10 build/default/production/_ext/1107806295/uncompr.o
 .debug_ranges  0x00001700       0x30 build/default/production/_ext/1107806295/zutil.o
 .debug_ranges  0x00001730      0x128 build/default/production/_ext/1046770110/random.o
 .debug_ranges  0x00001858      0x118 build/default/production/_ext/1046770110/crypto.o
 .debug_ranges  0x00001970       0xb0 build/default/production/_ext/1046770110/coding.o
 .debug_ranges  0x00001a20       0x18 build/default/production/_ext/1046770110/error.o
 .debug_ranges  0x00001a38       0x20 build/default/production/_ext/1046770110/logging.o
 .debug_ranges  0x00001a58       0x28 build/default/production/_ext/1046770110/memory.o
 .debug_ranges  0x00001a80       0x30 build/default/production/_ext/1046770110/port.o
 .debug_ranges  0x00001ab0      0x1f0 build/default/production/_ext/508588874/drv_ethmac.o
 .debug_ranges  0x00001ca0      0x488 build/default/production/_ext/508588874/drv_ethmac_lib.o
 .debug_ranges  0x00002128      0x338 build/default/production/_ext/1684742680/drv_ethphy.o
 .debug_ranges  0x00002460       0x20 build/default/production/_ext/1684742680/drv_extphy_smsc8740.o
 .debug_ranges  0x00002480      0x8b0 build/default/production/_ext/1895062557/drv_tmr.o
 .debug_ranges  0x00002d30      0xf20 build/default/production/_ext/1601094287/drv_usart.o
 .debug_ranges  0x00003c50       0xa0 build/default/production/_ext/1601094287/drv_usart_buffer_queue.o
 .debug_ranges  0x00003cf0      0x3d0 build/default/production/_ext/1601094287/drv_usart_read_write.o
 .debug_ranges  0x000040c0      0x1f8 build/default/production/_ext/1333902316/sys_command.o
 .debug_ranges  0x000042b8       0x40 build/default/production/_ext/388960396/sys_buffer.o
 .debug_ranges  0x000042f8       0x28 build/default/production/_ext/388960396/sys_queue.o
 .debug_ranges  0x00004320       0x50 build/default/production/_ext/877190136/sys_console.o
 .debug_ranges  0x00004370       0x80 build/default/production/_ext/877190136/sys_console_uart.o
 .debug_ranges  0x000043f0       0x50 build/default/production/_ext/996864500/sys_debug.o
 .debug_ranges  0x00004440       0x68 build/default/production/_ext/1470476842/sys_devcon.o
 .debug_ranges  0x000044a8       0xd8 build/default/production/_ext/1470476842/sys_devcon_pic32mz.o
 .debug_ranges  0x00004580       0x50 build/default/production/_ext/1979725680/sys_int_pic32.o
 .debug_ranges  0x000045d0       0xf0 build/default/production/_ext/1966875597/sys_ports.o
 .debug_ranges  0x000046c0       0x58 build/default/production/_ext/1457815988/sys_random.o
 .debug_ranges  0x00004718       0x28 build/default/production/_ext/1076061456/sys_reset.o
 .debug_ranges  0x00004740      0x148 build/default/production/_ext/837595974/sys_tmr.o
 .debug_ranges  0x00004888      0x8d0 build/default/production/_ext/1406599153/tcp.o
 .debug_ranges  0x00005158      0x500 build/default/production/_ext/1406599153/udp.o
 .debug_ranges  0x00005658       0x38 build/default/production/_ext/1406599153/tcpip_heap_alloc.o
 .debug_ranges  0x00005690       0x98 build/default/production/_ext/1406599153/tcpip_heap_internal.o
 .debug_ranges  0x00005728      0x178 build/default/production/_ext/1406599153/arp.o
 .debug_ranges  0x000058a0      0x380 build/default/production/_ext/1406599153/dhcp.o
 .debug_ranges  0x00005c20      0x238 build/default/production/_ext/1406599153/dns.o
 .debug_ranges  0x00005e58       0xb8 build/default/production/_ext/1406599153/nbns.o
 .debug_ranges  0x00005f10       0x60 build/default/production/_ext/1406599153/tcpip_announce.o
 .debug_ranges  0x00005f70       0x48 build/default/production/_ext/1268476361/helpers.o
 .debug_ranges  0x00005fb8       0x18 build/default/production/_ext/1268476361/lfsr.o
 .debug_ranges  0x00005fd0       0x18 build/default/production/_ext/1406599153/hash_fnv.o
 .debug_ranges  0x00005fe8       0x58 build/default/production/_ext/1406599153/oahash.o
 .debug_ranges  0x00006040      0x2e8 build/default/production/_ext/1406599153/tcpip_helpers.o
 .debug_ranges  0x00006328      0x670 build/default/production/_ext/1406599153/tcpip_manager.o
 .debug_ranges  0x00006998       0x30 build/default/production/_ext/1406599153/tcpip_notify.o
 .debug_ranges  0x000069c8       0x68 build/default/production/_ext/1406599153/tcpip_packet.o
 .debug_ranges  0x00006a30      0x140 build/default/production/_ext/1406599153/ipv4.o
 .debug_ranges  0x00006b70       0x18 build/default/production/_ext/1360937237/app.o
 .debug_ranges  0x00006b88       0x40 build/default/production/_ext/639803181/sys_clk_static.o
 .debug_ranges  0x00006bc8       0x10 build/default/production/_ext/822048611/sys_ports_static.o
 .debug_ranges  0x00006bd8       0x18 build/default/production/_ext/1688732426/system_init.o
 .debug_ranges  0x00006bf0       0x50 build/default/production/_ext/1688732426/system_interrupt.o
 .debug_ranges  0x00006c40       0x10 build/default/production/_ext/1688732426/system_exceptions.o
 .debug_ranges  0x00006c50       0x10 build/default/production/_ext/1360937237/main.o
 .debug_ranges  0x00006c60       0x10 build/default/production/_ext/1688732426/system_tasks.o
 .debug_ranges  0x00006c70       0x98 c:/program files (x86)/microchip/xc32/v1.43/bin/bin/../../lib/gcc/pic32mx/4.8.3\libgcc.a(_udivdi3.o)
 .debug_ranges  0x00006d08       0x10 c:/program files (x86)/microchip/xc32/v1.43/bin/bin/../../lib/gcc/pic32mx/4.8.3/../../../../pic32mx/lib\libpic32.a(default-bootstrap-exception-handler.o)
 .debug_ranges  0x00006d18       0x10 c:/program files (x86)/microchip/xc32/v1.43/bin/bin/../../lib/gcc/pic32mx/4.8.3/../../../../pic32mx/lib\libpic32.a(default-on-reset.o)
 .debug_ranges  0x00006d28       0x10 c:/program files (x86)/microchip/xc32/v1.43/bin/bin/../../lib/gcc/pic32mx/4.8.3/../../../../pic32mx/lib\libpic32.a(default-on-bootstrap.o)
 .debug_ranges  0x00006d38       0x10 c:/program files (x86)/microchip/xc32/v1.43/bin/bin/../../lib/gcc/pic32mx/4.8.3/../../../../pic32mx/lib\libpic32.a(defaultinterrupt.o)
 .debug_ranges  0x00006d48       0x10 c:/program files (x86)/microchip/xc32/v1.43/bin/bin/../../lib/gcc/pic32mx/4.8.3/../../../../pic32mx/lib\libpic32.a(default-cache-err-exception-handler.o)
 .debug_ranges  0x00006d58       0x10 c:/program files (x86)/microchip/xc32/v1.43/bin/bin/../../lib/gcc/pic32mx/4.8.3/../../../../pic32mx/lib\libpic32.a(default-simple-tlb-refill-exception-handler.o)
 .debug_ranges  0x00006d68       0x10 c:/program files (x86)/microchip/xc32/v1.43/bin/bin/../../lib/gcc/pic32mx/4.8.3/../../../../pic32mx/lib\libc.a(calloc.o)
 .debug_ranges  0x00006d78       0x30 c:/program files (x86)/microchip/xc32/v1.43/bin/bin/../../lib/gcc/pic32mx/4.8.3/../../../../pic32mx/lib\libc.a(ctime.o)
 .debug_ranges  0x00006da8       0x90 c:/program files (x86)/microchip/xc32/v1.43/bin/bin/../../lib/gcc/pic32mx/4.8.3/../../../../pic32mx/lib\libc.a(ctypef.o)
 .debug_ranges  0x00006e38       0x20 c:/program files (x86)/microchip/xc32/v1.43/bin/bin/../../lib/gcc/pic32mx/4.8.3/../../../../pic32mx/lib\libc.a(malloc.o)
 .debug_ranges  0x00006e58       0x10 c:/program files (x86)/microchip/xc32/v1.43/bin/bin/../../lib/gcc/pic32mx/4.8.3/../../../../pic32mx/lib\libc.a(memmove.o)
 .debug_ranges  0x00006e68       0x18 c:/program files (x86)/microchip/xc32/v1.43/bin/bin/../../lib/gcc/pic32mx/4.8.3/../../../../pic32mx/lib\libc.a(rand.o)
 .debug_ranges  0x00006e80       0x10 c:/program files (x86)/microchip/xc32/v1.43/bin/bin/../../lib/gcc/pic32mx/4.8.3/../../../../pic32mx/lib\libc.a(strncpy.o)
 .debug_ranges  0x00006e90       0x18 c:/program files (x86)/microchip/xc32/v1.43/bin/bin/../../lib/gcc/pic32mx/4.8.3/../../../../pic32mx/lib\libc.a(strtol.o)
 .debug_ranges  0x00006ea8       0x10 c:/program files (x86)/microchip/xc32/v1.43/bin/bin/../../lib/gcc/pic32mx/4.8.3/../../../../pic32mx/lib\libc.a(time.o)
 .debug_ranges  0x00006eb8       0x10 c:/program files (x86)/microchip/xc32/v1.43/bin/bin/../../lib/gcc/pic32mx/4.8.3/../../../../pic32mx/lib\libc.a(sprintf_cdnopuxX.eo)
 .debug_ranges  0x00006ec8       0x10 c:/program files (x86)/microchip/xc32/v1.43/bin/bin/../../lib/gcc/pic32mx/4.8.3/../../../../pic32mx/lib\libc.a(vsnprintf.o)
 .debug_ranges  0x00006ed8       0x10 c:/program files (x86)/microchip/xc32/v1.43/bin/bin/../../lib/gcc/pic32mx/4.8.3/../../../../pic32mx/lib\libc.a(doprnt_cdnopuxX.eo)
 .debug_ranges  0x00006ee8       0x20 c:/program files (x86)/microchip/xc32/v1.43/bin/bin/../../lib/gcc/pic32mx/4.8.3/../../../../pic32mx/lib\libc.a(doprnt.o)
 .debug_ranges  0x00006f08       0x10 c:/program files (x86)/microchip/xc32/v1.43/bin/bin/../../lib/gcc/pic32mx/4.8.3/../../../../pic32mx/lib\libc.a(_fputc_simple.o)
 .debug_ranges  0x00006f18       0x10 c:/program files (x86)/microchip/xc32/v1.43/bin/bin/../../lib/gcc/pic32mx/4.8.3/../../../../pic32mx/lib\libc.a(_flsbuf_simple.o)
 .debug_ranges  0x00006f28       0x10 c:/program files (x86)/microchip/xc32/v1.43/bin/bin/../../lib/gcc/pic32mx/4.8.3/../../../../pic32mx/lib\libe.a(_fixunsdfdi.o)
 .debug_ranges  0x00006f38       0x10 c:/program files (x86)/microchip/xc32/v1.43/bin/bin/../../lib/gcc/pic32mx/4.8.3/../../../../pic32mx/lib\libe.a(_orderdf2.o)
 .debug_ranges  0x00006f48       0x10 c:/program files (x86)/microchip/xc32/v1.43/bin/bin/../../lib/gcc/pic32mx/4.8.3/../../../../pic32mx/lib\libe.a(_fixdfdi.o)
 .debug_ranges  0x00006f58       0xd8 c:/program files (x86)/microchip/xc32/v1.43/bin/bin/../../lib/gcc/pic32mx/4.8.3\libgcc.a(_umoddi3.o)
 .debug_ranges  0x00007030       0x30 c:/program files (x86)/microchip/xc32/v1.43/bin/bin/../../lib/gcc/pic32mx/4.8.3/../../../../pic32mx/lib\libpic32.a(sbrk.o)
 .debug_ranges  0x00007060       0x10 c:/program files (x86)/microchip/xc32/v1.43/bin/bin/../../lib/gcc/pic32mx/4.8.3/../../../../pic32mx/lib\libpic32.a(write.o)
 .debug_ranges  0x00007070       0x10 c:/program files (x86)/microchip/xc32/v1.43/bin/bin/../../lib/gcc/pic32mx/4.8.3/../../../../pic32mx/lib\libpic32.a(_mon_putc.o)

.gnu.attributes
                0x00000000       0x10
 *(.gnu.attributes)
 .gnu.attributes
                0x00000000       0x10 build/default/production/_ext/1046770110/ecc.o
 .gnu.attributes
                0x00000010       0x10 build/default/production/_ext/1046770110/ssl-dummy.o
 .gnu.attributes
                0x00000020       0x10 build/default/production/_ext/1046770110/arc4.o
 .gnu.attributes
                0x00000030       0x10 build/default/production/_ext/1046770110/pwdbased.o
 .gnu.attributes
                0x00000040       0x10 build/default/production/_ext/1046770110/tfm.o
 .gnu.attributes
                0x00000050       0x10 build/default/production/_ext/1046770110/asn.o
 .gnu.attributes
                0x00000060       0x10 build/default/production/_ext/1046770110/des3.o
 .gnu.attributes
                0x00000070       0x10 build/default/production/_ext/1046770110/rsa.o
 .gnu.attributes
                0x00000080       0x10 build/default/production/_ext/1046770110/aes.o
 .gnu.attributes
                0x00000090       0x10 build/default/production/_ext/1046770110/md5.o
 .gnu.attributes
                0x000000a0       0x10 build/default/production/_ext/1046770110/sha.o
 .gnu.attributes
                0x000000b0       0x10 build/default/production/_ext/1046770110/sha256.o
 .gnu.attributes
                0x000000c0       0x10 build/default/production/_ext/1046770110/sha512.o
 .gnu.attributes
                0x000000d0       0x10 build/default/production/_ext/1046770110/hmac.o
 .gnu.attributes
                0x000000e0       0x10 build/default/production/_ext/1046770110/hash.o
 .gnu.attributes
                0x000000f0       0x10 build/default/production/_ext/1046770110/compress.o
 .gnu.attributes
                0x00000100       0x10 build/default/production/_ext/1107806295/adler32.o
 .gnu.attributes
                0x00000110       0x10 build/default/production/_ext/1107806295/compress.o
 .gnu.attributes
                0x00000120       0x10 build/default/production/_ext/1107806295/crc32.o
 .gnu.attributes
                0x00000130       0x10 build/default/production/_ext/1107806295/deflate.o
 .gnu.attributes
                0x00000140       0x10 build/default/production/_ext/1107806295/infback.o
 .gnu.attributes
                0x00000150       0x10 build/default/production/_ext/1107806295/inffast.o
 .gnu.attributes
                0x00000160       0x10 build/default/production/_ext/1107806295/inflate.o
 .gnu.attributes
                0x00000170       0x10 build/default/production/_ext/1107806295/inftrees.o
 .gnu.attributes
                0x00000180       0x10 build/default/production/_ext/1107806295/trees.o
 .gnu.attributes
                0x00000190       0x10 build/default/production/_ext/1107806295/uncompr.o
 .gnu.attributes
                0x000001a0       0x10 build/default/production/_ext/1107806295/zutil.o
 .gnu.attributes
                0x000001b0       0x10 build/default/production/_ext/1046770110/random.o
 .gnu.attributes
                0x000001c0       0x10 build/default/production/_ext/1046770110/crypto.o
 .gnu.attributes
                0x000001d0       0x10 build/default/production/_ext/1046770110/coding.o
 .gnu.attributes
                0x000001e0       0x10 build/default/production/_ext/1046770110/error.o
 .gnu.attributes
                0x000001f0       0x10 build/default/production/_ext/1046770110/integer.o
 .gnu.attributes
                0x00000200       0x10 build/default/production/_ext/1046770110/logging.o
 .gnu.attributes
                0x00000210       0x10 build/default/production/_ext/1046770110/memory.o
 .gnu.attributes
                0x00000220       0x10 build/default/production/_ext/1046770110/misc.o
 .gnu.attributes
                0x00000230       0x10 build/default/production/_ext/1046770110/port.o
 .gnu.attributes
                0x00000240       0x10 build/default/production/_ext/508588874/drv_ethmac.o
 .gnu.attributes
                0x00000250       0x10 build/default/production/_ext/508588874/drv_ethmac_lib.o
 .gnu.attributes
                0x00000260       0x10 build/default/production/_ext/1684742680/drv_ethphy.o
 .gnu.attributes
                0x00000270       0x10 build/default/production/_ext/1684742680/drv_extphy_smsc8740.o
 .gnu.attributes
                0x00000280       0x10 build/default/production/_ext/1895062557/drv_tmr.o
 .gnu.attributes
                0x00000290       0x10 build/default/production/_ext/1601094287/drv_usart.o
 .gnu.attributes
                0x000002a0       0x10 build/default/production/_ext/1601094287/drv_usart_buffer_queue.o
 .gnu.attributes
                0x000002b0       0x10 build/default/production/_ext/1601094287/drv_usart_read_write.o
 .gnu.attributes
                0x000002c0       0x10 build/default/production/_ext/1333902316/sys_command.o
 .gnu.attributes
                0x000002d0       0x10 build/default/production/_ext/388960396/sys_buffer.o
 .gnu.attributes
                0x000002e0       0x10 build/default/production/_ext/388960396/sys_queue.o
 .gnu.attributes
                0x000002f0       0x10 build/default/production/_ext/877190136/sys_console.o
 .gnu.attributes
                0x00000300       0x10 build/default/production/_ext/877190136/sys_console_uart.o
 .gnu.attributes
                0x00000310       0x10 build/default/production/_ext/996864500/sys_debug.o
 .gnu.attributes
                0x00000320       0x10 build/default/production/_ext/1470476842/sys_devcon.o
 .gnu.attributes
                0x00000330       0x10 build/default/production/_ext/1470476842/sys_devcon_pic32mz.o
 .gnu.attributes
                0x00000340       0x10 build/default/production/_ext/1979725680/sys_int_pic32.o
 .gnu.attributes
                0x00000350       0x10 build/default/production/_ext/1966875597/sys_ports.o
 .gnu.attributes
                0x00000360       0x10 build/default/production/_ext/1457815988/sys_random.o
 .gnu.attributes
                0x00000370       0x10 build/default/production/_ext/1076061456/sys_reset.o
 .gnu.attributes
                0x00000380       0x10 build/default/production/_ext/837595974/sys_tmr.o
 .gnu.attributes
                0x00000390       0x10 build/default/production/_ext/1406599153/tcp.o
 .gnu.attributes
                0x000003a0       0x10 build/default/production/_ext/1406599153/udp.o
 .gnu.attributes
                0x000003b0       0x10 build/default/production/_ext/1406599153/tcpip_heap_alloc.o
 .gnu.attributes
                0x000003c0       0x10 build/default/production/_ext/1406599153/tcpip_heap_internal.o
 .gnu.attributes
                0x000003d0       0x10 build/default/production/_ext/1406599153/arp.o
 .gnu.attributes
                0x000003e0       0x10 build/default/production/_ext/1406599153/dhcp.o
 .gnu.attributes
                0x000003f0       0x10 build/default/production/_ext/1406599153/dns.o
 .gnu.attributes
                0x00000400       0x10 build/default/production/_ext/1406599153/nbns.o
 .gnu.attributes
                0x00000410       0x10 build/default/production/_ext/1406599153/tcpip_announce.o
 .gnu.attributes
                0x00000420       0x10 build/default/production/_ext/1268476361/helpers.o
 .gnu.attributes
                0x00000430       0x10 build/default/production/_ext/1268476361/lfsr.o
 .gnu.attributes
                0x00000440       0x10 build/default/production/_ext/1406599153/hash_fnv.o
 .gnu.attributes
                0x00000450       0x10 build/default/production/_ext/1406599153/oahash.o
 .gnu.attributes
                0x00000460       0x10 build/default/production/_ext/1406599153/tcpip_helpers.o
 .gnu.attributes
                0x00000470       0x10 build/default/production/_ext/1406599153/tcpip_manager.o
 .gnu.attributes
                0x00000480       0x10 build/default/production/_ext/1406599153/tcpip_notify.o
 .gnu.attributes
                0x00000490       0x10 build/default/production/_ext/1406599153/tcpip_packet.o
 .gnu.attributes
                0x000004a0       0x10 build/default/production/_ext/1406599153/ipv4.o
 .gnu.attributes
                0x000004b0       0x10 build/default/production/_ext/1360937237/app.o
 .gnu.attributes
                0x000004c0       0x10 build/default/production/_ext/639803181/sys_clk_static.o
 .gnu.attributes
                0x000004d0       0x10 build/default/production/_ext/822048611/sys_ports_static.o
 .gnu.attributes
                0x000004e0       0x10 build/default/production/_ext/1688732426/system_init.o
 .gnu.attributes
                0x000004f0       0x10 build/default/production/_ext/1688732426/system_interrupt.o
 .gnu.attributes
                0x00000500       0x10 build/default/production/_ext/1688732426/system_exceptions.o
 .gnu.attributes
                0x00000510       0x10 build/default/production/_ext/1360937237/main.o
 .gnu.attributes
                0x00000520       0x10 build/default/production/_ext/1688732426/system_tasks.o
 .gnu.attributes
                0x00000530       0x10 ..\..\..\..\..\microchip\harmony\v1_07\bin\framework\peripheral\PIC32MZ2048ECG064_peripherals.a(plib_eth_lib.o)
 .gnu.attributes
                0x00000540       0x10 c:/program files (x86)/microchip/xc32/v1.43/bin/bin/../../lib/gcc/pic32mx/4.8.3\libgcc.a(_udivdi3.o)
 .gnu.attributes
                0x00000550       0x10 c:/program files (x86)/microchip/xc32/v1.43/bin/bin/../../lib/gcc/pic32mx/4.8.3/../../../../pic32mx/lib\libpic32.a(default-bootstrap-exception-handler.o)
 .gnu.attributes
                0x00000560       0x10 c:/program files (x86)/microchip/xc32/v1.43/bin/bin/../../lib/gcc/pic32mx/4.8.3/../../../../pic32mx/lib\libpic32.a(default-on-reset.o)
 .gnu.attributes
                0x00000570       0x10 c:/program files (x86)/microchip/xc32/v1.43/bin/bin/../../lib/gcc/pic32mx/4.8.3/../../../../pic32mx/lib\libpic32.a(default-on-bootstrap.o)
 .gnu.attributes
                0x00000580       0x10 c:/program files (x86)/microchip/xc32/v1.43/bin/bin/../../lib/gcc/pic32mx/4.8.3/../../../../pic32mx/lib\libpic32.a(defaultinterrupt.o)
 .gnu.attributes
                0x00000590       0x10 c:/program files (x86)/microchip/xc32/v1.43/bin/bin/../../lib/gcc/pic32mx/4.8.3/../../../../pic32mx/lib\libpic32.a(default-cache-err-exception-handler.o)
 .gnu.attributes
                0x000005a0       0x10 c:/program files (x86)/microchip/xc32/v1.43/bin/bin/../../lib/gcc/pic32mx/4.8.3/../../../../pic32mx/lib\libpic32.a(default-simple-tlb-refill-exception-handler.o)
 .gnu.attributes
                0x000005b0       0x10 c:/program files (x86)/microchip/xc32/v1.43/bin/bin/../../lib/gcc/pic32mx/4.8.3/../../../../pic32mx/lib\libc.a(calloc.o)
 .gnu.attributes
                0x000005c0       0x10 c:/program files (x86)/microchip/xc32/v1.43/bin/bin/../../lib/gcc/pic32mx/4.8.3/../../../../pic32mx/lib\libc.a(ctime.o)
 .gnu.attributes
                0x000005d0       0x10 c:/program files (x86)/microchip/xc32/v1.43/bin/bin/../../lib/gcc/pic32mx/4.8.3/../../../../pic32mx/lib\libc.a(ctype.o)
 .gnu.attributes
                0x000005e0       0x10 c:/program files (x86)/microchip/xc32/v1.43/bin/bin/../../lib/gcc/pic32mx/4.8.3/../../../../pic32mx/lib\libc.a(ctypef.o)
 .gnu.attributes
                0x000005f0       0x10 c:/program files (x86)/microchip/xc32/v1.43/bin/bin/../../lib/gcc/pic32mx/4.8.3/../../../../pic32mx/lib\libc.a(malloc.o)
 .gnu.attributes
                0x00000600       0x10 c:/program files (x86)/microchip/xc32/v1.43/bin/bin/../../lib/gcc/pic32mx/4.8.3/../../../../pic32mx/lib\libc.a(memmove.o)
 .gnu.attributes
                0x00000610       0x10 c:/program files (x86)/microchip/xc32/v1.43/bin/bin/../../lib/gcc/pic32mx/4.8.3/../../../../pic32mx/lib\libc.a(rand.o)
 .gnu.attributes
                0x00000620       0x10 c:/program files (x86)/microchip/xc32/v1.43/bin/bin/../../lib/gcc/pic32mx/4.8.3/../../../../pic32mx/lib\libc.a(strncpy.o)
 .gnu.attributes
                0x00000630       0x10 c:/program files (x86)/microchip/xc32/v1.43/bin/bin/../../lib/gcc/pic32mx/4.8.3/../../../../pic32mx/lib\libc.a(strtol.o)
 .gnu.attributes
                0x00000640       0x10 c:/program files (x86)/microchip/xc32/v1.43/bin/bin/../../lib/gcc/pic32mx/4.8.3/../../../../pic32mx/lib\libc.a(time.o)
 .gnu.attributes
                0x00000650       0x10 c:/program files (x86)/microchip/xc32/v1.43/bin/bin/../../lib/gcc/pic32mx/4.8.3/../../../../pic32mx/lib\libc.a(sprintf_cdnopuxX.eo)
 .gnu.attributes
                0x00000660       0x10 c:/program files (x86)/microchip/xc32/v1.43/bin/bin/../../lib/gcc/pic32mx/4.8.3/../../../../pic32mx/lib\libc.a(vsnprintf.o)
 .gnu.attributes
                0x00000670       0x10 c:/program files (x86)/microchip/xc32/v1.43/bin/bin/../../lib/gcc/pic32mx/4.8.3/../../../../pic32mx/lib\libc.a(errno.o)
 .gnu.attributes
                0x00000680       0x10 c:/program files (x86)/microchip/xc32/v1.43/bin/bin/../../lib/gcc/pic32mx/4.8.3/../../../../pic32mx/lib\libc.a(doprnt_cdnopuxX.eo)
 .gnu.attributes
                0x00000690       0x10 c:/program files (x86)/microchip/xc32/v1.43/bin/bin/../../lib/gcc/pic32mx/4.8.3/../../../../pic32mx/lib\libc.a(doprnt.o)
 .gnu.attributes
                0x000006a0       0x10 c:/program files (x86)/microchip/xc32/v1.43/bin/bin/../../lib/gcc/pic32mx/4.8.3/../../../../pic32mx/lib\libc.a(_fputc_simple.o)
 .gnu.attributes
                0x000006b0       0x10 c:/program files (x86)/microchip/xc32/v1.43/bin/bin/../../lib/gcc/pic32mx/4.8.3/../../../../pic32mx/lib\libc.a(ldpowers.o)
 .gnu.attributes
                0x000006c0       0x10 c:/program files (x86)/microchip/xc32/v1.43/bin/bin/../../lib/gcc/pic32mx/4.8.3/../../../../pic32mx/lib\libc.a(_iob.o)
 .gnu.attributes
                0x000006d0       0x10 c:/program files (x86)/microchip/xc32/v1.43/bin/bin/../../lib/gcc/pic32mx/4.8.3/../../../../pic32mx/lib\libc.a(_flsbuf_simple.o)
 .gnu.attributes
                0x000006e0       0x10 c:/program files (x86)/microchip/xc32/v1.43/bin/bin/../../lib/gcc/pic32mx/4.8.3/../../../../pic32mx/lib\libe.a(_fixunsdfdi.o)
 .gnu.attributes
                0x000006f0       0x10 c:/program files (x86)/microchip/xc32/v1.43/bin/bin/../../lib/gcc/pic32mx/4.8.3/../../../../pic32mx/lib\libe.a(_orderdf2.o)
 .gnu.attributes
                0x00000700       0x10 c:/program files (x86)/microchip/xc32/v1.43/bin/bin/../../lib/gcc/pic32mx/4.8.3/../../../../pic32mx/lib\libe.a(_fixdfdi.o)
 .gnu.attributes
                0x00000710       0x10 c:/program files (x86)/microchip/xc32/v1.43/bin/bin/../../lib/gcc/pic32mx/4.8.3\libgcc.a(_umoddi3.o)
 .gnu.attributes
                0x00000720       0x10 c:/program files (x86)/microchip/xc32/v1.43/bin/bin/../../lib/gcc/pic32mx/4.8.3\libgcc.a(floatunsidf.o)
 .gnu.attributes
                0x00000730       0x10 c:/program files (x86)/microchip/xc32/v1.43/bin/bin/../../lib/gcc/pic32mx/4.8.3/../../../../pic32mx/lib\libpic32.a(sbrk.o)
 .gnu.attributes
                0x00000740       0x10 c:/program files (x86)/microchip/xc32/v1.43/bin/bin/../../lib/gcc/pic32mx/4.8.3/../../../../pic32mx/lib\libpic32.a(write.o)
 .gnu.attributes
                0x00000750       0x10 c:/program files (x86)/microchip/xc32/v1.43/bin/bin/../../lib/gcc/pic32mx/4.8.3/../../../../pic32mx/lib\libpic32.a(_mon_putc.o)
 .gnu.attributes
                0x00000760       0x10 c:/program files (x86)/microchip/xc32/v1.43/bin/bin/../../lib/gcc/pic32mx/4.8.3/../../../../pic32mx/lib\libpic32.a(xc32_uart.o)
                0x9d000000                PROVIDE (__pic32_init_cache_program_base_addr, 0x9d000000)
                0x80000000                PROVIDE (__pic32_init_cache_data_base_addr, 0x80000000)
                0xd0000000                PROVIDE (__pic32_init_sqi_kseg2_virtual_base_addr, 0xd0000000)
                0x30000000                PROVIDE (__pic32_init_sqi_kseg2_physical_base_addr, 0x30000000)
                0x0000001f                PROVIDE (__pic32_init_sqi_kseg2_entrylo0_bitset, 0x1f)
                0xd0000000                __pic32_tlb_0_entryhi = __pic32_init_sqi_kseg2_virtual_base_addr
                0x00c0001f                __pic32_tlb_0_entrylo0 = ((__pic32_init_sqi_kseg2_physical_base_addr >> 0x6) | __pic32_init_sqi_kseg2_entrylo0_bitset)
                0x00c4001f                __pic32_tlb_0_entrylo1 = (__pic32_tlb_0_entrylo0 | ((__pic32_init_sqi_kseg2_physical_base_addr + 0x1000000) >> 0x6))
                0xd2000000                __pic32_tlb_1_entryhi = (__pic32_init_sqi_kseg2_virtual_base_addr + 0x2000000)
                0x00c8001f                __pic32_tlb_1_entrylo0 = (((__pic32_init_sqi_kseg2_physical_base_addr + 0x2000000) >> 0x6) | __pic32_init_sqi_kseg2_entrylo0_bitset)
                0x00cc001f                __pic32_tlb_1_entrylo1 = (__pic32_tlb_1_entrylo0 | 0x40000)
                0xf0000000                PROVIDE (__pic32_init_sqi_kseg3_virtual_base_addr, 0xf0000000)
                0x30000000                PROVIDE (__pic32_init_sqi_kseg3_physical_base_addr, 0x30000000)
                0x00000017                PROVIDE (__pic32_init_sqi_kseg3_entrylo0_bitset, 0x17)
                0xf0000000                __pic32_tlb_2_entryhi = __pic32_init_sqi_kseg3_virtual_base_addr
                0x00c00017                __pic32_tlb_2_entrylo0 = ((__pic32_init_sqi_kseg3_physical_base_addr >> 0x6) | __pic32_init_sqi_kseg3_entrylo0_bitset)
                0x00c40017                __pic32_tlb_2_entrylo1 = (__pic32_tlb_2_entrylo0 | ((__pic32_init_sqi_kseg3_physical_base_addr + 0x1000000) >> 0x6))
                0xf2000000                __pic32_tlb_3_entryhi = (__pic32_init_sqi_kseg3_virtual_base_addr + 0x2000000)
                0x00c80017                __pic32_tlb_3_entrylo0 = (((__pic32_init_sqi_kseg3_physical_base_addr + 0x2000000) >> 0x6) | __pic32_init_sqi_kseg3_entrylo0_bitset)
                0x00cc0017                __pic32_tlb_3_entrylo1 = (__pic32_tlb_3_entrylo0 | 0x40000)

.tlb_init_values
                0xbfc0064c       0x30
                0xbfc0064c                . = ALIGN (0x4)
                0xbfc0064c                __pic32_tlb_init_values_begin = ABSOLUTE (.)
                0xbfc0064c        0x4 LONG 0xd0000000 __pic32_tlb_0_entryhi
                0xbfc00650        0x4 LONG 0xc0001f __pic32_tlb_0_entrylo0
                0xbfc00654        0x4 LONG 0xc4001f __pic32_tlb_0_entrylo1
                0xbfc00658        0x4 LONG 0xd2000000 __pic32_tlb_1_entryhi
                0xbfc0065c        0x4 LONG 0xc8001f __pic32_tlb_1_entrylo0
                0xbfc00660        0x4 LONG 0xcc001f __pic32_tlb_1_entrylo1
                0xbfc00664        0x4 LONG 0xf0000000 __pic32_tlb_2_entryhi
                0xbfc00668        0x4 LONG 0xc00017 __pic32_tlb_2_entrylo0
                0xbfc0066c        0x4 LONG 0xc40017 __pic32_tlb_2_entrylo1
                0xbfc00670        0x4 LONG 0xf2000000 __pic32_tlb_3_entryhi
                0xbfc00674        0x4 LONG 0xc80017 __pic32_tlb_3_entrylo0
                0xbfc00678        0x4 LONG 0xcc0017 __pic32_tlb_3_entrylo1
                0xbfc0067c                __pic32_tlb_init_values_end = ABSOLUTE (.)
                0x00000004                __pic32_tlb_init_values_count = 0x4
LOAD c:/program files (x86)/microchip/xc32/v1.43/bin/bin/../../lib/gcc/pic32mx/4.8.3\libgcc.a
START GROUP
LOAD c:/program files (x86)/microchip/xc32/v1.43/bin/bin/../../lib/gcc/pic32mx/4.8.3/../../../../pic32mx/lib\libpic32.a
LOAD c:/program files (x86)/microchip/xc32/v1.43/bin/bin/../../lib/gcc/pic32mx/4.8.3/../../../../pic32mx/lib\libdebug.a
LOAD c:/program files (x86)/microchip/xc32/v1.43/bin/bin/../../lib/gcc/pic32mx/4.8.3/../../../../pic32mx/lib\libpic32.a
LOAD c:/program files (x86)/microchip/xc32/v1.43/bin/bin/../../lib/gcc/pic32mx/4.8.3/../../../../pic32mx/lib\libc.a
LOAD c:/program files (x86)/microchip/xc32/v1.43/bin/bin/../../lib/gcc/pic32mx/4.8.3/../../../../pic32mx/lib\libc.a
LOAD c:/program files (x86)/microchip/xc32/v1.43/bin/bin/../../lib/gcc/pic32mx/4.8.3/../../../../pic32mx/lib\libm.a
LOAD c:/program files (x86)/microchip/xc32/v1.43/bin/bin/../../lib/gcc/pic32mx/4.8.3/../../../../pic32mx/lib\libe.a
LOAD c:/program files (x86)/microchip/xc32/v1.43/bin/bin/../../lib/gcc/pic32mx/4.8.3/../../../../pic32mx/lib\libdspr2.a
LOAD c:/program files (x86)/microchip/xc32/v1.43/bin/bin/../../lib/gcc/pic32mx/4.8.3/../../../../pic32mx/lib\libdsp.a
LOAD c:/program files (x86)/microchip/xc32/v1.43/bin/bin/../../lib/gcc/pic32mx/4.8.3\libgcc.a
LOAD c:/program files (x86)/microchip/xc32/v1.43/bin/bin/../../lib/gcc/pic32mx/4.8.3/../../../../pic32mx/lib\libpic32.a
END GROUP
LOAD c:/program files (x86)/microchip/xc32/v1.43/bin/bin/../../lib/gcc/pic32mx/4.8.3\libgcc.a
OUTPUT(dist/default/production/Gest.X.production.elf elf32-tradlittlemips)
LOAD stack
LOAD data_init

.reginfo        0x00000000       0x18
 .reginfo       0x00000000       0x18 c:/program files (x86)/microchip/xc32/v1.43/bin/bin/../../lib/gcc/pic32mx/4.8.3/../../../../pic32mx/lib/./proc/32MZ2048ECG064/crt0_mips32r2.o

.stack          0x80011900      0x400
 .stack         0x80011900      0x400 stack

.__vector_offset_BF810540_data
                0xbf810540       0xb4
 .__vector_offset_BF810540_data
                0xbf810540       0xb4 c:/program files (x86)/microchip/xc32/v1.43/bin/bin/../../lib/gcc/pic32mx/4.8.3/../../../../pic32mx/lib/./proc/32MZ2048ECG064\vector_offset_init.o

.__vector_offset_BF8107A4_data
                0xbf8107a4       0x5c
 .__vector_offset_BF8107A4_data
                0xbf8107a4       0x5c c:/program files (x86)/microchip/xc32/v1.43/bin/bin/../../lib/gcc/pic32mx/4.8.3/../../../../pic32mx/lib/./proc/32MZ2048ECG064\vector_offset_init.o

.__vector_offset_BF810740_data
                0xbf810740       0x50
 .__vector_offset_BF810740_data
                0xbf810740       0x50 c:/program files (x86)/microchip/xc32/v1.43/bin/bin/../../lib/gcc/pic32mx/4.8.3/../../../../pic32mx/lib/./proc/32MZ2048ECG064\vector_offset_init.o

.__vector_offset_BF81062C_data
                0xbf81062c       0x4c
 .__vector_offset_BF81062C_data
                0xbf81062c       0x4c c:/program files (x86)/microchip/xc32/v1.43/bin/bin/../../lib/gcc/pic32mx/4.8.3/../../../../pic32mx/lib/./proc/32MZ2048ECG064\vector_offset_init.o

.__vector_offset_BF8105F8_data
                0xbf8105f8       0x30
 .__vector_offset_BF8105F8_data
                0xbf8105f8       0x30 c:/program files (x86)/microchip/xc32/v1.43/bin/bin/../../lib/gcc/pic32mx/4.8.3/../../../../pic32mx/lib/./proc/32MZ2048ECG064\vector_offset_init.o

.__vector_offset_BF8106F4_data
                0xbf8106f4       0x24
 .__vector_offset_BF8106F4_data
                0xbf8106f4       0x24 c:/program files (x86)/microchip/xc32/v1.43/bin/bin/../../lib/gcc/pic32mx/4.8.3/../../../../pic32mx/lib/./proc/32MZ2048ECG064\vector_offset_init.o

.__vector_offset_BF81071C_data
                0xbf81071c       0x18
 .__vector_offset_BF81071C_data
                0xbf81071c       0x18 c:/program files (x86)/microchip/xc32/v1.43/bin/bin/../../lib/gcc/pic32mx/4.8.3/../../../../pic32mx/lib/./proc/32MZ2048ECG064\vector_offset_init.o

.__vector_offset_BF81080C_data
                0xbf81080c       0x18
 .__vector_offset_BF81080C_data
                0xbf81080c       0x18 c:/program files (x86)/microchip/xc32/v1.43/bin/bin/../../lib/gcc/pic32mx/4.8.3/../../../../pic32mx/lib/./proc/32MZ2048ECG064\vector_offset_init.o

.__vector_offset_BF8106D8_data
                0xbf8106d8       0x14
 .__vector_offset_BF8106D8_data
                0xbf8106d8       0x14 c:/program files (x86)/microchip/xc32/v1.43/bin/bin/../../lib/gcc/pic32mx/4.8.3/../../../../pic32mx/lib/./proc/32MZ2048ECG064\vector_offset_init.o

.__vector_offset_BF810830_data
                0xbf810830        0xc
 .__vector_offset_BF810830_data
                0xbf810830        0xc c:/program files (x86)/microchip/xc32/v1.43/bin/bin/../../lib/gcc/pic32mx/4.8.3/../../../../pic32mx/lib/./proc/32MZ2048ECG064\vector_offset_init.o

.COHERENTBSS$   0xa0000c30      0x480
 .COHERENTBSS$  0xa0000c30      0x400 build/default/production/_ext/1333902316/sys_command.o
 .bss.readBuff.readBuff
                0xa0001030       0x80 build/default/production/_ext/1333902316/sys_command.o

.bss            0x800010b0      0x2d4
 .bss           0x800010b0      0x2d4 build/default/production/_ext/1406599153/tcpip_manager.o

.data           0x80001390      0x140
 .data          0x80001390      0x140 build/default/production/_ext/508588874/drv_ethmac.o

.bss            0x800014d0      0x128
 .bss           0x800014d0      0x128 build/default/production/_ext/1333902316/sys_command.o

.data           0x800015f8       0xb4
 .data          0x800015f8       0xb4 build/default/production/_ext/877190136/sys_console_uart.o
                0x800015f8                consUartData
                0x80001660                readQueue
                0x80001674                writeQueue
                0x80001688                consUsartDevDesc

.bss            0x800016ac       0xd4
 .bss           0x800016ac       0x90 build/default/production/_ext/837595974/sys_tmr.o
 .bss           0x8000173c       0x44 build/default/production/_ext/1406599153/arp.o

.bss            0x80001780       0x80
 .bss           0x80001780       0x44 c:/program files (x86)/microchip/xc32/v1.43/bin/bin/../../lib/gcc/pic32mx/4.8.3/../../../../pic32mx/lib\libc.a(_iob.o)
                0x80001780                _sobuf
                0x800017a0                _sibuf
                0x800017c0                _outdone
 .bss           0x800017c4       0x3c build/default/production/_ext/1895062557/drv_tmr.o

.bss            0x80001800       0x4c
 .bss           0x80001800       0x28 build/default/production/_ext/1406599153/dns.o
 .bss           0x80001828       0x24 c:/program files (x86)/microchip/xc32/v1.43/bin/bin/../../lib/gcc/pic32mx/4.8.3/../../../../pic32mx/lib\libpic32.a(sbrk.o)
                0x80001844                _maxbrk
                0x80001848                _minbrk

.bss            0x8000184c       0x40
 .bss           0x8000184c       0x20 build/default/production/_ext/1406599153/ipv4.o
 .bss           0x8000186c       0x20 c:/program files (x86)/microchip/xc32/v1.43/bin/bin/../../lib/gcc/pic32mx/4.8.3/../../../../pic32mx/lib\libc.a(malloc.o)
                0x8000186c                __allocx
                0x80001874                __alloct
                0x80001878                __allocp
                0x8000187c                __allocs

.data           0x8000188c       0x1c
 .data          0x8000188c       0x1c build/default/production/_ext/1688732426/system_init.o
                0x8000188c                tcpipHeapConfig

.bss            0x800018a8       0x28
 .bss           0x800018a8       0x18 build/default/production/_ext/1457815988/sys_random.o
 .bss           0x800018c0       0x10 build/default/production/_ext/1406599153/dhcp.o

.bss            0x800018d0       0x10
 .bss           0x800018d0       0x10 c:/program files (x86)/microchip/xc32/v1.43/bin/bin/../../lib/gcc/pic32mx/4.8.3/../../../../pic32mx/lib\libc.a(rand.o)

.bss            0x80000c24        0xc
 .bss           0x80000c24        0xc build/default/production/_ext/877190136/sys_console.o

.bss            0x80001384        0xc
 .bss           0x80001384        0xc build/default/production/_ext/1688732426/system_init.o
                0x80001384                debugInit

.bss.errno      0x800018e0        0x4
 .bss.errno     0x800018e0        0x4 c:/program files (x86)/microchip/xc32/v1.43/bin/bin/../../lib/gcc/pic32mx/4.8.3/../../../../pic32mx/lib\libc.a(errno.o)
                0x800018e0                errno

._debug_exception
                0xbfc00480       0x2c
 ._debug_exception
                0xbfc00480       0x2c c:/program files (x86)/microchip/xc32/v1.43/bin/bin/../../lib/gcc/pic32mx/4.8.3/../../../../pic32mx/lib\debug-exception-return.o
                0xbfc00480                __DbgExecReturn

.text.vfprintf  0x9d000288     0x1c64
 .text.vfprintf
                0x9d000288     0x1c64 c:/program files (x86)/microchip/xc32/v1.43/bin/bin/../../lib/gcc/pic32mx/4.8.3/../../../../pic32mx/lib\libc.a(doprnt.o)
                0x9d000288                vfprintf

.text.TCPIP_TCP_Task
                0x9d001eec     0x14c8
 .text.TCPIP_TCP_Task
                0x9d001eec     0x14c8 build/default/production/_ext/1406599153/tcp.o
                0x9d001eec                TCPIP_TCP_Task

.text._DRV_USART_HardwareSetup
                0x9d0033b4     0x1160
 .text._DRV_USART_HardwareSetup
                0x9d0033b4     0x1160 build/default/production/_ext/1601094287/drv_usart.o
                0x9d0033b4                _DRV_USART_HardwareSetup

.text._vfprintf_cdnopuxX
                0x9d004514      0xc8c
 .text._vfprintf_cdnopuxX
                0x9d004514      0xc8c c:/program files (x86)/microchip/xc32/v1.43/bin/bin/../../lib/gcc/pic32mx/4.8.3/../../../../pic32mx/lib\libc.a(doprnt_cdnopuxX.eo)
                0x9d004514                _vfprintf_cdnopuxX

.text.TCPIP_STACK_Task
                0x9d0051a0      0x8d0
 .text.TCPIP_STACK_Task
                0x9d0051a0      0x8d0 build/default/production/_ext/1406599153/tcpip_manager.o
                0x9d0051a0                TCPIP_STACK_Task

.text.TCPIP_DHCP_Task
                0x9d005a70      0x870
 .text.TCPIP_DHCP_Task
                0x9d005a70      0x870 build/default/production/_ext/1406599153/dhcp.o
                0x9d005a70                TCPIP_DHCP_Task

.text._TcpSend  0x9d0062e0      0x824
 .text._TcpSend
                0x9d0062e0      0x824 build/default/production/_ext/1406599153/tcp.o

.dinit          0x9d006b04      0x7d0
 .dinit         0x9d006b04      0x7d0 data_init

.text._DRV_USART_BufferQueueTxTasks
                0x9d0072d4      0x530
 .text._DRV_USART_BufferQueueTxTasks
                0x9d0072d4      0x530 build/default/production/_ext/1601094287/drv_usart.o
                0x9d0072d4                _DRV_USART_BufferQueueTxTasks

.text.DRV_ETHMAC_PIC32MACInitialize
                0x9d007804      0x50c
 .text.DRV_ETHMAC_PIC32MACInitialize
                0x9d007804      0x50c build/default/production/_ext/508588874/drv_ethmac.o
                0x9d007804                DRV_ETHMAC_PIC32MACInitialize

.text.SYS_CMD_Tasks
                0x9d007d10      0x4f0
 .text.SYS_CMD_Tasks
                0x9d007d10      0x4f0 build/default/production/_ext/1333902316/sys_command.o
                0x9d007d10                SYS_CMD_Tasks

.text.dp32mul   0x9d008200      0x4b8
 .text.dp32mul  0x9d008200      0x4b8 c:/program files (x86)/microchip/xc32/v1.43/bin/bin/../../lib/gcc/pic32mx/4.8.3/../../../../pic32mx/lib\libm.a(dp32div.o)
                0x9d008200                dpdiv
                0x9d008200                __divdf3

.text.DRV_USART_BaudSet
                0x9d0086b8      0x4a0
 .text.DRV_USART_BaudSet
                0x9d0086b8      0x4a0 build/default/production/_ext/1601094287/drv_usart.o
                0x9d0086b8                DRV_USART_BaudSet

.text.TCPIP_ARP_Task
                0x9d008b58      0x464
 .text.TCPIP_ARP_Task
                0x9d008b58      0x464 build/default/production/_ext/1406599153/arp.o
                0x9d008b58                TCPIP_ARP_Task

.text           0x9d008fbc      0x464
 .text          0x9d008fbc      0x464 c:/program files (x86)/microchip/xc32/v1.43/bin/bin/../../lib/gcc/pic32mx/4.8.3\libgcc.a(_umoddi3.o)
                0x9d008fbc                __umoddi3

.rodata         0x9d009420      0x45c
 .rodata        0x9d009420      0x45c build/default/production/_ext/1406599153/tcpip_manager.o

.text           0x9d00987c      0x458
 .text          0x9d00987c      0x458 c:/program files (x86)/microchip/xc32/v1.43/bin/bin/../../lib/gcc/pic32mx/4.8.3\libgcc.a(_udivdi3.o)
                0x9d00987c                __udivdi3

.text.dp32subadd
                0x9d009cd4      0x430
 .text.dp32subadd
                0x9d009cd4      0x430 c:/program files (x86)/microchip/xc32/v1.43/bin/bin/../../lib/gcc/pic32mx/4.8.3/../../../../pic32mx/lib\libm.a(dp32subadd.o)
                0x9d009cd4                dpsub
                0x9d009cd4                __subdf3
                0x9d009cdc                __adddf3
                0x9d009cdc                dpadd

.text.TCPIP_STACK_Initialize
                0x9d00a104      0x408
 .text.TCPIP_STACK_Initialize
                0x9d00a104      0x408 build/default/production/_ext/1406599153/tcpip_manager.o
                0x9d00a104                TCPIP_STACK_Initialize

.text.DRV_USART_Read
                0x9d00a50c      0x3f8
 .text.DRV_USART_Read
                0x9d00a50c      0x3f8 build/default/production/_ext/1601094287/drv_usart_read_write.o
                0x9d00a50c                DRV_USART_Read

.rodata         0x9d00a904      0x3d8
 .rodata        0x9d00a904      0x3d8 build/default/production/_ext/1046770110/asn.o

.text._DNS_Send_Query
                0x9d00acdc      0x3bc
 .text._DNS_Send_Query
                0x9d00acdc      0x3bc build/default/production/_ext/1406599153/dns.o

.text.Console_UART_Tasks
                0x9d00b098      0x388
 .text.Console_UART_Tasks
                0x9d00b098      0x388 build/default/production/_ext/877190136/sys_console_uart.o
                0x9d00b098                Console_UART_Tasks

.text.DRV_USART_Initialize
                0x9d00b420      0x384
 .text.DRV_USART_Initialize
                0x9d00b420      0x384 build/default/production/_ext/1601094287/drv_usart.o
                0x9d00b420                DRV_USART_Initialize

.text.TCPIP_STACK_BringNetUp
                0x9d00b7a4      0x380
 .text.TCPIP_STACK_BringNetUp
                0x9d00b7a4      0x380 build/default/production/_ext/1406599153/tcpip_manager.o

.text.TCPIP_DNS_ClientInitialize
                0x9d00bb24      0x37c
 .text.TCPIP_DNS_ClientInitialize
                0x9d00bb24      0x37c build/default/production/_ext/1406599153/dns.o
                0x9d00bb24                TCPIP_DNS_ClientInitialize

.text.TCPIP_ARP_Initialize
                0x9d00bea0      0x36c
 .text.TCPIP_ARP_Initialize
                0x9d00bea0      0x36c build/default/production/_ext/1406599153/arp.o
                0x9d00bea0                TCPIP_ARP_Initialize

.text.TCPIP_ANNOUNCE_Task
                0x9d00c20c      0x340
 .text.TCPIP_ANNOUNCE_Task
                0x9d00c20c      0x340 build/default/production/_ext/1406599153/tcpip_announce.o
                0x9d00c20c                TCPIP_ANNOUNCE_Task

.text.DRV_USART_BufferAddWrite
                0x9d00c54c      0x334
 .text.DRV_USART_BufferAddWrite
                0x9d00c54c      0x334 build/default/production/_ext/1601094287/drv_usart_buffer_queue.o
                0x9d00c54c                DRV_USART_BufferAddWrite

.text.TCPIP_NBNS_Task
                0x9d00c880      0x330
 .text.TCPIP_NBNS_Task
                0x9d00c880      0x330 build/default/production/_ext/1406599153/nbns.o
                0x9d00c880                TCPIP_NBNS_Task

.text.dp32mul   0x9d00cbb0      0x32c
 .text.dp32mul  0x9d00cbb0      0x32c c:/program files (x86)/microchip/xc32/v1.43/bin/bin/../../lib/gcc/pic32mx/4.8.3/../../../../pic32mx/lib\libm.a(dp32mul.o)
                0x9d00cbb0                __muldf3
                0x9d00cbb0                dpmul

.text.ParseCmdBuffer
                0x9d00cedc      0x30c
 .text.ParseCmdBuffer
                0x9d00cedc      0x30c build/default/production/_ext/1333902316/sys_command.o

.text._DRV_TMR_ClockSourceSet
                0x9d00d1e8      0x308
 .text._DRV_TMR_ClockSourceSet
                0x9d00d1e8      0x308 build/default/production/_ext/1895062557/drv_tmr.o

.text.SYS_TMR_Tasks
                0x9d00d4f0      0x304
 .text.SYS_TMR_Tasks
                0x9d00d4f0      0x304 build/default/production/_ext/837595974/sys_tmr.o
                0x9d00d4f0                SYS_TMR_Tasks

.text.TCPIP_UDP_Task
                0x9d00d7f4      0x304
 .text.TCPIP_UDP_Task
                0x9d00d7f4      0x304 build/default/production/_ext/1406599153/udp.o
                0x9d00d7f4                TCPIP_UDP_Task

.text.TCPIP_IPV4_PacketTransmit
                0x9d00daf8      0x2fc
 .text.TCPIP_IPV4_PacketTransmit
                0x9d00daf8      0x2fc build/default/production/_ext/1406599153/ipv4.o
                0x9d00daf8                TCPIP_IPV4_PacketTransmit

.text._DHCPSend
                0x9d00ddf4      0x2ec
 .text._DHCPSend
                0x9d00ddf4      0x2ec build/default/production/_ext/1406599153/dhcp.o

.text._DNS_ProcessPacket
                0x9d00e0e0      0x2e0
 .text._DNS_ProcessPacket
                0x9d00e0e0      0x2e0 build/default/production/_ext/1406599153/dns.o

.text.CommandHelp
                0x9d00e3c0      0x2dc
 .text.CommandHelp
                0x9d00e3c0      0x2dc build/default/production/_ext/1333902316/sys_command.o

.text.DRV_USART_LineControlSet
                0x9d00e69c      0x2bc
 .text.DRV_USART_LineControlSet
                0x9d00e69c      0x2bc build/default/production/_ext/1601094287/drv_usart.o
                0x9d00e69c                DRV_USART_LineControlSet

.text.DRV_TMR_Initialize
                0x9d00e958      0x2b4
 .text.DRV_TMR_Initialize
                0x9d00e958      0x2b4 build/default/production/_ext/1895062557/drv_tmr.o
                0x9d00e958                DRV_TMR_Initialize

.text.TCPIP_UDP_Flush
                0x9d00ec0c      0x2a4
 .text.TCPIP_UDP_Flush
                0x9d00ec0c      0x2a4 build/default/production/_ext/1406599153/udp.o
                0x9d00ec0c                TCPIP_UDP_Flush

.text.DRV_TMR_AlarmRegister
                0x9d00eeb0      0x294
 .text.DRV_TMR_AlarmRegister
                0x9d00eeb0      0x294 build/default/production/_ext/1895062557/drv_tmr.o
                0x9d00eeb0                DRV_TMR_AlarmRegister

.text.malloc    0x9d00f144      0x28c
 .text.malloc   0x9d00f144      0x28c c:/program files (x86)/microchip/xc32/v1.43/bin/bin/../../lib/gcc/pic32mx/4.8.3/../../../../pic32mx/lib\libc.a(malloc.o)
                0x9d00f144                malloc

.text._DRV_PHY_SMITransferDo
                0x9d00f3d0      0x288
 .text._DRV_PHY_SMITransferDo
                0x9d00f3d0      0x288 build/default/production/_ext/1684742680/drv_ethphy.o

.text._DRV_USART_BufferQueueRxTasks
                0x9d00f658      0x27c
 .text._DRV_USART_BufferQueueRxTasks
                0x9d00f658      0x27c build/default/production/_ext/1601094287/drv_usart.o
                0x9d00f658                _DRV_USART_BufferQueueRxTasks

.text.DRV_USART_BufferAddRead
                0x9d00f8d4      0x26c
 .text.DRV_USART_BufferAddRead
                0x9d00f8d4      0x26c build/default/production/_ext/1601094287/drv_usart_buffer_queue.o
                0x9d00f8d4                DRV_USART_BufferAddRead

.rodata         0x9d00fb40      0x264
 .rodata        0x9d00fb40      0x264 build/default/production/_ext/1333902316/sys_command.o
                0x9d00fd7c                sysConsoleApi

.text           0x9d00fda4      0x25c
 .text          0x9d00fda4      0x25c build/default/production/_ext/1406599153/tcpip_helper_c32.o
                0x9d00fda4                TCPIP_Helper_htonl
                0x9d00fdb0                TCPIP_Helper_htons
                0x9d00fdbc                TCPIP_Helper_htonll
                0x9d00fdd0                TCPIP_Helper_CalcIPChecksum

.text._DHCPReceive
                0x9d010000      0x254
 .text._DHCPReceive
                0x9d010000      0x254 build/default/production/_ext/1406599153/dhcp.o

.text.DRV_TMR_CounterFrequencyGet
                0x9d010254      0x250
 .text.DRV_TMR_CounterFrequencyGet
                0x9d010254      0x250 build/default/production/_ext/1895062557/drv_tmr.o
                0x9d010254                DRV_TMR_CounterFrequencyGet

.text.DRV_ETHMAC_LibRxBuffersAppend
                0x9d0104a4      0x24c
 .text.DRV_ETHMAC_LibRxBuffersAppend
                0x9d0104a4      0x24c build/default/production/_ext/508588874/drv_ethmac_lib.o
                0x9d0104a4                DRV_ETHMAC_LibRxBuffersAppend

.text.DRV_ETHMAC_PIC32MACPacketRx
                0x9d0106f0      0x244
 .text.DRV_ETHMAC_PIC32MACPacketRx
                0x9d0106f0      0x244 build/default/production/_ext/508588874/drv_ethmac.o
                0x9d0106f0                DRV_ETHMAC_PIC32MACPacketRx

.text.scale     0x9d010934      0x23c
 .text.scale    0x9d010934      0x23c c:/program files (x86)/microchip/xc32/v1.43/bin/bin/../../lib/gcc/pic32mx/4.8.3/../../../../pic32mx/lib\libc.a(doprnt.o)

.text._DHCPOptionHostName
                0x9d010b70      0x234
 .text._DHCPOptionHostName
                0x9d010b70      0x234 build/default/production/_ext/1406599153/dhcp.o

.text.TCPIP_IPV4_Task
                0x9d010da4      0x228
 .text.TCPIP_IPV4_Task
                0x9d010da4      0x228 build/default/production/_ext/1406599153/ipv4.o
                0x9d010da4                TCPIP_IPV4_Task

.text._UDPOpen  0x9d010fcc      0x224
 .text._UDPOpen
                0x9d010fcc      0x224 build/default/production/_ext/1406599153/udp.o

.rodata         0x9d0111f0      0x434
 .rodata        0x9d0111f0      0x21c build/default/production/_ext/1688732426/system_init.o
                0x9d0111f0                TCPIP_STACK_MODULE_CONFIG_TBL
                0x9d011298                TCPIP_HOSTS_CONFIGURATION
                0x9d0112d0                tcpipDNSClientInitData
                0x9d0112e8                tcpipMACPIC32INTInitData
                0x9d01130c                tcpipNBNSInitData
                0x9d01130c                tcpipDHCPInitData
                0x9d01131c                tcpipTCPInitData
                0x9d011324                tcpipUDPInitData
                0x9d01132c                tcpipAnnounceInitData
                0x9d01132c                tcpipARPInitData
                0x9d011354                sysTmrInitData
                0x9d01135c                sysDevconInit
                0x9d011360                drvUsart1InitData
                0x9d0113a8                drvUsart0InitData
                0x9d0113f0                drvTmr0InitData
 .rodata        0x9d01140c      0x218 build/default/production/_ext/1601094287/drv_usart.o

.text._DRV_TMR_ClockPrescaleSet
                0x9d011624      0x214
 .text._DRV_TMR_ClockPrescaleSet
                0x9d011624      0x214 build/default/production/_ext/1895062557/drv_tmr.o

.text._TCPIP_HEAP_Free
                0x9d011838      0x210
 .text._TCPIP_HEAP_Free
                0x9d011838      0x210 build/default/production/_ext/1406599153/tcpip_heap_internal.o

.text.SYS_Initialize
                0x9d011a48      0x20c
 .text.SYS_Initialize
                0x9d011a48      0x20c build/default/production/_ext/1688732426/system_init.o
                0x9d011a48                SYS_Initialize

.text._LoadNetworkConfig
                0x9d011c54      0x1e8
 .text._LoadNetworkConfig
                0x9d011c54      0x1e8 build/default/production/_ext/1406599153/tcpip_manager.o

.text.DRV_USART_TasksError
                0x9d011e3c      0x1e4
 .text.DRV_USART_TasksError
                0x9d011e3c      0x1e4 build/default/production/_ext/1601094287/drv_usart.o
                0x9d011e3c                DRV_USART_TasksError

.text.TCPIP_UDP_Bind
                0x9d012020      0x1dc
 .text.TCPIP_UDP_Bind
                0x9d012020      0x1dc build/default/production/_ext/1406599153/udp.o
                0x9d012020                TCPIP_UDP_Bind

.text._DNS_RESPONSE_HashEntryUpdate
                0x9d0121fc      0x1d8
 .text._DNS_RESPONSE_HashEntryUpdate
                0x9d0121fc      0x1d8 build/default/production/_ext/1406599153/dns.o

.text.DRV_ETHMAC_PIC32MACPacketTx
                0x9d0123d4      0x1d4
 .text.DRV_ETHMAC_PIC32MACPacketTx
                0x9d0123d4      0x1d4 build/default/production/_ext/508588874/drv_ethmac.o
                0x9d0123d4                DRV_ETHMAC_PIC32MACPacketTx

.text.DRV_TMR_CounterValueGet
                0x9d0125a8      0x1d4
 .text.DRV_TMR_CounterValueGet
                0x9d0125a8      0x1d4 build/default/production/_ext/1895062557/drv_tmr.o
                0x9d0125a8                DRV_TMR_CounterValueGet

.text.TCPIP_DNS_ClientTask
                0x9d01277c      0x1d4
 .text.TCPIP_DNS_ClientTask
                0x9d01277c      0x1d4 build/default/production/_ext/1406599153/dns.o
                0x9d01277c                TCPIP_DNS_ClientTask

.text.TCPIP_Helper_StringToIPAddress
                0x9d012950      0x1cc
 .text.TCPIP_Helper_StringToIPAddress
                0x9d012950      0x1cc build/default/production/_ext/1406599153/tcpip_helpers.o
                0x9d012950                TCPIP_Helper_StringToIPAddress

.text.fround    0x9d012b1c      0x1cc
 .text.fround   0x9d012b1c      0x1cc c:/program files (x86)/microchip/xc32/v1.43/bin/bin/../../lib/gcc/pic32mx/4.8.3/../../../../pic32mx/lib\libc.a(doprnt.o)

.text.TCPIP_ARP_EntryRemoveNet
                0x9d012ce8      0x1c8
 .text.TCPIP_ARP_EntryRemoveNet
                0x9d012ce8      0x1c8 build/default/production/_ext/1406599153/arp.o
                0x9d012ce8                TCPIP_ARP_EntryRemoveNet

.text.DRV_ETHMAC_LibRxAcknowledgeBuffer
                0x9d012eb0      0x1c4
 .text.DRV_ETHMAC_LibRxAcknowledgeBuffer
                0x9d012eb0      0x1c4 build/default/production/_ext/508588874/drv_ethmac_lib.o
                0x9d012eb0                DRV_ETHMAC_LibRxAcknowledgeBuffer

.text._EthAckPacket
                0x9d013074      0x1bc
 .text._EthAckPacket
                0x9d013074      0x1bc build/default/production/_ext/508588874/drv_ethmac_lib.o

.text._DRV_ETHPHY_SetupPhaseDetect
                0x9d013230      0x1b8
 .text._DRV_ETHPHY_SetupPhaseDetect
                0x9d013230      0x1b8 build/default/production/_ext/1684742680/drv_ethphy.o

.text.DRV_ETHMAC_LibInit
                0x9d0133e8      0x1b4
 .text.DRV_ETHMAC_LibInit
                0x9d0133e8      0x1b4 build/default/production/_ext/508588874/drv_ethmac_lib.o
                0x9d0133e8                DRV_ETHMAC_LibInit

.text.TCPIP_HEAP_CreateInternal
                0x9d01359c      0x1b0
 .text.TCPIP_HEAP_CreateInternal
                0x9d01359c      0x1b0 build/default/production/_ext/1406599153/tcpip_heap_internal.o
                0x9d01359c                TCPIP_HEAP_CreateInternal

.text.DRV_USART_Open
                0x9d01374c      0x1ac
 .text.DRV_USART_Open
                0x9d01374c      0x1ac build/default/production/_ext/1601094287/drv_usart.o
                0x9d01374c                DRV_USART_Open

.text.TCPIP_UDP_ArrayGet
                0x9d0138f8      0x1ac
 .text.TCPIP_UDP_ArrayGet
                0x9d0138f8      0x1ac build/default/production/_ext/1406599153/udp.o
                0x9d0138f8                TCPIP_UDP_ArrayGet

.text._DRV_ETHMAC_AddRxBuffers
                0x9d013aa4      0x1a8
 .text._DRV_ETHMAC_AddRxBuffers
                0x9d013aa4      0x1a8 build/default/production/_ext/508588874/drv_ethmac.o

.text.TCPIP_UDP_OptionsSet
                0x9d013c4c      0x1a8
 .text.TCPIP_UDP_OptionsSet
                0x9d013c4c      0x1a8 build/default/production/_ext/1406599153/udp.o
                0x9d013c4c                TCPIP_UDP_OptionsSet

.text.IntHandlerDrvTmrInstance0
                0x9d013df4      0x1a4
 .text.IntHandlerDrvTmrInstance0
                0x9d013df4      0x1a4 build/default/production/_ext/1688732426/system_interrupt.o
                0x9d013df4                IntHandlerDrvTmrInstance0

.text._IntHandlerDrvUsartTransmitInstance0
                0x9d013f98      0x1a4
 .text._IntHandlerDrvUsartTransmitInstance0
                0x9d013f98      0x1a4 build/default/production/_ext/1688732426/system_interrupt.o
                0x9d013f98                _IntHandlerDrvUsartTransmitInstance0

.text._IntHandlerDrvUsartReceiveInstance0
                0x9d01413c      0x1a4
 .text._IntHandlerDrvUsartReceiveInstance0
                0x9d01413c      0x1a4 build/default/production/_ext/1688732426/system_interrupt.o
                0x9d01413c                _IntHandlerDrvUsartReceiveInstance0

.text._IntHandlerDrvUsartErrorInstance0
                0x9d0142e0      0x1a4
 .text._IntHandlerDrvUsartErrorInstance0
                0x9d0142e0      0x1a4 build/default/production/_ext/1688732426/system_interrupt.o
                0x9d0142e0                _IntHandlerDrvUsartErrorInstance0

.text._IntHandlerDrvUsartTransmitInstance1
                0x9d014484      0x1a4
 .text._IntHandlerDrvUsartTransmitInstance1
                0x9d014484      0x1a4 build/default/production/_ext/1688732426/system_interrupt.o
                0x9d014484                _IntHandlerDrvUsartTransmitInstance1

.text._IntHandlerDrvUsartReceiveInstance1
                0x9d014628      0x1a4
 .text._IntHandlerDrvUsartReceiveInstance1
                0x9d014628      0x1a4 build/default/production/_ext/1688732426/system_interrupt.o
                0x9d014628                _IntHandlerDrvUsartReceiveInstance1

.text._IntHandlerDrvUsartErrorInstance1
                0x9d0147cc      0x1a4
 .text._IntHandlerDrvUsartErrorInstance1
                0x9d0147cc      0x1a4 build/default/production/_ext/1688732426/system_interrupt.o
                0x9d0147cc                _IntHandlerDrvUsartErrorInstance1

.text._IntHandler_ETHMAC
                0x9d014970      0x1a0
 .text._IntHandler_ETHMAC
                0x9d014970      0x1a0 build/default/production/_ext/1688732426/system_interrupt.o
                0x9d014970                _IntHandler_ETHMAC

.text           0x9d014b10      0x1a0
 .text          0x9d014b10      0x1a0 c:/program files (x86)/microchip/xc32/v1.43/bin/bin/../../lib/gcc/pic32mx/4.8.3/../../../../pic32mx/lib\libpic32.a(strcpy.o)
                0x9d014b10                strcpy

.text._ARPProbeAddress
                0x9d014cb0      0x198
 .text._ARPProbeAddress
                0x9d014cb0      0x198 build/default/production/_ext/1406599153/arp.o

.text.DRV_ETHMAC_LibRxGetPacket
                0x9d014e48      0x194
 .text.DRV_ETHMAC_LibRxGetPacket
                0x9d014e48      0x194 build/default/production/_ext/508588874/drv_ethmac_lib.o
                0x9d014e48                DRV_ETHMAC_LibRxGetPacket

.text._sbrk_init
                0x9d014fdc      0x194
 .text._sbrk_init
                0x9d014fdc      0x194 c:/program files (x86)/microchip/xc32/v1.43/bin/bin/../../lib/gcc/pic32mx/4.8.3/../../../../pic32mx/lib\libpic32.a(sbrk.o)
                0x9d014fdc                _sbrk_init

.text.DRV_EXTPHY_MDIXConfigure
                0x9d015170      0x18c
 .text.DRV_EXTPHY_MDIXConfigure
                0x9d015170      0x18c build/default/production/_ext/1684742680/drv_extphy_smsc8740.o

.text.TCPIP_DHCP_Initialize
                0x9d0152fc      0x18c
 .text.TCPIP_DHCP_Initialize
                0x9d0152fc      0x18c build/default/production/_ext/1406599153/dhcp.o
                0x9d0152fc                TCPIP_DHCP_Initialize

.text.DRV_ETHMAC_LibMACOpen
                0x9d015488      0x184
 .text.DRV_ETHMAC_LibMACOpen
                0x9d015488      0x184 build/default/production/_ext/508588874/drv_ethmac_lib.o
                0x9d015488                DRV_ETHMAC_LibMACOpen

.text._DRV_TMR_Resume
                0x9d01560c      0x184
 .text._DRV_TMR_Resume
                0x9d01560c      0x184 build/default/production/_ext/1895062557/drv_tmr.o

.text.TCPIP_UDP_Deinitialize
                0x9d015790      0x17c
 .text.TCPIP_UDP_Deinitialize
                0x9d015790      0x17c build/default/production/_ext/1406599153/udp.o
                0x9d015790                TCPIP_UDP_Deinitialize

.text.DRV_ETHMAC_PIC32MACEventMaskSet
                0x9d01590c      0x178
 .text.DRV_ETHMAC_PIC32MACEventMaskSet
                0x9d01590c      0x178 build/default/production/_ext/508588874/drv_ethmac.o
                0x9d01590c                DRV_ETHMAC_PIC32MACEventMaskSet

.text.DRV_ETHMAC_LibTxSendPacket
                0x9d015a84      0x178
 .text.DRV_ETHMAC_LibTxSendPacket
                0x9d015a84      0x178 build/default/production/_ext/508588874/drv_ethmac_lib.o
                0x9d015a84                DRV_ETHMAC_LibTxSendPacket

.text._SYS_TMR_ClientCreate
                0x9d015bfc      0x178
 .text._SYS_TMR_ClientCreate
                0x9d015bfc      0x178 build/default/production/_ext/837595974/sys_tmr.o

.text._DRV_ETHPHY_NegResultPhase_ANAD
                0x9d015d74      0x170
 .text._DRV_ETHPHY_NegResultPhase_ANAD
                0x9d015d74      0x170 build/default/production/_ext/1684742680/drv_ethphy.o

.text._TCPIP_HEAP_Malloc
                0x9d015ee4      0x170
 .text._TCPIP_HEAP_Malloc
                0x9d015ee4      0x170 build/default/production/_ext/1406599153/tcpip_heap_internal.o

.text._EthAppendBusyList
                0x9d016054      0x168
 .text._EthAppendBusyList
                0x9d016054      0x168 build/default/production/_ext/508588874/drv_ethmac_lib.o

.text.DRV_EXTPHY_MIIConfigure
                0x9d0161bc      0x168
 .text.DRV_EXTPHY_MIIConfigure
                0x9d0161bc      0x168 build/default/production/_ext/1684742680/drv_extphy_smsc8740.o

.text           0x9d016324      0x2d0
 .text          0x9d016324      0x168 c:/program files (x86)/microchip/xc32/v1.43/bin/bin/../../lib/gcc/pic32mx/4.8.3/../../../../pic32mx/lib\libpic32.a(memcpy.o)
                0x9d016324                memcpy
 .text          0x9d01648c      0x168 c:/program files (x86)/microchip/xc32/v1.43/bin/bin/../../lib/gcc/pic32mx/4.8.3/../../../../pic32mx/lib\libpic32.a(strlen.o)
                0x9d01648c                strlen

.text._DRV_TMR_Suspend
                0x9d0165f4      0x164
 .text._DRV_TMR_Suspend
                0x9d0165f4      0x164 build/default/production/_ext/1895062557/drv_tmr.o

.text.TCPIP_IPV4_SelectSourceInterface
                0x9d016758      0x160
 .text.TCPIP_IPV4_SelectSourceInterface
                0x9d016758      0x160 build/default/production/_ext/1406599153/ipv4.o
                0x9d016758                TCPIP_IPV4_SelectSourceInterface

.rodata         0x9d0168b8      0x160
 .rodata        0x9d0168b8      0x160 c:/program files (x86)/microchip/xc32/v1.43/bin/bin/../../lib/gcc/pic32mx/4.8.3/../../../../pic32mx/lib\libc.a(ldpowers.o)
                0x9d0168b8                _npowers_
                0x9d016968                _powers_

.text._ARPSendIfPkt
                0x9d016a18      0x15c
 .text._ARPSendIfPkt
                0x9d016a18      0x15c build/default/production/_ext/1406599153/arp.o

.text._DHCPProcessReceiveData
                0x9d016b74      0x15c
 .text._DHCPProcessReceiveData
                0x9d016b74      0x15c build/default/production/_ext/1406599153/dhcp.o

.text._MACDeinit
                0x9d016cd0      0x158
 .text._MACDeinit
                0x9d016cd0      0x158 build/default/production/_ext/508588874/drv_ethmac.o

.text.DRV_ETHMAC_PIC32MACTasks
                0x9d016e28      0x158
 .text.DRV_ETHMAC_PIC32MACTasks
                0x9d016e28      0x158 build/default/production/_ext/508588874/drv_ethmac.o
                0x9d016e28                DRV_ETHMAC_PIC32MACTasks

.rodata         0x9d016f80      0x2a4
 .rodata        0x9d016f80      0x154 build/default/production/_ext/1688732426/system_exceptions.o
 .rodata        0x9d0170d4      0x150 build/default/production/_ext/1684742680/drv_ethphy.o
                0x9d01710c                DRV_ETHPHY_OBJECT_BASE_Default

.text.TCPIP_UDP_Initialize
                0x9d017224      0x14c
 .text.TCPIP_UDP_Initialize
                0x9d017224      0x14c build/default/production/_ext/1406599153/udp.o
                0x9d017224                TCPIP_UDP_Initialize

.text._TcpCloseSocket
                0x9d017370      0x148
 .text._TcpCloseSocket
                0x9d017370      0x148 build/default/production/_ext/1406599153/tcp.o

.text._TcpDisconnect
                0x9d0174b8      0x148
 .text._TcpDisconnect
                0x9d0174b8      0x148 build/default/production/_ext/1406599153/tcp.o

.text.TCPIP_UDP_OpenServerSkt
                0x9d017600      0x148
 .text.TCPIP_UDP_OpenServerSkt
                0x9d017600      0x148 build/default/production/_ext/1406599153/udp.o
                0x9d017600                TCPIP_UDP_OpenServerSkt

.text.fputc     0x9d017748      0x144
 .text.fputc    0x9d017748      0x144 c:/program files (x86)/microchip/xc32/v1.43/bin/bin/../../lib/gcc/pic32mx/4.8.3/../../../../pic32mx/lib\libc.a(_fputc_simple.o)
                0x9d017748                fputc

.text._DRV_ETHPHY_SetupPhaseReset
                0x9d01788c      0x140
 .text._DRV_ETHPHY_SetupPhaseReset
                0x9d01788c      0x140 build/default/production/_ext/1684742680/drv_ethphy.o

.text.DisplayNodeMsg
                0x9d0179cc      0x140
 .text.DisplayNodeMsg
                0x9d0179cc      0x140 build/default/production/_ext/1333902316/sys_command.o

.text.TCPIP_TCP_Initialize
                0x9d017b0c      0x140
 .text.TCPIP_TCP_Initialize
                0x9d017b0c      0x140 build/default/production/_ext/1406599153/tcp.o
                0x9d017b0c                TCPIP_TCP_Initialize

.text.TCPIP_UDP_OptionsGet
                0x9d017c4c      0x140
 .text.TCPIP_UDP_OptionsGet
                0x9d017c4c      0x140 build/default/production/_ext/1406599153/udp.o
                0x9d017c4c                TCPIP_UDP_OptionsGet

.text._DRV_ETHPHY_SetupPhaseIdle
                0x9d017d8c      0x130
 .text._DRV_ETHPHY_SetupPhaseIdle
                0x9d017d8c      0x130 build/default/production/_ext/1684742680/drv_ethphy.o

.text._ARPDeleteResources
                0x9d017ebc      0x130
 .text._ARPDeleteResources
                0x9d017ebc      0x130 build/default/production/_ext/1406599153/arp.o

.text.SYS_PORTS_Initialize
                0x9d017fec      0x130
 .text.SYS_PORTS_Initialize
                0x9d017fec      0x130 build/default/production/_ext/822048611/sys_ports_static.o
                0x9d017fec                SYS_PORTS_Initialize

.text.DRV_ETHMAC_LibDescriptorsPoolAdd
                0x9d01811c      0x12c
 .text.DRV_ETHMAC_LibDescriptorsPoolAdd
                0x9d01811c      0x12c build/default/production/_ext/508588874/drv_ethmac_lib.o
                0x9d01811c                DRV_ETHMAC_LibDescriptorsPoolAdd

.text._flsbuf   0x9d018248      0x12c
 .text._flsbuf  0x9d018248      0x12c c:/program files (x86)/microchip/xc32/v1.43/bin/bin/../../lib/gcc/pic32mx/4.8.3/../../../../pic32mx/lib\libc.a(_flsbuf_simple.o)
                0x9d018248                _flsbuf

.text.dpcmp     0x9d018374      0x12c
 .text.dpcmp    0x9d018374      0x12c c:/program files (x86)/microchip/xc32/v1.43/bin/bin/../../lib/gcc/pic32mx/4.8.3/../../../../pic32mx/lib\libm.a(dpcmp.o)
                0x9d018374                __ltdf2
                0x9d018374                __gedf2
                0x9d018374                dpcmp
                0x9d018374                __ledf2
                0x9d018374                __nedf2
                0x9d018374                __eqdf2
                0x9d018374                __gtdf2

.text.TCPIP_ANNOUNCE_Initialize
                0x9d0184a0      0x128
 .text.TCPIP_ANNOUNCE_Initialize
                0x9d0184a0      0x128 build/default/production/_ext/1406599153/tcpip_announce.o
                0x9d0184a0                TCPIP_ANNOUNCE_Initialize

.text.TCPIP_IPV4_ArpHandler
                0x9d0185c8      0x128
 .text.TCPIP_IPV4_ArpHandler
                0x9d0185c8      0x128 build/default/production/_ext/1406599153/ipv4.o

.text._OAHashFindBkt
                0x9d0186f0      0x124
 .text._OAHashFindBkt
                0x9d0186f0      0x124 build/default/production/_ext/1406599153/oahash.o

.text.TCPIP_Helper_StringToMACAddress
                0x9d018814      0x124
 .text.TCPIP_Helper_StringToMACAddress
                0x9d018814      0x124 build/default/production/_ext/1406599153/tcpip_helpers.o
                0x9d018814                TCPIP_Helper_StringToMACAddress

.text.DRV_ETHMAC_Tasks_ISR
                0x9d018938      0x120
 .text.DRV_ETHMAC_Tasks_ISR
                0x9d018938      0x120 build/default/production/_ext/508588874/drv_ethmac.o
                0x9d018938                DRV_ETHMAC_Tasks_ISR

.text._Tcpv4TxAckFnc
                0x9d018a58      0x120
 .text._Tcpv4TxAckFnc
                0x9d018a58      0x120 build/default/production/_ext/1406599153/tcp.o

.text.TCPIP_Helper_PacketCopy
                0x9d018b78      0x120
 .text.TCPIP_Helper_PacketCopy
                0x9d018b78      0x120 build/default/production/_ext/1406599153/tcpip_helpers.o
                0x9d018b78                TCPIP_Helper_PacketCopy

.text           0x9d018c98      0x120
 .text          0x9d018c98      0x120 c:/program files (x86)/microchip/xc32/v1.43/bin/bin/../../lib/gcc/pic32mx/4.8.3/../../../../pic32mx/lib\libpic32.a(strcmp.o)
                0x9d018c98                strcmp

.text.DRV_ETHMAC_PIC32MACRxFilterHashTableEntrySet
                0x9d018db8      0x11c
 .text.DRV_ETHMAC_PIC32MACRxFilterHashTableEntrySet
                0x9d018db8      0x11c build/default/production/_ext/508588874/drv_ethmac.o
                0x9d018db8                DRV_ETHMAC_PIC32MACRxFilterHashTableEntrySet

.text._GetMaxSegSizeOption
                0x9d018ed4      0x11c
 .text._GetMaxSegSizeOption
                0x9d018ed4      0x11c build/default/production/_ext/1406599153/tcp.o

.text.TCPIP_ARP_IsResolved
                0x9d018ff0      0x11c
 .text.TCPIP_ARP_IsResolved
                0x9d018ff0      0x11c build/default/production/_ext/1406599153/arp.o
                0x9d018ff0                TCPIP_ARP_IsResolved

.text._DHCPSetLeaseTimeParams
                0x9d01910c      0x118
 .text._DHCPSetLeaseTimeParams
                0x9d01910c      0x118 build/default/production/_ext/1406599153/dhcp.o

.text.DRV_ETHMAC_PIC32MACStatisticsGet
                0x9d019224      0x114
 .text.DRV_ETHMAC_PIC32MACStatisticsGet
                0x9d019224      0x114 build/default/production/_ext/508588874/drv_ethmac.o
                0x9d019224                DRV_ETHMAC_PIC32MACStatisticsGet

.text.TCPIP_Helper_PacketChecksum
                0x9d019338      0x114
 .text.TCPIP_Helper_PacketChecksum
                0x9d019338      0x114 build/default/production/_ext/1406599153/tcpip_helpers.o
                0x9d019338                TCPIP_Helper_PacketChecksum

.text.DRV_ETHMAC_LibClose
                0x9d01944c      0x110
 .text.DRV_ETHMAC_LibClose
                0x9d01944c      0x110 build/default/production/_ext/508588874/drv_ethmac_lib.o
                0x9d01944c                DRV_ETHMAC_LibClose

.text._DRV_ETHPHY_SetupPhaseNegotiate_SubPhase3
                0x9d01955c      0x110
 .text._DRV_ETHPHY_SetupPhaseNegotiate_SubPhase3
                0x9d01955c      0x110 build/default/production/_ext/1684742680/drv_ethphy.o

.text._MacRxPacketAck
                0x9d01966c      0x10c
 .text._MacRxPacketAck
                0x9d01966c      0x10c build/default/production/_ext/508588874/drv_ethmac.o

.text.PLIB_ETH_MACSetAddress
                0x9d019778      0x10c
 .text.PLIB_ETH_MACSetAddress
                0x9d019778      0x10c ..\..\..\..\..\microchip\harmony\v1_07\bin\framework\peripheral\PIC32MZ2048ECG064_peripherals.a(plib_eth_lib.o)
                0x9d019778                PLIB_ETH_MACSetAddress

.text._UDPv4AllocateSktTxBuffer
                0x9d019884      0x108
 .text._UDPv4AllocateSktTxBuffer
                0x9d019884      0x108 build/default/production/_ext/1406599153/udp.o

.rodata         0x9d01998c      0x104
 .rodata        0x9d01998c      0x104 c:/program files (x86)/microchip/xc32/v1.43/bin/bin/../../lib/gcc/pic32mx/4.8.3/../../../../pic32mx/lib\libc.a(ctype.o)
                0x9d01998c                _ctype

.text._DHCPEnable
                0x9d019a90      0x100
 .text._DHCPEnable
                0x9d019a90      0x100 build/default/production/_ext/1406599153/dhcp.o

.text._DNS_ValidateIf
                0x9d019b90      0x100
 .text._DNS_ValidateIf
                0x9d019b90      0x100 build/default/production/_ext/1406599153/dns.o

.rodata         0x9d019c90       0xfc
 .rodata        0x9d019c90       0xfc build/default/production/_ext/508588874/drv_ethmac.o
                0x9d019d34                DRV_ETHMAC_PIC32MACObject

.text._TcpSocketSetIdleState
                0x9d019d8c       0xfc
 .text._TcpSocketSetIdleState
                0x9d019d8c       0xfc build/default/production/_ext/1406599153/tcp.o

.text._UDPv4TxAckFnc
                0x9d019e88       0xfc
 .text._UDPv4TxAckFnc
                0x9d019e88       0xfc build/default/production/_ext/1406599153/udp.o

.text.Console_UART_Write
                0x9d019f84       0xf8
 .text.Console_UART_Write
                0x9d019f84       0xf8 build/default/production/_ext/877190136/sys_console_uart.o
                0x9d019f84                Console_UART_Write

.text._DHCPClose
                0x9d01a07c       0xf8
 .text._DHCPClose
                0x9d01a07c       0xf8 build/default/production/_ext/1406599153/dhcp.o

.text.SYS_CLK_Initialize
                0x9d01a174       0xf8
 .text.SYS_CLK_Initialize
                0x9d01a174       0xf8 build/default/production/_ext/639803181/sys_clk_static.o
                0x9d01a174                SYS_CLK_Initialize

.text.TCPIP_DHCP_ConnectionHandler
                0x9d01a26c       0xf4
 .text.TCPIP_DHCP_ConnectionHandler
                0x9d01a26c       0xf4 build/default/production/_ext/1406599153/dhcp.o
                0x9d01a26c                TCPIP_DHCP_ConnectionHandler

.text.SYS_DEVCON_PerformanceConfig
                0x9d000010       0xf0
 .text.SYS_DEVCON_PerformanceConfig
                0x9d000010       0xf0 build/default/production/_ext/1470476842/sys_devcon_pic32mz.o
                0x9d000010                SYS_DEVCON_PerformanceConfig

.text._DRV_ETHPHY_SetupPhaseNegotiate_SubPhase0
                0x9d01a360       0xec
 .text._DRV_ETHPHY_SetupPhaseNegotiate_SubPhase0
                0x9d01a360       0xec build/default/production/_ext/1684742680/drv_ethphy.o

.text.SYS_TMR_SystemCountGet
                0x9d01a44c       0xec
 .text.SYS_TMR_SystemCountGet
                0x9d01a44c       0xec build/default/production/_ext/837595974/sys_tmr.o
                0x9d01a44c                SYS_TMR_SystemCountGet

.text.DRV_ETHMAC_PIC32MACProcess
                0x9d01a538       0xe8
 .text.DRV_ETHMAC_PIC32MACProcess
                0x9d01a538       0xe8 build/default/production/_ext/508588874/drv_ethmac.o
                0x9d01a538                DRV_ETHMAC_PIC32MACProcess

.text._SYS_TMR_ClientParamSet
                0x9d01a620       0xe8
 .text._SYS_TMR_ClientParamSet
                0x9d01a620       0xe8 build/default/production/_ext/837595974/sys_tmr.o

.text._DHCPPacketFilter
                0x9d01a708       0xe8
 .text._DHCPPacketFilter
                0x9d01a708       0xe8 build/default/production/_ext/1406599153/dhcp.o

.text._TCPIP_StackSyncFunction
                0x9d01a7f0       0xe8
 .text._TCPIP_StackSyncFunction
                0x9d01a7f0       0xe8 build/default/production/_ext/1406599153/tcpip_manager.o

.text.TCPIP_IPV4_DeInitialize
                0x9d01a8d8       0xe8
 .text.TCPIP_IPV4_DeInitialize
                0x9d01a8d8       0xe8 build/default/production/_ext/1406599153/ipv4.o
                0x9d01a8d8                TCPIP_IPV4_DeInitialize

.text.__fixdfdi
                0x9d01a9c0       0xe8
 .text.__fixdfdi
                0x9d01a9c0       0xe8 c:/program files (x86)/microchip/xc32/v1.43/bin/bin/../../lib/gcc/pic32mx/4.8.3/../../../../pic32mx/lib\libe.a(_fixdfdi.o)
                0x9d01a9c0                __fixdfdi

.text._DHCPOpenSocket
                0x9d01aaa8       0xe4
 .text._DHCPOpenSocket
                0x9d01aaa8       0xe4 build/default/production/_ext/1406599153/dhcp.o

.text.TCPIP_NBNS_Initialize
                0x9d01ab8c       0xe4
 .text.TCPIP_NBNS_Initialize
                0x9d01ab8c       0xe4 build/default/production/_ext/1406599153/nbns.o
                0x9d01ab8c                TCPIP_NBNS_Initialize

.text.DRV_ETHPHY_Setup
                0x9d01ac70       0xe0
 .text.DRV_ETHPHY_Setup
                0x9d01ac70       0xe0 build/default/production/_ext/1684742680/drv_ethphy.o
                0x9d01ac70                DRV_ETHPHY_Setup

.text._DRV_ETHPHY_NegCompletePhaseAN_Restart
                0x9d01ad50       0xe0
 .text._DRV_ETHPHY_NegCompletePhaseAN_Restart
                0x9d01ad50       0xe0 build/default/production/_ext/1684742680/drv_ethphy.o

.text.TCPIP_OAHASH_EntryLookup
                0x9d01ae30       0xe0
 .text.TCPIP_OAHASH_EntryLookup
                0x9d01ae30       0xe0 build/default/production/_ext/1406599153/oahash.o
                0x9d01ae30                TCPIP_OAHASH_EntryLookup

.text.TCPIP_STACK_BringNetDown
                0x9d01af10       0xe0
 .text.TCPIP_STACK_BringNetDown
                0x9d01af10       0xe0 build/default/production/_ext/1406599153/tcpip_manager.o

.text.DRV_ETHPHY_SMIClockSet
                0x9d01aff0       0xdc
 .text.DRV_ETHPHY_SMIClockSet
                0x9d01aff0       0xdc build/default/production/_ext/1684742680/drv_ethphy.o
                0x9d01aff0                DRV_ETHPHY_SMIClockSet

.text.SYS_CMD_DELETE
                0x9d01b0cc       0xdc
 .text.SYS_CMD_DELETE
                0x9d01b0cc       0xdc build/default/production/_ext/1333902316/sys_command.o
                0x9d01b0cc                SYS_CMD_DELETE

.text.TCPIP_STACK_KillStack
                0x9d01b1a8       0xdc
 .text.TCPIP_STACK_KillStack
                0x9d01b1a8       0xdc build/default/production/_ext/1406599153/tcpip_manager.o

.text.general_exception
                0x9d01b284       0xdc
 .text.general_exception
                0x9d01b284       0xdc c:/program files (x86)/microchip/xc32/v1.43/bin/bin/../../lib/gcc/pic32mx/4.8.3/../../../../pic32mx/lib\libpic32.a(general-exception.o)
                0x9d01b284                _general_exception_context

.text.SYS_CMD_Initialize
                0x9d01b360       0xd8
 .text.SYS_CMD_Initialize
                0x9d01b360       0xd8 build/default/production/_ext/1333902316/sys_command.o
                0x9d01b360                SYS_CMD_Initialize

.text._ARPUpdateEntry
                0x9d01b438       0xd8
 .text._ARPUpdateEntry
                0x9d01b438       0xd8 build/default/production/_ext/1406599153/arp.o

.text._TCPIP_PKT_PacketAlloc
                0x9d01b510       0xd8
 .text._TCPIP_PKT_PacketAlloc
                0x9d01b510       0xd8 build/default/production/_ext/1406599153/tcpip_packet.o
                0x9d01b510                _TCPIP_PKT_PacketAlloc

.text._cache_err_exception_context
                0x9d01b5e8       0xd8
 .text._cache_err_exception_context
                0x9d01b5e8       0xd8 c:/program files (x86)/microchip/xc32/v1.43/bin/bin/../../lib/gcc/pic32mx/4.8.3/../../../../pic32mx/lib\libpic32.a(cache-err-exception.o)
                0x9d01b5e8                _cache_err_exception_context

.text.simple_tlb_refill_context
                0x9d01b6c0       0xd8
 .text.simple_tlb_refill_context
                0x9d01b6c0       0xd8 c:/program files (x86)/microchip/xc32/v1.43/bin/bin/../../lib/gcc/pic32mx/4.8.3/../../../../pic32mx/lib\libpic32.a(simple-tlb-refill-exception.o)
                0x9d01b6c0                _simple_tlb_refill_exception_context

.text._mon_putc
                0x9d01b798       0xd4
 .text._mon_putc
                0x9d01b798       0xd4 c:/program files (x86)/microchip/xc32/v1.43/bin/bin/../../lib/gcc/pic32mx/4.8.3/../../../../pic32mx/lib\libpic32.a(_mon_putc.o)
                0x9d01b798                _mon_putc

.text._MacTxPendingPackets
                0x9d01b86c       0xd0
 .text._MacTxPendingPackets
                0x9d01b86c       0xd0 build/default/production/_ext/508588874/drv_ethmac.o

.rodata         0x9d01b940       0xd0
 .rodata        0x9d01b940       0xd0 c:/program files (x86)/microchip/xc32/v1.43/bin/bin/../../lib/gcc/pic32mx/4.8.3/../../../../pic32mx/lib\libc.a(doprnt_cdnopuxX.eo)

.text._DRV_ETHMAC_LinkStateNegResult
                0x9d01ba10       0xcc
 .text._DRV_ETHMAC_LinkStateNegResult
                0x9d01ba10       0xcc build/default/production/_ext/508588874/drv_ethmac.o

.text._DRV_ETHPHY_ResetPhaseRead
                0x9d01badc       0xcc
 .text._DRV_ETHPHY_ResetPhaseRead
                0x9d01badc       0xcc build/default/production/_ext/1684742680/drv_ethphy.o

.text.SYS_TMR_Initialize
                0x9d01bba8       0xcc
 .text.SYS_TMR_Initialize
                0x9d01bba8       0xcc build/default/production/_ext/837595974/sys_tmr.o
                0x9d01bba8                SYS_TMR_Initialize

.text.TCPIP_ARP_EntryRemove
                0x9d01bc74       0xcc
 .text.TCPIP_ARP_EntryRemove
                0x9d01bc74       0xcc build/default/production/_ext/1406599153/arp.o
                0x9d01bc74                TCPIP_ARP_EntryRemove

.text.DRV_TMR_Tasks
                0x9d01bd40       0xc8
 .text.DRV_TMR_Tasks
                0x9d01bd40       0xc8 build/default/production/_ext/1895062557/drv_tmr.o
                0x9d01bd40                DRV_TMR_Tasks

.text._UDPsetPacketInfo
                0x9d01be08       0xc8
 .text._UDPsetPacketInfo
                0x9d01be08       0xc8 build/default/production/_ext/1406599153/udp.o

.text.TCPIP_UDP_RemoteBind
                0x9d01bed0       0xc8
 .text.TCPIP_UDP_RemoteBind
                0x9d01bed0       0xc8 build/default/production/_ext/1406599153/udp.o
                0x9d01bed0                TCPIP_UDP_RemoteBind

.text.TCPIP_OAHASH_EntryLookupOrInsert
                0x9d01bf98       0xc8
 .text.TCPIP_OAHASH_EntryLookupOrInsert
                0x9d01bf98       0xc8 build/default/production/_ext/1406599153/oahash.o
                0x9d01bf98                TCPIP_OAHASH_EntryLookupOrInsert

.text._sbrk     0x9d01c060       0xc8
 .text._sbrk    0x9d01c060       0xc8 c:/program files (x86)/microchip/xc32/v1.43/bin/bin/../../lib/gcc/pic32mx/4.8.3/../../../../pic32mx/lib\libpic32.a(sbrk.o)
                0x9d01c060                _sbrk

.text._DHCPOptionWriteSrvIdent
                0x9d01c128       0xc4
 .text._DHCPOptionWriteSrvIdent
                0x9d01c128       0xc4 build/default/production/_ext/1406599153/dhcp.o

.text._TCPIPStackModuleRxPurge
                0x9d01c1ec       0xc4
 .text._TCPIPStackModuleRxPurge
                0x9d01c1ec       0xc4 build/default/production/_ext/1406599153/tcpip_manager.o
                0x9d01c1ec                _TCPIPStackModuleRxPurge

.text.SYS_CMD_PRINT
                0x9d01c2b0       0xc0
 .text.SYS_CMD_PRINT
                0x9d01c2b0       0xc0 build/default/production/_ext/1333902316/sys_command.o
                0x9d01c2b0                SYS_CMD_PRINT

.text._DHCPOptionProcessDns
                0x9d01c370       0xc0
 .text._DHCPOptionProcessDns
                0x9d01c370       0xc0 build/default/production/_ext/1406599153/dhcp.o

.text.SendCommandPrint
                0x9d01c430       0xbc
 .text.SendCommandPrint
                0x9d01c430       0xbc build/default/production/_ext/1333902316/sys_command.o

.text.SYS_CMDIO_ADD
                0x9d01c4ec       0xbc
 .text.SYS_CMDIO_ADD
                0x9d01c4ec       0xbc build/default/production/_ext/1333902316/sys_command.o
                0x9d01c4ec                SYS_CMDIO_ADD

.text.TCPIP_UDP_ArrayPut
                0x9d01c5a8       0xbc
 .text.TCPIP_UDP_ArrayPut
                0x9d01c5a8       0xbc build/default/production/_ext/1406599153/udp.o
                0x9d01c5a8                TCPIP_UDP_ArrayPut

.text._DHCPOptionWriteIPRequest
                0x9d01c664       0xbc
 .text._DHCPOptionWriteIPRequest
                0x9d01c664       0xbc build/default/production/_ext/1406599153/dhcp.o

.tlb.__pic32_tlb_init_ebi_sqi
                0x9d01c720       0xbc
 .tlb.__pic32_tlb_init_ebi_sqi
                0x9d01c720       0xbc c:/program files (x86)/microchip/xc32/v1.43/bin/bin/../../lib/gcc/pic32mx/4.8.3/../../../../pic32mx/lib\libpic32.a(pic32_init_tlb_ebi_sqi.o)
                0x9d01c720                __pic32_tlb_init_ebi_sqi

.text._EthTxSchedList
                0x9d01c7dc       0xb8
 .text._EthTxSchedList
                0x9d01c7dc       0xb8 build/default/production/_ext/508588874/drv_ethmac_lib.o

.text._DRV_ETHPHY_NegResultPhase_BMSTAT
                0x9d01c894       0xb8
 .text._DRV_ETHPHY_NegResultPhase_BMSTAT
                0x9d01c894       0xb8 build/default/production/_ext/1684742680/drv_ethphy.o

.text.TCPIP_DNS_OAHASH_DeleteEntry
                0x9d01c94c       0xb8
 .text.TCPIP_DNS_OAHASH_DeleteEntry
                0x9d01c94c       0xb8 build/default/production/_ext/1406599153/dns.o

.text.TCPIP_PKT_DataSegmentGet
                0x9d01ca04       0xb8
 .text.TCPIP_PKT_DataSegmentGet
                0x9d01ca04       0xb8 build/default/production/_ext/1406599153/tcpip_packet.o
                0x9d01ca04                TCPIP_PKT_DataSegmentGet

.text.DRV_ETHMAC_PIC32MACEventAcknowledge
                0x9d01cabc       0xb4
 .text.DRV_ETHMAC_PIC32MACEventAcknowledge
                0x9d01cabc       0xb4 build/default/production/_ext/508588874/drv_ethmac.o
                0x9d01cabc                DRV_ETHMAC_PIC32MACEventAcknowledge

.text._EthTxSchedBuffer
                0x9d01cb70       0xb4
 .text._EthTxSchedBuffer
                0x9d01cb70       0xb4 build/default/production/_ext/508588874/drv_ethmac_lib.o

.text.Console_UART_Read
                0x9d01cc24       0xb4
 .text.Console_UART_Read
                0x9d01cc24       0xb4 build/default/production/_ext/877190136/sys_console_uart.o
                0x9d01cc24                Console_UART_Read

.text.TCPIP_UDP_BcastIPV4AddressSet
                0x9d01ccd8       0xb4
 .text.TCPIP_UDP_BcastIPV4AddressSet
                0x9d01ccd8       0xb4 build/default/production/_ext/1406599153/udp.o
                0x9d01ccd8                TCPIP_UDP_BcastIPV4AddressSet

.text._ARPNotifyClients
                0x9d01cd8c       0xb4
 .text._ARPNotifyClients
                0x9d01cd8c       0xb4 build/default/production/_ext/1406599153/arp.o

.text._DNS_DeleteHash
                0x9d01ce40       0xb4
 .text._DNS_DeleteHash
                0x9d01ce40       0xb4 build/default/production/_ext/1406599153/dns.o

.text._DNS_AddSelectionIf
                0x9d01cef4       0xb0
 .text._DNS_AddSelectionIf
                0x9d01cef4       0xb0 build/default/production/_ext/1406599153/dns.o

.text.TCPIP_IPV4_PacketFormatTx
                0x9d01cfa4       0xb0
 .text.TCPIP_IPV4_PacketFormatTx
                0x9d01cfa4       0xb0 build/default/production/_ext/1406599153/ipv4.o
                0x9d01cfa4                TCPIP_IPV4_PacketFormatTx

.text._DRV_ETHMAC_LinkStateWaitLinkUp
                0x9d01d054       0xac
 .text._DRV_ETHMAC_LinkStateWaitLinkUp
                0x9d01d054       0xac build/default/production/_ext/508588874/drv_ethmac.o

.text._DRV_ETHPHY_NegCompletePhaseRead2
                0x9d01d100       0xac
 .text._DRV_ETHPHY_NegCompletePhaseRead2
                0x9d01d100       0xac build/default/production/_ext/1684742680/drv_ethphy.o

.text.TCPIP_TCP_Deinitialize
                0x9d01d1ac       0xac
 .text.TCPIP_TCP_Deinitialize
                0x9d01d1ac       0xac build/default/production/_ext/1406599153/tcp.o
                0x9d01d1ac                TCPIP_TCP_Deinitialize

.text._DNS_Enable
                0x9d01d258       0xac
 .text._DNS_Enable
                0x9d01d258       0xac build/default/production/_ext/1406599153/dns.o

.text._TCPIPStackInsertRxPacket
                0x9d01d304       0xac
 .text._TCPIPStackInsertRxPacket
                0x9d01d304       0xac build/default/production/_ext/1406599153/tcpip_manager.o
                0x9d01d304                _TCPIPStackInsertRxPacket

.text.fptodp    0x9d01d3b0       0xac
 .text.fptodp   0x9d01d3b0       0xac c:/program files (x86)/microchip/xc32/v1.43/bin/bin/../../lib/gcc/pic32mx/4.8.3/../../../../pic32mx/lib\libm.a(fptodp.o)
                0x9d01d3b0                fptodp
                0x9d01d3b0                __extendsfdf2

.text.DRV_ETHMAC_PIC32MACRegisterStatisticsGet
                0x9d01d45c       0xa8
 .text.DRV_ETHMAC_PIC32MACRegisterStatisticsGet
                0x9d01d45c       0xa8 build/default/production/_ext/508588874/drv_ethmac.o
                0x9d01d45c                DRV_ETHMAC_PIC32MACRegisterStatisticsGet

.text._DRV_ETHPHY_ResetPhaseWrite
                0x9d01d504       0xa8
 .text._DRV_ETHPHY_ResetPhaseWrite
                0x9d01d504       0xa8 build/default/production/_ext/1684742680/drv_ethphy.o

.text.DRV_ETHPHY_VendorSMIWriteStart
                0x9d01d5ac       0xa8
 .text.DRV_ETHPHY_VendorSMIWriteStart
                0x9d01d5ac       0xa8 build/default/production/_ext/1684742680/drv_ethphy.o
                0x9d01d5ac                DRV_ETHPHY_VendorSMIWriteStart

.text.DRV_ETHPHY_VendorSMIReadStart
                0x9d01d654       0xa8
 .text.DRV_ETHPHY_VendorSMIReadStart
                0x9d01d654       0xa8 build/default/production/_ext/1684742680/drv_ethphy.o
                0x9d01d654                DRV_ETHPHY_VendorSMIReadStart

.text.DRV_USART_TasksReceive
                0x9d01d6fc       0xa8
 .text.DRV_USART_TasksReceive
                0x9d01d6fc       0xa8 build/default/production/_ext/1601094287/drv_usart.o
                0x9d01d6fc                DRV_USART_TasksReceive

.text.DRV_USART_TasksTransmit
                0x9d01d7a4       0xa8
 .text.DRV_USART_TasksTransmit
                0x9d01d7a4       0xa8 build/default/production/_ext/1601094287/drv_usart.o
                0x9d01d7a4                DRV_USART_TasksTransmit

.text._SYS_TMR_ClientCheckSrvLock
                0x9d01d84c       0xa8
 .text._SYS_TMR_ClientCheckSrvLock
                0x9d01d84c       0xa8 build/default/production/_ext/837595974/sys_tmr.o

.text.TCPIP_PKT_PacketMACFormat
                0x9d01d8f4       0xa8
 .text.TCPIP_PKT_PacketMACFormat
                0x9d01d8f4       0xa8 build/default/production/_ext/1406599153/tcpip_packet.o
                0x9d01d8f4                TCPIP_PKT_PacketMACFormat

.text           0x9d01d99c       0xa8
 .text          0x9d01d99c       0xa8 c:/program files (x86)/microchip/xc32/v1.43/bin/bin/../../lib/gcc/pic32mx/4.8.3/../../../../pic32mx/lib\libpic32.a(memset.o)
                0x9d01d99c                memset

.text.libm      0x9d01da44       0xa8
 .text.libm     0x9d01da44       0xa8 c:/program files (x86)/microchip/xc32/v1.43/bin/bin/../../lib/gcc/pic32mx/4.8.3/../../../../pic32mx/lib\libm.a(dpfrexp.o)
                0x9d01da44                dpfrexp
                0x9d01da44                frexpl
                0x9d01da44                frexp

.text.DRV_ETHPHY_SMIWrite
                0x9d01daec       0xa4
 .text.DRV_ETHPHY_SMIWrite
                0x9d01daec       0xa4 build/default/production/_ext/1684742680/drv_ethphy.o
                0x9d01daec                DRV_ETHPHY_SMIWrite

.text._TCPIP_HEAP_MaxSize
                0x9d01db90       0xa4
 .text._TCPIP_HEAP_MaxSize
                0x9d01db90       0xa4 build/default/production/_ext/1406599153/tcpip_heap_internal.o

.text.TCPIP_IPV4_Initialize
                0x9d01dc34       0xa4
 .text.TCPIP_IPV4_Initialize
                0x9d01dc34       0xa4 build/default/production/_ext/1406599153/ipv4.o
                0x9d01dc34                TCPIP_IPV4_Initialize

.text.Console_UART_Status
                0x9d01dcd8       0xa0
 .text.Console_UART_Status
                0x9d01dcd8       0xa0 build/default/production/_ext/877190136/sys_console_uart.o
                0x9d01dcd8                Console_UART_Status

.text._TcpAbort
                0x9d01dd78       0xa0
 .text._TcpAbort
                0x9d01dd78       0xa0 build/default/production/_ext/1406599153/tcp.o

.text.TCPIP_UDP_PutIsReady
                0x9d01de18       0xa0
 .text.TCPIP_UDP_PutIsReady
                0x9d01de18       0xa0 build/default/production/_ext/1406599153/udp.o
                0x9d01de18                TCPIP_UDP_PutIsReady

.text.TCPIP_Helper_SingleListNodeRemove
                0x9d01deb8       0xa0
 .text.TCPIP_Helper_SingleListNodeRemove
                0x9d01deb8       0xa0 build/default/production/_ext/1406599153/tcpip_helpers.o
                0x9d01deb8                TCPIP_Helper_SingleListNodeRemove

.text._TCPIP_PKT_PacketFree
                0x9d01df58       0xa0
 .text._TCPIP_PKT_PacketFree
                0x9d01df58       0xa0 build/default/production/_ext/1406599153/tcpip_packet.o
                0x9d01df58                _TCPIP_PKT_PacketFree

.text._DRV_ETHMAC_LinkStateGetLink
                0x9d01dff8       0x9c
 .text._DRV_ETHMAC_LinkStateGetLink
                0x9d01dff8       0x9c build/default/production/_ext/508588874/drv_ethmac.o

.text.TCPIP_ARP_Probe
                0x9d01e094       0x9c
 .text.TCPIP_ARP_Probe
                0x9d01e094       0x9c build/default/production/_ext/1406599153/arp.o
                0x9d01e094                TCPIP_ARP_Probe

.rodata         0x9d01e130       0x9c
 .rodata        0x9d01e130       0x9c build/default/production/_ext/1406599153/dhcp.o

.text.TCPIP_STACK_IPAddressIsLocalNetwork
                0x9d01e1cc       0x9c
 .text.TCPIP_STACK_IPAddressIsLocalNetwork
                0x9d01e1cc       0x9c build/default/production/_ext/1406599153/tcpip_manager.o
                0x9d01e1cc                TCPIP_STACK_IPAddressIsLocalNetwork

.text.PLIB_ETH_MACGetAddress
                0x9d01e268       0x9c
 .text.PLIB_ETH_MACGetAddress
                0x9d01e268       0x9c ..\..\..\..\..\microchip\harmony\v1_07\bin\framework\peripheral\PIC32MZ2048ECG064_peripherals.a(plib_eth_lib.o)
                0x9d01e268                PLIB_ETH_MACGetAddress

.text.write     0x9d01e304       0x9c
 .text.write    0x9d01e304       0x9c c:/program files (x86)/microchip/xc32/v1.43/bin/bin/../../lib/gcc/pic32mx/4.8.3/../../../../pic32mx/lib\libpic32.a(write.o)
                0x9d01e304                write

.text.DRV_ETHMAC_LibDescriptorsPoolCleanUp
                0x9d01e3a0       0x98
 .text.DRV_ETHMAC_LibDescriptorsPoolCleanUp
                0x9d01e3a0       0x98 build/default/production/_ext/508588874/drv_ethmac_lib.o
                0x9d01e3a0                DRV_ETHMAC_LibDescriptorsPoolCleanUp

.text._DRV_ETHPHY_SetupPhaseNegotiate_SubPhase6
                0x9d01e438       0x98
 .text._DRV_ETHPHY_SetupPhaseNegotiate_SubPhase6
                0x9d01e438       0x98 build/default/production/_ext/1684742680/drv_ethphy.o

.text._DRV_ETHPHY_LinkStatPhaseRead
                0x9d01e4d0       0x98
 .text._DRV_ETHPHY_LinkStatPhaseRead
                0x9d01e4d0       0x98 build/default/production/_ext/1684742680/drv_ethphy.o

.text._DNS_CleanCacheEntry
                0x9d01e568       0x98
 .text._DNS_CleanCacheEntry
                0x9d01e568       0x98 build/default/production/_ext/1406599153/dns.o

.text           0x9d01e600       0x98
 .text          0x9d01e600       0x98 c:/program files (x86)/microchip/xc32/v1.43/bin/bin/../../lib/gcc/pic32mx/4.8.3/../../../../pic32mx/lib\libpic32.a(memcmp.o)
                0x9d01e600                memcmp

.text._TcpCleanup
                0x9d01e698       0x94
 .text._TcpCleanup
                0x9d01e698       0x94 build/default/production/_ext/1406599153/tcp.o

.text._UDPSetNewRxPacket
                0x9d01e72c       0x94
 .text._UDPSetNewRxPacket
                0x9d01e72c       0x94 build/default/production/_ext/1406599153/udp.o

.text.TCPIP_UDP_DestinationIPAddressSet
                0x9d01e7c0       0x94
 .text.TCPIP_UDP_DestinationIPAddressSet
                0x9d01e7c0       0x94 build/default/production/_ext/1406599153/udp.o
                0x9d01e7c0                TCPIP_UDP_DestinationIPAddressSet

.text._DRV_ETHMAC_LinkStateNegComplete
                0x9d01e854       0x90
 .text._DRV_ETHMAC_LinkStateNegComplete
                0x9d01e854       0x90 build/default/production/_ext/508588874/drv_ethmac.o

.text.DRV_ETHPHY_SMIScanDataGet
                0x9d01e8e4       0x90
 .text.DRV_ETHPHY_SMIScanDataGet
                0x9d01e8e4       0x90 build/default/production/_ext/1684742680/drv_ethphy.o
                0x9d01e8e4                DRV_ETHPHY_SMIScanDataGet

.text.TCPIP_ARP_EntryGet
                0x9d01e974       0x90
 .text.TCPIP_ARP_EntryGet
                0x9d01e974       0x90 build/default/production/_ext/1406599153/arp.o
                0x9d01e974                TCPIP_ARP_EntryGet

.text.TCPIP_Helper_ProtectedSingleListRemoveAll
                0x9d01ea04       0x90
 .text.TCPIP_Helper_ProtectedSingleListRemoveAll
                0x9d01ea04       0x90 build/default/production/_ext/1406599153/tcpip_helpers.o
                0x9d01ea04                TCPIP_Helper_ProtectedSingleListRemoveAll

.text._TCPIPStackIpAddFromAnyNet
                0x9d01ea94       0x90
 .text._TCPIPStackIpAddFromAnyNet
                0x9d01ea94       0x90 build/default/production/_ext/1406599153/tcpip_manager.o
                0x9d01ea94                _TCPIPStackIpAddFromAnyNet

.text.SYS_CONSOLE_Status
                0x9d01eb24       0x8c
 .text.SYS_CONSOLE_Status
                0x9d01eb24       0x8c build/default/production/_ext/877190136/sys_console.o
                0x9d01eb24                SYS_CONSOLE_Status

.text.TCPIP_UDP_SocketInfoGet
                0x9d01ebb0       0x8c
 .text.TCPIP_UDP_SocketInfoGet
                0x9d01ebb0       0x8c build/default/production/_ext/1406599153/udp.o
                0x9d01ebb0                TCPIP_UDP_SocketInfoGet

.text.TCPIP_UDP_TxOffsetSet
                0x9d01ec3c       0x8c
 .text.TCPIP_UDP_TxOffsetSet
                0x9d01ec3c       0x8c build/default/production/_ext/1406599153/udp.o
                0x9d01ec3c                TCPIP_UDP_TxOffsetSet

.text._DHCPNotifyClients
                0x9d01ecc8       0x8c
 .text._DHCPNotifyClients
                0x9d01ecc8       0x8c build/default/production/_ext/1406599153/dhcp.o

.text._DNSDiscardName
                0x9d01ed54       0x8c
 .text._DNSDiscardName
                0x9d01ed54       0x8c build/default/production/_ext/1406599153/dns.o

.text.TCPIP_Helper_FormatNetBIOSName
                0x9d01ede0       0x8c
 .text.TCPIP_Helper_FormatNetBIOSName
                0x9d01ede0       0x8c build/default/production/_ext/1406599153/tcpip_helpers.o
                0x9d01ede0                TCPIP_Helper_FormatNetBIOSName

.text.TCPIP_Helper_ProtectedSingleListHeadRemove
                0x9d01ee6c       0x8c
 .text.TCPIP_Helper_ProtectedSingleListHeadRemove
                0x9d01ee6c       0x8c build/default/production/_ext/1406599153/tcpip_helpers.o
                0x9d01ee6c                TCPIP_Helper_ProtectedSingleListHeadRemove

.text.TCPIP_Helper_ProtectedSingleListNodeRemove
                0x9d01eef8       0x8c
 .text.TCPIP_Helper_ProtectedSingleListNodeRemove
                0x9d01eef8       0x8c build/default/production/_ext/1406599153/tcpip_helpers.o
                0x9d01eef8                TCPIP_Helper_ProtectedSingleListNodeRemove

.text.rand      0x9d01ef84       0x8c
 .text.rand     0x9d01ef84       0x8c c:/program files (x86)/microchip/xc32/v1.43/bin/bin/../../lib/gcc/pic32mx/4.8.3/../../../../pic32mx/lib\libc.a(rand.o)
                0x9d01ef84                rand

.text.dptoul    0x9d01f010       0x8c
 .text.dptoul   0x9d01f010       0x8c c:/program files (x86)/microchip/xc32/v1.43/bin/bin/../../lib/gcc/pic32mx/4.8.3/../../../../pic32mx/lib\libm.a(dptoul.o)
                0x9d01f010                dptoul
                0x9d01f010                __fixunsdfsi

.text.__orderdf2
                0x9d01f09c       0x8c
 .text.__orderdf2
                0x9d01f09c       0x8c c:/program files (x86)/microchip/xc32/v1.43/bin/bin/../../lib/gcc/pic32mx/4.8.3/../../../../pic32mx/lib\libe.a(_orderdf2.o)
                0x9d01f09c                __orderdf2

.rodata         0x9d01f128       0x88
 .rodata        0x9d01f128       0x88 build/default/production/_ext/1406599153/dns.o

.text.hexatob   0x9d01f1b0       0x88
 .text.hexatob  0x9d01f1b0       0x88 build/default/production/_ext/1268476361/helpers.o
                0x9d01f1b0                hexatob

.text._TCPIPStackModuleSignalRequest
                0x9d01f238       0x88
 .text._TCPIPStackModuleSignalRequest
                0x9d01f238       0x88 build/default/production/_ext/1406599153/tcpip_manager.o
                0x9d01f238                _TCPIPStackModuleSignalRequest

.text.DRV_ETHPHY_VendorSMIReadResultGet
                0x9d01f2c0       0x84
 .text.DRV_ETHPHY_VendorSMIReadResultGet
                0x9d01f2c0       0x84 build/default/production/_ext/1684742680/drv_ethphy.o
                0x9d01f2c0                DRV_ETHPHY_VendorSMIReadResultGet

.text._DRV_TMR_ModuleObj
                0x9d01f344       0x84
 .text._DRV_TMR_ModuleObj
                0x9d01f344       0x84 build/default/production/_ext/1895062557/drv_tmr.o

.text.TCPIP_UDP_SourceIPAddressSet
                0x9d01f3c8       0x84
 .text.TCPIP_UDP_SourceIPAddressSet
                0x9d01f3c8       0x84 build/default/production/_ext/1406599153/udp.o
                0x9d01f3c8                TCPIP_UDP_SourceIPAddressSet

.text._DRV_ETHPHY_NegCompletePhaseAN_Complete
                0x9d01f44c       0x80
 .text._DRV_ETHPHY_NegCompletePhaseAN_Complete
                0x9d01f44c       0x80 build/default/production/_ext/1684742680/drv_ethphy.o

.text.DRV_ETHPHY_SMIScanStart
                0x9d01f4cc       0x80
 .text.DRV_ETHPHY_SMIScanStart
                0x9d01f4cc       0x80 build/default/production/_ext/1684742680/drv_ethphy.o
                0x9d01f4cc                DRV_ETHPHY_SMIScanStart

.text.TCPIP_DNS_OAHASH_KeyCopy
                0x9d01f54c       0x80
 .text.TCPIP_DNS_OAHASH_KeyCopy
                0x9d01f54c       0x80 build/default/production/_ext/1406599153/dns.o

.rodata         0x9d01f5d0       0x80
 .rodata        0x9d01f5d0       0x80 c:/program files (x86)/microchip/xc32/v1.43/bin/bin/../../lib/gcc/pic32mx/4.8.3/../../../../pic32mx/lib\libc.a(doprnt.o)

.text.__fixunsdfdi
                0x9d01f650       0x80
 .text.__fixunsdfdi
                0x9d01f650       0x80 c:/program files (x86)/microchip/xc32/v1.43/bin/bin/../../lib/gcc/pic32mx/4.8.3/../../../../pic32mx/lib\libe.a(_fixunsdfdi.o)
                0x9d01f650                __fixunsdfdi

.text.DRV_ETHPHY_SMIScanStop
                0x9d01f6d0       0x7c
 .text.DRV_ETHPHY_SMIScanStop
                0x9d01f6d0       0x7c build/default/production/_ext/1684742680/drv_ethphy.o
                0x9d01f6d0                DRV_ETHPHY_SMIScanStop

.text.DRV_ETHPHY_SMIRead
                0x9d01f74c       0x7c
 .text.DRV_ETHPHY_SMIRead
                0x9d01f74c       0x7c build/default/production/_ext/1684742680/drv_ethphy.o
                0x9d01f74c                DRV_ETHPHY_SMIRead

.text.CommandCleanup
                0x9d01f7c8       0x7c
 .text.CommandCleanup
                0x9d01f7c8       0x7c build/default/production/_ext/1333902316/sys_command.o

.text._UDPAllocateEphemeralPort
                0x9d01f844       0x7c
 .text._UDPAllocateEphemeralPort
                0x9d01f844       0x7c build/default/production/_ext/1406599153/udp.o

.text.TCPIP_ARP_Deinitialize
                0x9d01f8c0       0x7c
 .text.TCPIP_ARP_Deinitialize
                0x9d01f8c0       0x7c build/default/production/_ext/1406599153/arp.o
                0x9d01f8c0                TCPIP_ARP_Deinitialize

.text.TCPIP_ARP_HandlerRegister
                0x9d01f93c       0x7c
 .text.TCPIP_ARP_HandlerRegister
                0x9d01f93c       0x7c build/default/production/_ext/1406599153/arp.o
                0x9d01f93c                TCPIP_ARP_HandlerRegister

.text.TCPIP_Helper_ProtectedSingleListTailAdd
                0x9d01f9b8       0x7c
 .text.TCPIP_Helper_ProtectedSingleListTailAdd
                0x9d01f9b8       0x7c build/default/production/_ext/1406599153/tcpip_helpers.o
                0x9d01f9b8                TCPIP_Helper_ProtectedSingleListTailAdd

.rodata         0x9d01fa34       0x78
 .rodata        0x9d01fa34       0x78 build/default/production/_ext/1601094287/drv_usart_read_write.o

.text.SYS_CONSOLE_Read
                0x9d01faac       0x78
 .text.SYS_CONSOLE_Read
                0x9d01faac       0x78 build/default/production/_ext/877190136/sys_console.o
                0x9d01faac                SYS_CONSOLE_Read

.text.TCPIP_UDP_Close
                0x9d01fb24       0x78
 .text.TCPIP_UDP_Close
                0x9d01fb24       0x78 build/default/production/_ext/1406599153/udp.o
                0x9d01fb24                TCPIP_UDP_Close

.text.TCPIP_DHCP_HandlerRegister
                0x9d01fb9c       0x78
 .text.TCPIP_DHCP_HandlerRegister
                0x9d01fb9c       0x78 build/default/production/_ext/1406599153/dhcp.o
                0x9d01fb9c                TCPIP_DHCP_HandlerRegister

.text.TCPIP_Helper_ProtectedSingleListDeinitialize
                0x9d01fc14       0x78
 .text.TCPIP_Helper_ProtectedSingleListDeinitialize
                0x9d01fc14       0x78 build/default/production/_ext/1406599153/tcpip_helpers.o
                0x9d01fc14                TCPIP_Helper_ProtectedSingleListDeinitialize

.text._TCPIP_MacEventCB
                0x9d01fc8c       0x78
 .text._TCPIP_MacEventCB
                0x9d01fc8c       0x78 build/default/production/_ext/1406599153/tcpip_manager.o

.text._TCPIPStackAnyNetLinked
                0x9d01fd04       0x78
 .text._TCPIPStackAnyNetLinked
                0x9d01fd04       0x78 build/default/production/_ext/1406599153/tcpip_manager.o
                0x9d01fd04                _TCPIPStackAnyNetLinked

.text.TCPIP_PKT_Initialize
                0x9d01fd7c       0x78
 .text.TCPIP_PKT_Initialize
                0x9d01fd7c       0x78 build/default/production/_ext/1406599153/tcpip_packet.o
                0x9d01fd7c                TCPIP_PKT_Initialize

.text.litodp    0x9d01fdf4       0x78
 .text.litodp   0x9d01fdf4       0x78 c:/program files (x86)/microchip/xc32/v1.43/bin/bin/../../lib/gcc/pic32mx/4.8.3/../../../../pic32mx/lib\libm.a(litodp.o)
                0x9d01fdf4                __floatsidf
                0x9d01fdf4                litodp

.text._DRV_ETHPHY_SetupPhaseNegotiate_SubPhase1
                0x9d01fe6c       0x74
 .text._DRV_ETHPHY_SetupPhaseNegotiate_SubPhase1
                0x9d01fe6c       0x74 build/default/production/_ext/1684742680/drv_ethphy.o

.text.DRV_ETHPHY_Open
                0x9d01fee0       0x74
 .text.DRV_ETHPHY_Open
                0x9d01fee0       0x74 build/default/production/_ext/1684742680/drv_ethphy.o
                0x9d01fee0                DRV_ETHPHY_Open

.text._TcpSwapHeader
                0x9d01ff54       0x74
 .text._TcpSwapHeader
                0x9d01ff54       0x74 build/default/production/_ext/1406599153/tcp.o

.text._DHCPOptionProcessRouter
                0x9d01ffc8       0x74
 .text._DHCPOptionProcessRouter
                0x9d01ffc8       0x74 build/default/production/_ext/1406599153/dhcp.o

.text._DHCPOptionProcessSubNet
                0x9d02003c       0x74
 .text._DHCPOptionProcessSubNet
                0x9d02003c       0x74 build/default/production/_ext/1406599153/dhcp.o

.text.TCPIP_Helper_StringToPowerMode
                0x9d0200b0       0x74
 .text.TCPIP_Helper_StringToPowerMode
                0x9d0200b0       0x74 build/default/production/_ext/1406599153/tcpip_helpers.o
                0x9d0200b0                TCPIP_Helper_StringToPowerMode

.text._TCPIPStackSignalHandlerRegister
                0x9d020124       0x74
 .text._TCPIPStackSignalHandlerRegister
                0x9d020124       0x74 build/default/production/_ext/1406599153/tcpip_manager.o
                0x9d020124                _TCPIPStackSignalHandlerRegister

.text.strncpy   0x9d020198       0x74
 .text.strncpy  0x9d020198       0x74 c:/program files (x86)/microchip/xc32/v1.43/bin/bin/../../lib/gcc/pic32mx/4.8.3/../../../../pic32mx/lib\libc.a(strncpy.o)
                0x9d020198                strncpy

.text.DRV_ETHMAC_PIC32MACConfigGet
                0x9d000110       0x70
 .text.DRV_ETHMAC_PIC32MACConfigGet
                0x9d000110       0x70 build/default/production/_ext/508588874/drv_ethmac.o
                0x9d000110                DRV_ETHMAC_PIC32MACConfigGet

.text._EnetPoolFreeDcptList
                0x9d000190       0x70
 .text._EnetPoolFreeDcptList
                0x9d000190       0x70 build/default/production/_ext/508588874/drv_ethmac_lib.o

.text.CommandQuit
                0x9d02020c       0x70
 .text.CommandQuit
                0x9d02020c       0x70 build/default/production/_ext/1333902316/sys_command.o

.text._UDPClose
                0x9d02027c       0x70
 .text._UDPClose
                0x9d02027c       0x70 build/default/production/_ext/1406599153/udp.o

.text._TCPIP_HEAP_Delete
                0x9d0202ec       0x70
 .text._TCPIP_HEAP_Delete
                0x9d0202ec       0x70 build/default/production/_ext/1406599153/tcpip_heap_internal.o

.text._ARPSetEntry
                0x9d02035c       0x70
 .text._ARPSetEntry
                0x9d02035c       0x70 build/default/production/_ext/1406599153/arp.o

.text._ARPRemoveEntry
                0x9d0203cc       0x70
 .text._ARPRemoveEntry
                0x9d0203cc       0x70 build/default/production/_ext/1406599153/arp.o

.text._TCPIP_PKT_PacketAcknowledge
                0x9d02043c       0x70
 .text._TCPIP_PKT_PacketAcknowledge
                0x9d02043c       0x70 build/default/production/_ext/1406599153/tcpip_packet.o
                0x9d02043c                _TCPIP_PKT_PacketAcknowledge

.text._MacRxFreeCallback
                0x9d0204ac       0x6c
 .text._MacRxFreeCallback
                0x9d0204ac       0x6c build/default/production/_ext/508588874/drv_ethmac.o

.text._DRV_ETHPHY_SetupPhaseNegotiate_SubPhase2
                0x9d020518       0x6c
 .text._DRV_ETHPHY_SetupPhaseNegotiate_SubPhase2
                0x9d020518       0x6c build/default/production/_ext/1684742680/drv_ethphy.o

.text.TCPIP_UDP_SocketNetSet
                0x9d020584       0x6c
 .text.TCPIP_UDP_SocketNetSet
                0x9d020584       0x6c build/default/production/_ext/1406599153/udp.o
                0x9d020584                TCPIP_UDP_SocketNetSet

.text._DHCPCleanup
                0x9d0205f0       0x6c
 .text._DHCPCleanup
                0x9d0205f0       0x6c build/default/production/_ext/1406599153/dhcp.o

.text._DNSGetData
                0x9d02065c       0x6c
 .text._DNSGetData
                0x9d02065c       0x6c build/default/production/_ext/1406599153/dns.o

.text._TCPIP_AnnounceCleanup
                0x9d0206c8       0x6c
 .text._TCPIP_AnnounceCleanup
                0x9d0206c8       0x6c build/default/production/_ext/1406599153/tcpip_announce.o

.text.TCPIP_ANNOUNCE_Deinitialize
                0x9d020734       0x6c
 .text.TCPIP_ANNOUNCE_Deinitialize
                0x9d020734       0x6c build/default/production/_ext/1406599153/tcpip_announce.o
                0x9d020734                TCPIP_ANNOUNCE_Deinitialize

.text._TCPIP_PKT_SocketAlloc
                0x9d0207a0       0x6c
 .text._TCPIP_PKT_SocketAlloc
                0x9d0207a0       0x6c build/default/production/_ext/1406599153/tcpip_packet.o
                0x9d0207a0                _TCPIP_PKT_SocketAlloc

.text._DRV_ETHPHY_SetupPhaseNegotiate_SubPhase5
                0x9d02080c       0x68
 .text._DRV_ETHPHY_SetupPhaseNegotiate_SubPhase5
                0x9d02080c       0x68 build/default/production/_ext/1684742680/drv_ethphy.o

.text._DRV_ETHPHY_NegRestartPhaseRead
                0x9d020874       0x68
 .text._DRV_ETHPHY_NegRestartPhaseRead
                0x9d020874       0x68 build/default/production/_ext/1684742680/drv_ethphy.o

.text.Console_UART_Flush
                0x9d0208dc       0x68
 .text.Console_UART_Flush
                0x9d0208dc       0x68 build/default/production/_ext/877190136/sys_console_uart.o
                0x9d0208dc                Console_UART_Flush

.text.SYS_RANDOM_Initialize
                0x9d020944       0x68
 .text.SYS_RANDOM_Initialize
                0x9d020944       0x68 build/default/production/_ext/1457815988/sys_random.o
                0x9d020944                SYS_RANDOM_Initialize

.text._UDPFreeTxResources
                0x9d0209ac       0x68
 .text._UDPFreeTxResources
                0x9d0209ac       0x68 build/default/production/_ext/1406599153/udp.o

.text.TCPIP_UDP_OpenClientSkt
                0x9d020a14       0x68
 .text.TCPIP_UDP_OpenClientSkt
                0x9d020a14       0x68 build/default/production/_ext/1406599153/udp.o
                0x9d020a14                TCPIP_UDP_OpenClientSkt

.text.TCPIP_ARP_HashEntryDelete
                0x9d020a7c       0x68
 .text.TCPIP_ARP_HashEntryDelete
                0x9d020a7c       0x68 build/default/production/_ext/1406599153/arp.o
                0x9d020a7c                TCPIP_ARP_HashEntryDelete

.text._DHCPSetTimeout
                0x9d020ae4       0x68
 .text._DHCPSetTimeout
                0x9d020ae4       0x68 build/default/production/_ext/1406599153/dhcp.o

.text.TCPIP_DNS_RemoveEntry
                0x9d020b4c       0x68
 .text.TCPIP_DNS_RemoveEntry
                0x9d020b4c       0x68 build/default/production/_ext/1406599153/dns.o
                0x9d020b4c                TCPIP_DNS_RemoveEntry

.text.TCPIP_STACK_IsBcastAddress
                0x9d020bb4       0x68
 .text.TCPIP_STACK_IsBcastAddress
                0x9d020bb4       0x68 build/default/production/_ext/1406599153/tcpip_manager.o
                0x9d020bb4                TCPIP_STACK_IsBcastAddress

.text._TCPIPStackModuleRxInsert
                0x9d020c1c       0x68
 .text._TCPIPStackModuleRxInsert
                0x9d020c1c       0x68 build/default/production/_ext/1406599153/tcpip_manager.o
                0x9d020c1c                _TCPIPStackModuleRxInsert

.text._sprintf_cdnopuxX
                0x9d020c84       0x68
 .text._sprintf_cdnopuxX
                0x9d020c84       0x68 c:/program files (x86)/microchip/xc32/v1.43/bin/bin/../../lib/gcc/pic32mx/4.8.3/../../../../pic32mx/lib\libc.a(sprintf_cdnopuxX.eo)
                0x9d020c84                _sprintf_cdnopuxX

.text.DRV_ETHPHY_SMIScanStatusGet
                0x9d020cec       0x64
 .text.DRV_ETHPHY_SMIScanStatusGet
                0x9d020cec       0x64 build/default/production/_ext/1684742680/drv_ethphy.o
                0x9d020cec                DRV_ETHPHY_SMIScanStatusGet

.text._DRV_ETHPHY_LinkStatPhaseRefresh
                0x9d020d50       0x64
 .text._DRV_ETHPHY_LinkStatPhaseRefresh
                0x9d020d50       0x64 build/default/production/_ext/1684742680/drv_ethphy.o

.text._DRV_ETHPHY_NegCompletePhaseRead1
                0x9d020db4       0x64
 .text._DRV_ETHPHY_NegCompletePhaseRead1
                0x9d020db4       0x64 build/default/production/_ext/1684742680/drv_ethphy.o

.text.DRV_TMR_Start
                0x9d020e18       0x64
 .text.DRV_TMR_Start
                0x9d020e18       0x64 build/default/production/_ext/1895062557/drv_tmr.o
                0x9d020e18                DRV_TMR_Start

.text._TcpSocketKill
                0x9d020e7c       0x64
 .text._TcpSocketKill
                0x9d020e7c       0x64 build/default/production/_ext/1406599153/tcp.o

.text.TCPIP_UDP_SignalHandlerRegister
                0x9d020ee0       0x64
 .text.TCPIP_UDP_SignalHandlerRegister
                0x9d020ee0       0x64 build/default/production/_ext/1406599153/udp.o
                0x9d020ee0                TCPIP_UDP_SignalHandlerRegister

.text.TCPIP_DHCP_Deinitialize
                0x9d020f44       0x64
 .text.TCPIP_DHCP_Deinitialize
                0x9d020f44       0x64 build/default/production/_ext/1406599153/dhcp.o
                0x9d020f44                TCPIP_DHCP_Deinitialize

.text.TCPIP_STACK_AddressServiceEvent
                0x9d020fa8       0x64
 .text.TCPIP_STACK_AddressServiceEvent
                0x9d020fa8       0x64 build/default/production/_ext/1406599153/tcpip_manager.o
                0x9d020fa8                TCPIP_STACK_AddressServiceEvent

.text.TCPIP_IPV4_Cleanup
                0x9d02100c       0x64
 .text.TCPIP_IPV4_Cleanup
                0x9d02100c       0x64 build/default/production/_ext/1406599153/ipv4.o

.text.DRV_ETHMAC_PIC32MACParametersGet
                0x9d021070       0x60
 .text.DRV_ETHMAC_PIC32MACParametersGet
                0x9d021070       0x60 build/default/production/_ext/508588874/drv_ethmac.o
                0x9d021070                DRV_ETHMAC_PIC32MACParametersGet

.text.TCPIP_UDP_GetIsReady
                0x9d0210d0       0x60
 .text.TCPIP_UDP_GetIsReady
                0x9d0210d0       0x60 build/default/production/_ext/1406599153/udp.o
                0x9d0210d0                TCPIP_UDP_GetIsReady

.text._DHCPOptionProcessMsgType
                0x9d021130       0x60
 .text._DHCPOptionProcessMsgType
                0x9d021130       0x60 build/default/production/_ext/1406599153/dhcp.o

.text._DNSClientCleanup
                0x9d021190       0x60
 .text._DNSClientCleanup
                0x9d021190       0x60 build/default/production/_ext/1406599153/dns.o

.text.ANNOUNCE_Notify
                0x9d0211f0       0x60
 .text.ANNOUNCE_Notify
                0x9d0211f0       0x60 build/default/production/_ext/1406599153/tcpip_announce.o

.text.TCPIP_OAHASH_EntriesRemoveAll
                0x9d021250       0x60
 .text.TCPIP_OAHASH_EntriesRemoveAll
                0x9d021250       0x60 build/default/production/_ext/1406599153/oahash.o
                0x9d021250                TCPIP_OAHASH_EntriesRemoveAll

.rodata         0x9d0212b0       0x60
 .rodata        0x9d0212b0       0x60 build/default/production/_ext/1406599153/tcpip_helpers.o

.text.IPv4RegisterFilter
                0x9d021310       0x60
 .text.IPv4RegisterFilter
                0x9d021310       0x60 build/default/production/_ext/1406599153/ipv4.o
                0x9d021310                IPv4RegisterFilter

.text._general_exception_handler
                0x9d021370       0x60
 .text._general_exception_handler
                0x9d021370       0x60 build/default/production/_ext/1688732426/system_exceptions.o
                0x9d021370                _general_exception_handler

.text.DRV_ETHPHY_LinkStatusGet
                0x9d0213d0       0x5c
 .text.DRV_ETHPHY_LinkStatusGet
                0x9d0213d0       0x5c build/default/production/_ext/1684742680/drv_ethphy.o
                0x9d0213d0                DRV_ETHPHY_LinkStatusGet

.text.DRV_ETHPHY_NegotiationResultGet
                0x9d02142c       0x5c
 .text.DRV_ETHPHY_NegotiationResultGet
                0x9d02142c       0x5c build/default/production/_ext/1684742680/drv_ethphy.o
                0x9d02142c                DRV_ETHPHY_NegotiationResultGet

.text.SYS_CONSOLE_Write
                0x9d021488       0x5c
 .text.SYS_CONSOLE_Write
                0x9d021488       0x5c build/default/production/_ext/877190136/sys_console.o
                0x9d021488                SYS_CONSOLE_Write

.text._TCPIP_HEAP_BufferMapNonCached
                0x9d0214e4       0x5c
 .text._TCPIP_HEAP_BufferMapNonCached
                0x9d0214e4       0x5c build/default/production/_ext/1406599153/tcpip_heap_alloc.o
                0x9d0214e4                _TCPIP_HEAP_BufferMapNonCached

.text._DNS_NetIsValid
                0x9d021540       0x5c
 .text._DNS_NetIsValid
                0x9d021540       0x5c build/default/production/_ext/1406599153/dns.o

.text.fnv_32_hash
                0x9d02159c       0x5c
 .text.fnv_32_hash
                0x9d02159c       0x5c build/default/production/_ext/1406599153/hash_fnv.o
                0x9d02159c                fnv_32_hash

.text.vsnprintf
                0x9d0215f8       0x5c
 .text.vsnprintf
                0x9d0215f8       0x5c c:/program files (x86)/microchip/xc32/v1.43/bin/bin/../../lib/gcc/pic32mx/4.8.3/../../../../pic32mx/lib\libc.a(vsnprintf.o)
                0x9d0215f8                vsnprintf

.text._MacTxDiscardQueues
                0x9d021654       0x58
 .text._MacTxDiscardQueues
                0x9d021654       0x58 build/default/production/_ext/508588874/drv_ethmac.o

.text.DRV_TMR_Open
                0x9d0216ac       0x58
 .text.DRV_TMR_Open
                0x9d0216ac       0x58 build/default/production/_ext/1895062557/drv_tmr.o
                0x9d0216ac                DRV_TMR_Open

.text.SYS_DEVCON_SystemUnlock
                0x9d021704       0x58
 .text.SYS_DEVCON_SystemUnlock
                0x9d021704       0x58 build/default/production/_ext/1470476842/sys_devcon.o
                0x9d021704                SYS_DEVCON_SystemUnlock

.text._DHCPOptionProcessLease
                0x9d02175c       0x58
 .text._DHCPOptionProcessLease
                0x9d02175c       0x58 build/default/production/_ext/1406599153/dhcp.o

.text._DHCPOptionProcessRenewT
                0x9d0217b4       0x58
 .text._DHCPOptionProcessRenewT
                0x9d0217b4       0x58 build/default/production/_ext/1406599153/dhcp.o

.text._DHCPOptionProcessRebindT
                0x9d02180c       0x58
 .text._DHCPOptionProcessRebindT
                0x9d02180c       0x58 build/default/production/_ext/1406599153/dhcp.o

.text.TCPIP_Helper_ProtectedSingleListLock
                0x9d021864       0x58
 .text.TCPIP_Helper_ProtectedSingleListLock
                0x9d021864       0x58 build/default/production/_ext/1406599153/tcpip_helpers.o
                0x9d021864                TCPIP_Helper_ProtectedSingleListLock

.text.TCPIP_STACK_NetByAddress
                0x9d0218bc       0x58
 .text.TCPIP_STACK_NetByAddress
                0x9d0218bc       0x58 build/default/production/_ext/1406599153/tcpip_manager.o
                0x9d0218bc                TCPIP_STACK_NetByAddress

.text.TCPIP_Notification_Remove
                0x9d021914       0x58
 .text.TCPIP_Notification_Remove
                0x9d021914       0x58 build/default/production/_ext/1406599153/tcpip_notify.o
                0x9d021914                TCPIP_Notification_Remove

.text.TCPIP_STACK_Init
                0x9d02196c       0x58
 .text.TCPIP_STACK_Init
                0x9d02196c       0x58 build/default/production/_ext/1688732426/system_init.o
                0x9d02196c                TCPIP_STACK_Init

.text.SYS_Tasks
                0x9d0219c4       0x58
 .text.SYS_Tasks
                0x9d0219c4       0x58 build/default/production/_ext/1688732426/system_tasks.o
                0x9d0219c4                SYS_Tasks

.text.main_entry
                0x9d021a1c       0x54
 .text.main_entry
                0x9d021a1c       0x54 c:/program files (x86)/microchip/xc32/v1.43/bin/bin/../../lib/gcc/pic32mx/4.8.3/../../../../pic32mx/lib/./proc/32MZ2048ECG064/crt0_mips32r2.o
                0x9d021a50                __crt0_exit

.text.DRV_ETHMAC_PIC32MACOpen
                0x9d021a70       0x54
 .text.DRV_ETHMAC_PIC32MACOpen
                0x9d021a70       0x54 build/default/production/_ext/508588874/drv_ethmac.o
                0x9d021a70                DRV_ETHMAC_PIC32MACOpen

.text.DRV_ETHMAC_PIC32MACLinkCheck
                0x9d021ac4       0x54
 .text.DRV_ETHMAC_PIC32MACLinkCheck
                0x9d021ac4       0x54 build/default/production/_ext/508588874/drv_ethmac.o
                0x9d021ac4                DRV_ETHMAC_PIC32MACLinkCheck

.text._DRV_ETHMAC_LinkStateStartLink
                0x9d021b18       0x54
 .text._DRV_ETHMAC_LinkStateStartLink
                0x9d021b18       0x54 build/default/production/_ext/508588874/drv_ethmac.o

.text._EnetDescriptorsCount
                0x9d021b6c       0x54
 .text._EnetDescriptorsCount
                0x9d021b6c       0x54 build/default/production/_ext/508588874/drv_ethmac_lib.o

.text.DRV_ETHPHY_Initialize
                0x9d021bc0       0x54
 .text.DRV_ETHPHY_Initialize
                0x9d021bc0       0x54 build/default/production/_ext/1684742680/drv_ethphy.o
                0x9d021bc0                DRV_ETHPHY_Initialize

.text.SYS_INT_SourceDisable
                0x9d021c14       0x54
 .text.SYS_INT_SourceDisable
                0x9d021c14       0x54 build/default/production/_ext/1979725680/sys_int_pic32.o
                0x9d021c14                SYS_INT_SourceDisable

.text.SYS_TMR_ObjectDelete
                0x9d021c68       0x54
 .text.SYS_TMR_ObjectDelete
                0x9d021c68       0x54 build/default/production/_ext/837595974/sys_tmr.o
                0x9d021c68                SYS_TMR_ObjectDelete

.text._XtlEventsTcp2Eth
                0x9d021cbc       0x50
 .text._XtlEventsTcp2Eth
                0x9d021cbc       0x50 build/default/production/_ext/508588874/drv_ethmac.o

.text.DRV_ETHPHY_HWConfigFlagsGet
                0x9d021d0c       0x50
 .text.DRV_ETHPHY_HWConfigFlagsGet
                0x9d021d0c       0x50 build/default/production/_ext/1684742680/drv_ethphy.o
                0x9d021d0c                DRV_ETHPHY_HWConfigFlagsGet

.text._DRV_ETHPHY_NegResultPhase_ANLPAD
                0x9d021d5c       0x50
 .text._DRV_ETHPHY_NegResultPhase_ANLPAD
                0x9d021d5c       0x50 build/default/production/_ext/1684742680/drv_ethphy.o

.text._DRV_ETHPHY_NegResultPhase_ANEXP
                0x9d021dac       0x50
 .text._DRV_ETHPHY_NegResultPhase_ANEXP
                0x9d021dac       0x50 build/default/production/_ext/1684742680/drv_ethphy.o

.text.SYS_CONSOLE_Initialize
                0x9d021dfc       0x50
 .text.SYS_CONSOLE_Initialize
                0x9d021dfc       0x50 build/default/production/_ext/877190136/sys_console.o
                0x9d021dfc                SYS_CONSOLE_Initialize

.text._TCPSetSourceAddress
                0x9d021e4c       0x50
 .text._TCPSetSourceAddress
                0x9d021e4c       0x50 build/default/production/_ext/1406599153/tcp.o

.text._TCPSetHalfFlushFlag
                0x9d021e9c       0x50
 .text._TCPSetHalfFlushFlag
                0x9d021e9c       0x50 build/default/production/_ext/1406599153/tcp.o

.rodata         0x9d021eec       0x50
 .rodata        0x9d021eec       0x50 build/default/production/_ext/1406599153/tcp.o

.text._DHCPOptionWriteParamRequest
                0x9d021f3c       0x50
 .text._DHCPOptionWriteParamRequest
                0x9d021f3c       0x50 build/default/production/_ext/1406599153/dhcp.o

.text._DHCPOptionProcessSrvIdent
                0x9d021f8c       0x50
 .text._DHCPOptionProcessSrvIdent
                0x9d021f8c       0x50 build/default/production/_ext/1406599153/dhcp.o

.text.TCPIP_DNS_OAHASH_KeyHash
                0x9d021fdc       0x50
 .text.TCPIP_DNS_OAHASH_KeyHash
                0x9d021fdc       0x50 build/default/production/_ext/1406599153/dns.o

.text.TCPIP_NBNS_Deinitialize
                0x9d02202c       0x50
 .text.TCPIP_NBNS_Deinitialize
                0x9d02202c       0x50 build/default/production/_ext/1406599153/nbns.o
                0x9d02202c                TCPIP_NBNS_Deinitialize

.text._TCPIPStackModuleSignalGet
                0x9d02207c       0x50
 .text._TCPIPStackModuleSignalGet
                0x9d02207c       0x50 build/default/production/_ext/1406599153/tcpip_manager.o
                0x9d02207c                _TCPIPStackModuleSignalGet

.text.TCPIP_Notification_Add
                0x9d0220cc       0x50
 .text.TCPIP_Notification_Add
                0x9d0220cc       0x50 build/default/production/_ext/1406599153/tcpip_notify.o
                0x9d0220cc                TCPIP_Notification_Add

.text.SYS_CLK_PeripheralFrequencyGet
                0x9d02211c       0x50
 .text.SYS_CLK_PeripheralFrequencyGet
                0x9d02211c       0x50 build/default/production/_ext/639803181/sys_clk_static.o
                0x9d02211c                SYS_CLK_PeripheralFrequencyGet

.text.sbrk      0x9d02216c       0x50
 .text.sbrk     0x9d02216c       0x50 c:/program files (x86)/microchip/xc32/v1.43/bin/bin/../../lib/gcc/pic32mx/4.8.3/../../../../pic32mx/lib\libpic32.a(sbrk.o)
                0x9d02216c                sbrk

.text._MACTxPacketAckCallback
                0x9d0221bc       0x4c
 .text._MACTxPacketAckCallback
                0x9d0221bc       0x4c build/default/production/_ext/508588874/drv_ethmac.o

.text._DRV_ETHPHY_ClientOpSmiRead
                0x9d022208       0x4c
 .text._DRV_ETHPHY_ClientOpSmiRead
                0x9d022208       0x4c build/default/production/_ext/1684742680/drv_ethphy.o

.text._DRV_PHY_NegCompleteSetOperResult
                0x9d022254       0x4c
 .text._DRV_PHY_NegCompleteSetOperResult
                0x9d022254       0x4c build/default/production/_ext/1684742680/drv_ethphy.o

.text.DRV_ETHPHY_Reset
                0x9d0222a0       0x4c
 .text.DRV_ETHPHY_Reset
                0x9d0222a0       0x4c build/default/production/_ext/1684742680/drv_ethphy.o
                0x9d0222a0                DRV_ETHPHY_Reset

.text.DRV_ETHPHY_NegotiationIsComplete
                0x9d0222ec       0x4c
 .text.DRV_ETHPHY_NegotiationIsComplete
                0x9d0222ec       0x4c build/default/production/_ext/1684742680/drv_ethphy.o
                0x9d0222ec                DRV_ETHPHY_NegotiationIsComplete

.text._DRV_ETHPHY_SetupPhaseNegotiate_SubPhase4
                0x9d022338       0x4c
 .text._DRV_ETHPHY_SetupPhaseNegotiate_SubPhase4
                0x9d022338       0x4c build/default/production/_ext/1684742680/drv_ethphy.o

.text.ReadCommandCharacter
                0x9d022384       0x4c
 .text.ReadCommandCharacter
                0x9d022384       0x4c build/default/production/_ext/1333902316/sys_command.o

.text.SYS_CONSOLE_Tasks
                0x9d0223d0       0x4c
 .text.SYS_CONSOLE_Tasks
                0x9d0223d0       0x4c build/default/production/_ext/877190136/sys_console.o
                0x9d0223d0                SYS_CONSOLE_Tasks

.text.UARTDeviceEventHandler
                0x9d02241c       0x4c
 .text.UARTDeviceEventHandler
                0x9d02241c       0x4c build/default/production/_ext/877190136/sys_console_uart.o
                0x9d02241c                UARTDeviceEventHandler

.text.SYS_TMR_TickCountGetLong
                0x9d022468       0x4c
 .text.SYS_TMR_TickCountGetLong
                0x9d022468       0x4c build/default/production/_ext/837595974/sys_tmr.o
                0x9d022468                SYS_TMR_TickCountGetLong

.text.TCPIP_UDP_Discard
                0x9d0224b4       0x4c
 .text.TCPIP_UDP_Discard
                0x9d0224b4       0x4c build/default/production/_ext/1406599153/udp.o
                0x9d0224b4                TCPIP_UDP_Discard

.text._TCPIP_HEAP_Calloc
                0x9d022500       0x4c
 .text._TCPIP_HEAP_Calloc
                0x9d022500       0x4c build/default/production/_ext/1406599153/tcpip_heap_internal.o

.text._ARPRemoveCacheEntries
                0x9d02254c       0x4c
 .text._ARPRemoveCacheEntries
                0x9d02254c       0x4c build/default/production/_ext/1406599153/arp.o

.text.TCPIP_NBNS_Cleanup
                0x9d022598       0x4c
 .text.TCPIP_NBNS_Cleanup
                0x9d022598       0x4c build/default/production/_ext/1406599153/nbns.o

.text.TCPIP_STACK_MACIdToString
                0x9d0225e4       0x4c
 .text.TCPIP_STACK_MACIdToString
                0x9d0225e4       0x4c build/default/production/_ext/1406599153/tcpip_manager.o
                0x9d0225e4                TCPIP_STACK_MACIdToString

.text.TCPIP_STACK_DNSServiceCanStart
                0x9d022630       0x4c
 .text.TCPIP_STACK_DNSServiceCanStart
                0x9d022630       0x4c build/default/production/_ext/1406599153/tcpip_manager.o
                0x9d022630                TCPIP_STACK_DNSServiceCanStart

.text.TCPIP_Notification_RemoveAll
                0x9d02267c       0x4c
 .text.TCPIP_Notification_RemoveAll
                0x9d02267c       0x4c build/default/production/_ext/1406599153/tcpip_notify.o
                0x9d02267c                TCPIP_Notification_RemoveAll

.text.SYS_CLK_SecondaryOscillatorEnable
                0x9d0226c8       0x4c
 .text.SYS_CLK_SecondaryOscillatorEnable
                0x9d0226c8       0x4c build/default/production/_ext/639803181/sys_clk_static.o
                0x9d0226c8                SYS_CLK_SecondaryOscillatorEnable

.text.calloc    0x9d022714       0x4c
 .text.calloc   0x9d022714       0x4c c:/program files (x86)/microchip/xc32/v1.43/bin/bin/../../lib/gcc/pic32mx/4.8.3/../../../../pic32mx/lib\libc.a(calloc.o)
                0x9d022714                calloc

.text._DRV_ETHPHY_ClientOpReset
                0x9d022760       0x48
 .text._DRV_ETHPHY_ClientOpReset
                0x9d022760       0x48 build/default/production/_ext/1684742680/drv_ethphy.o

.text._DRV_ETHPHY_ClientOpNegRestart
                0x9d0227a8       0x48
 .text._DRV_ETHPHY_ClientOpNegRestart
                0x9d0227a8       0x48 build/default/production/_ext/1684742680/drv_ethphy.o

.text._DRV_ETHPHY_ClientOpNegResult
                0x9d0227f0       0x48
 .text._DRV_ETHPHY_ClientOpNegResult
                0x9d0227f0       0x48 build/default/production/_ext/1684742680/drv_ethphy.o

.text._DRV_ETHPHY_ClientOpNegComplete
                0x9d022838       0x48
 .text._DRV_ETHPHY_ClientOpNegComplete
                0x9d022838       0x48 build/default/production/_ext/1684742680/drv_ethphy.o

.text._DRV_ETHPHY_ClientOpLinkStat
                0x9d022880       0x48
 .text._DRV_ETHPHY_ClientOpLinkStat
                0x9d022880       0x48 build/default/production/_ext/1684742680/drv_ethphy.o

.text._DRV_ETHPHY_ClientOpSetup
                0x9d0228c8       0x48
 .text._DRV_ETHPHY_ClientOpSetup
                0x9d0228c8       0x48 build/default/production/_ext/1684742680/drv_ethphy.o

.text._DRV_ETHPHY_SetupPhaseNegotiate
                0x9d022910       0x48
 .text._DRV_ETHPHY_SetupPhaseNegotiate
                0x9d022910       0x48 build/default/production/_ext/1684742680/drv_ethphy.o

.text.DRV_ETHPHY_RestartNegotiation
                0x9d022958       0x48
 .text.DRV_ETHPHY_RestartNegotiation
                0x9d022958       0x48 build/default/production/_ext/1684742680/drv_ethphy.o
                0x9d022958                DRV_ETHPHY_RestartNegotiation

.text.DRV_TMR_Close
                0x9d0229a0       0x48
 .text.DRV_TMR_Close
                0x9d0229a0       0x48 build/default/production/_ext/1895062557/drv_tmr.o
                0x9d0229a0                DRV_TMR_Close

.text.SYS_DEVCON_SystemLock
                0x9d0229e8       0x48
 .text.SYS_DEVCON_SystemLock
                0x9d0229e8       0x48 build/default/production/_ext/1470476842/sys_devcon.o
                0x9d0229e8                SYS_DEVCON_SystemLock

.text.SYS_RESET_SoftwareReset
                0x9d022a30       0x48
 .text.SYS_RESET_SoftwareReset
                0x9d022a30       0x48 build/default/production/_ext/1076061456/sys_reset.o
                0x9d022a30                SYS_RESET_SoftwareReset

.text._UDPIsAvailablePort
                0x9d022a78       0x48
 .text._UDPIsAvailablePort
                0x9d022a78       0x48 build/default/production/_ext/1406599153/udp.o

.text.TCPIP_HEAP_Create
                0x9d022ac0       0x48
 .text.TCPIP_HEAP_Create
                0x9d022ac0       0x48 build/default/production/_ext/1406599153/tcpip_heap_alloc.o
                0x9d022ac0                TCPIP_HEAP_Create

.text.TCPIP_ARP_HandlerDeRegister
                0x9d022b08       0x48
 .text.TCPIP_ARP_HandlerDeRegister
                0x9d022b08       0x48 build/default/production/_ext/1406599153/arp.o
                0x9d022b08                TCPIP_ARP_HandlerDeRegister

.text._DHCPOptionWriteMsgType
                0x9d022b50       0x48
 .text._DHCPOptionWriteMsgType
                0x9d022b50       0x48 build/default/production/_ext/1406599153/dhcp.o

.text.strupr    0x9d022b98       0x48
 .text.strupr   0x9d022b98       0x48 build/default/production/_ext/1268476361/helpers.o
                0x9d022b98                strupr

.text.TCPIP_Helper_SingleListAppend
                0x9d022be0       0x48
 .text.TCPIP_Helper_SingleListAppend
                0x9d022be0       0x48 build/default/production/_ext/1406599153/tcpip_helpers.o
                0x9d022be0                TCPIP_Helper_SingleListAppend

.text.TCPIP_STACK_IPAddToNet
                0x9d022c28       0x48
 .text.TCPIP_STACK_IPAddToNet
                0x9d022c28       0x48 build/default/production/_ext/1406599153/tcpip_manager.o
                0x9d022c28                TCPIP_STACK_IPAddToNet

.text._bootstrap_exception_handler
                0x9d022c70       0x48
 .text._bootstrap_exception_handler
                0x9d022c70       0x48 c:/program files (x86)/microchip/xc32/v1.43/bin/bin/../../lib/gcc/pic32mx/4.8.3/../../../../pic32mx/lib\libpic32.a(default-bootstrap-exception-handler.o)
                0x9d022c70                _bootstrap_exception_handler

.text._cache_err_exception_handler
                0x9d022cb8       0x48
 .text._cache_err_exception_handler
                0x9d022cb8       0x48 c:/program files (x86)/microchip/xc32/v1.43/bin/bin/../../lib/gcc/pic32mx/4.8.3/../../../../pic32mx/lib\libpic32.a(default-cache-err-exception-handler.o)
                0x9d022cb8                _cache_err_exception_handler

.text._simple_tlb_refill_exception_handler
                0x9d022d00       0x48
 .text._simple_tlb_refill_exception_handler
                0x9d022d00       0x48 c:/program files (x86)/microchip/xc32/v1.43/bin/bin/../../lib/gcc/pic32mx/4.8.3/../../../../pic32mx/lib\libpic32.a(default-simple-tlb-refill-exception-handler.o)
                0x9d022d00                _simple_tlb_refill_exception_handler

.text.DRV_ETHPHY_Tasks
                0x9d022d48       0x44
 .text.DRV_ETHPHY_Tasks
                0x9d022d48       0x44 build/default/production/_ext/1684742680/drv_ethphy.o
                0x9d022d48                DRV_ETHPHY_Tasks

.rodata         0x9d022d8c       0x44
 .rodata        0x9d022d8c       0x44 build/default/production/_ext/1406599153/udp.o

.text.TCPIP_UDP_TxPointerGet
                0x9d022dd0       0x44
 .text.TCPIP_UDP_TxPointerGet
                0x9d022dd0       0x44 build/default/production/_ext/1406599153/udp.o
                0x9d022dd0                TCPIP_UDP_TxPointerGet

.text._SwapARPPacket
                0x9d022e14       0x44
 .text._SwapARPPacket
                0x9d022e14       0x44 build/default/production/_ext/1406599153/arp.o

.text.TCPIP_DHCP_HandlerDeRegister
                0x9d022e58       0x44
 .text.TCPIP_DHCP_HandlerDeRegister
                0x9d022e58       0x44 build/default/production/_ext/1406599153/dhcp.o
                0x9d022e58                TCPIP_DHCP_HandlerDeRegister

.text.TCPIP_DNS_ClientDeinitialize
                0x9d022e9c       0x44
 .text.TCPIP_DNS_ClientDeinitialize
                0x9d022e9c       0x44 build/default/production/_ext/1406599153/dns.o
                0x9d022e9c                TCPIP_DNS_ClientDeinitialize

.text.TCPIP_Helper_ProtectedSingleListInitialize
                0x9d022ee0       0x44
 .text.TCPIP_Helper_ProtectedSingleListInitialize
                0x9d022ee0       0x44 build/default/production/_ext/1406599153/tcpip_helpers.o
                0x9d022ee0                TCPIP_Helper_ProtectedSingleListInitialize

.text._TCPIP_STACK_TickHandler
                0x9d022f24       0x44
 .text._TCPIP_STACK_TickHandler
                0x9d022f24       0x44 build/default/production/_ext/1406599153/tcpip_manager.o

.text.TCPIP_STACK_NetIsBcastAddress
                0x9d022f68       0x44
 .text.TCPIP_STACK_NetIsBcastAddress
                0x9d022f68       0x44 build/default/production/_ext/1406599153/tcpip_manager.o
                0x9d022f68                TCPIP_STACK_NetIsBcastAddress

.text.Ipv4DeRegisterFilter
                0x9d022fac       0x44
 .text.Ipv4DeRegisterFilter
                0x9d022fac       0x44 build/default/production/_ext/1406599153/ipv4.o
                0x9d022fac                Ipv4DeRegisterFilter

.text.PLIB_ETH_RxSetBufferSize
                0x9d022ff0       0x44
 .text.PLIB_ETH_RxSetBufferSize
                0x9d022ff0       0x44 ..\..\..\..\..\microchip\harmony\v1_07\bin\framework\peripheral\PIC32MZ2048ECG064_peripherals.a(plib_eth_lib.o)
                0x9d022ff0                PLIB_ETH_RxSetBufferSize

.text           0x9d023034       0x88
 .text          0x9d023034       0x44 c:/program files (x86)/microchip/xc32/v1.43/bin/bin/../../lib/gcc/pic32mx/4.8.3/../../../../pic32mx/lib\pic32_software_reset.o
                0x9d023034                __pic32_software_reset
 .text          0x9d023078       0x44 c:/program files (x86)/microchip/xc32/v1.43/bin/bin/../../lib/gcc/pic32mx/4.8.3\libgcc.a(floatunsidf.o)
                0x9d023078                __floatunsidf

.text._DRV_PHY_SetOperDoneResult
                0x9d0230bc       0x40
 .text._DRV_PHY_SetOperDoneResult
                0x9d0230bc       0x40 build/default/production/_ext/1684742680/drv_ethphy.o

.text._DRV_ETHPHY_NegCompletePhaseResultNoWait
                0x9d0230fc       0x40
 .text._DRV_ETHPHY_NegCompletePhaseResultNoWait
                0x9d0230fc       0x40 build/default/production/_ext/1684742680/drv_ethphy.o

.text.SendCommandCharacter
                0x9d02313c       0x40
 .text.SendCommandCharacter
                0x9d02313c       0x40 build/default/production/_ext/1333902316/sys_command.o

.text.TCPIP_Helper_ProtectedSingleListUnlock
                0x9d02317c       0x40
 .text.TCPIP_Helper_ProtectedSingleListUnlock
                0x9d02317c       0x40 build/default/production/_ext/1406599153/tcpip_helpers.o
                0x9d02317c                TCPIP_Helper_ProtectedSingleListUnlock

.text._DRV_ETHMAC_LinkStateDown
                0x9d0231bc       0x3c
 .text._DRV_ETHMAC_LinkStateDown
                0x9d0231bc       0x3c build/default/production/_ext/508588874/drv_ethmac.o

.text.DRV_ETHMAC_SingleListHeadRemove
                0x9d0231f8       0x3c
 .text.DRV_ETHMAC_SingleListHeadRemove
                0x9d0231f8       0x3c build/default/production/_ext/508588874/drv_ethmac_lib.o
                0x9d0231f8                DRV_ETHMAC_SingleListHeadRemove

.text._DRV_ETHPHY_ClientOpSmiWrite
                0x9d023234       0x3c
 .text._DRV_ETHPHY_ClientOpSmiWrite
                0x9d023234       0x3c build/default/production/_ext/1684742680/drv_ethphy.o

.text._DRV_ETHPHY_NegRestartPhaseWrite
                0x9d023270       0x3c
 .text._DRV_ETHPHY_NegRestartPhaseWrite
                0x9d023270       0x3c build/default/production/_ext/1684742680/drv_ethphy.o

.text.DRV_USART_ClientStatus
                0x9d0232ac       0x3c
 .text.DRV_USART_ClientStatus
                0x9d0232ac       0x3c build/default/production/_ext/1601094287/drv_usart.o
                0x9d0232ac                DRV_USART_ClientStatus

.text.SendCommandMessage
                0x9d0232e8       0x3c
 .text.SendCommandMessage
                0x9d0232e8       0x3c build/default/production/_ext/1333902316/sys_command.o

.text.Console_UART_ReadC
                0x9d023324       0x3c
 .text.Console_UART_ReadC
                0x9d023324       0x3c build/default/production/_ext/877190136/sys_console_uart.o
                0x9d023324                Console_UART_ReadC

.text.SYS_DEBUG_Message
                0x9d023360       0x3c
 .text.SYS_DEBUG_Message
                0x9d023360       0x3c build/default/production/_ext/996864500/sys_debug.o
                0x9d023360                SYS_DEBUG_Message

.text._UDPTxPktValid
                0x9d02339c       0x3c
 .text._UDPTxPktValid
                0x9d02339c       0x3c build/default/production/_ext/1406599153/udp.o

.text._UDPFreeRxQueue
                0x9d0233d8       0x3c
 .text._UDPFreeRxQueue
                0x9d0233d8       0x3c build/default/production/_ext/1406599153/udp.o

.text._ARPTxAckFnc
                0x9d023414       0x3c
 .text._ARPTxAckFnc
                0x9d023414       0x3c build/default/production/_ext/1406599153/arp.o

.text.TCPIP_ARP_HashKeyHash
                0x9d023450       0x3c
 .text.TCPIP_ARP_HashKeyHash
                0x9d023450       0x3c build/default/production/_ext/1406599153/arp.o
                0x9d023450                TCPIP_ARP_HashKeyHash

.text.LFSRRand  0x9d02348c       0x3c
 .text.LFSRRand
                0x9d02348c       0x3c build/default/production/_ext/1268476361/lfsr.o
                0x9d02348c                LFSRRand

.text.TCPIP_OAHASH_Initialize
                0x9d0234c8       0x3c
 .text.TCPIP_OAHASH_Initialize
                0x9d0234c8       0x3c build/default/production/_ext/1406599153/oahash.o
                0x9d0234c8                TCPIP_OAHASH_Initialize

.text.TCPIP_Helper_SingleListHeadRemove
                0x9d023504       0x3c
 .text.TCPIP_Helper_SingleListHeadRemove
                0x9d023504       0x3c build/default/production/_ext/1406599153/tcpip_helpers.o
                0x9d023504                TCPIP_Helper_SingleListHeadRemove

.text._TCPIPSignalEntryNotify
                0x9d023540       0x3c
 .text._TCPIPSignalEntryNotify
                0x9d023540       0x3c build/default/production/_ext/1406599153/tcpip_manager.o

.text._TCPIPStackSetConfigAddress
                0x9d02357c       0x3c
 .text._TCPIPStackSetConfigAddress
                0x9d02357c       0x3c build/default/production/_ext/1406599153/tcpip_manager.o
                0x9d02357c                _TCPIPStackSetConfigAddress

.text._EthMacReset
                0x9d0235b8       0x38
 .text._EthMacReset
                0x9d0235b8       0x38 build/default/production/_ext/508588874/drv_ethmac_lib.o

.text.DRV_ETHMAC_LibDescriptorGetBuffer
                0x9d0235f0       0x38
 .text.DRV_ETHMAC_LibDescriptorGetBuffer
                0x9d0235f0       0x38 build/default/production/_ext/508588874/drv_ethmac_lib.o
                0x9d0235f0                DRV_ETHMAC_LibDescriptorGetBuffer

.text.DRV_ETHMAC_LibRxPendingBuffersGet
                0x9d023628       0x38
 .text.DRV_ETHMAC_LibRxPendingBuffersGet
                0x9d023628       0x38 build/default/production/_ext/508588874/drv_ethmac_lib.o
                0x9d023628                DRV_ETHMAC_LibRxPendingBuffersGet

.text.DRV_ETHMAC_LibRxScheduledBuffersGet
                0x9d023660       0x38
 .text.DRV_ETHMAC_LibRxScheduledBuffersGet
                0x9d023660       0x38 build/default/production/_ext/508588874/drv_ethmac_lib.o
                0x9d023660                DRV_ETHMAC_LibRxScheduledBuffersGet

.text.DRV_ETHMAC_LibTxPendingBuffersGet
                0x9d023698       0x38
 .text.DRV_ETHMAC_LibTxPendingBuffersGet
                0x9d023698       0x38 build/default/production/_ext/508588874/drv_ethmac_lib.o
                0x9d023698                DRV_ETHMAC_LibTxPendingBuffersGet

.text._DRV_PHY_SMIReadStart
                0x9d0236d0       0x38
 .text._DRV_PHY_SMIReadStart
                0x9d0236d0       0x38 build/default/production/_ext/1684742680/drv_ethphy.o

.text._DRV_PHY_SMIWriteStart
                0x9d023708       0x38
 .text._DRV_PHY_SMIWriteStart
                0x9d023708       0x38 build/default/production/_ext/1684742680/drv_ethphy.o

.text.DRV_ETHPHY_SMIStatus
                0x9d023740       0x38
 .text.DRV_ETHPHY_SMIStatus
                0x9d023740       0x38 build/default/production/_ext/1684742680/drv_ethphy.o
                0x9d023740                DRV_ETHPHY_SMIStatus

.text._DRV_ETHPHY_ResetPhaseIdle
                0x9d023778       0x38
 .text._DRV_ETHPHY_ResetPhaseIdle
                0x9d023778       0x38 build/default/production/_ext/1684742680/drv_ethphy.o

.text.CommandReset
                0x9d0237b0       0x38
 .text.CommandReset
                0x9d0237b0       0x38 build/default/production/_ext/1333902316/sys_command.o

.text._ARPAllocateTxPacket
                0x9d0237e8       0x38
 .text._ARPAllocateTxPacket
                0x9d0237e8       0x38 build/default/production/_ext/1406599153/arp.o

.text.TCPIP_STACK_AddressServiceDefaultSet
                0x9d023820       0x38
 .text.TCPIP_STACK_AddressServiceDefaultSet
                0x9d023820       0x38 build/default/production/_ext/1406599153/tcpip_manager.o
                0x9d023820                TCPIP_STACK_AddressServiceDefaultSet

.text.DRV_ETHMAC_LibTxAcknowledgeBuffer
                0x9d023858       0x34
 .text.DRV_ETHMAC_LibTxAcknowledgeBuffer
                0x9d023858       0x34 build/default/production/_ext/508588874/drv_ethmac_lib.o
                0x9d023858                DRV_ETHMAC_LibTxAcknowledgeBuffer

.text.DRV_ETHPHY_PhyAddressGet
                0x9d02388c       0x34
 .text.DRV_ETHPHY_PhyAddressGet
                0x9d02388c       0x34 build/default/production/_ext/1684742680/drv_ethphy.o
                0x9d02388c                DRV_ETHPHY_PhyAddressGet

.text.DRV_ETHPHY_ClientOperationAbort
                0x9d0238c0       0x34
 .text.DRV_ETHPHY_ClientOperationAbort
                0x9d0238c0       0x34 build/default/production/_ext/1684742680/drv_ethphy.o
                0x9d0238c0                DRV_ETHPHY_ClientOperationAbort

.text._DRV_ETHPHY_LinkStatPhaseIdle
                0x9d0238f4       0x34
 .text._DRV_ETHPHY_LinkStatPhaseIdle
                0x9d0238f4       0x34 build/default/production/_ext/1684742680/drv_ethphy.o

.text._DRV_ETHPHY_NegResultPhaseIdle
                0x9d023928       0x34
 .text._DRV_ETHPHY_NegResultPhaseIdle
                0x9d023928       0x34 build/default/production/_ext/1684742680/drv_ethphy.o

.text._DRV_ETHPHY_NegCompletePhaseIdle
                0x9d02395c       0x34
 .text._DRV_ETHPHY_NegCompletePhaseIdle
                0x9d02395c       0x34 build/default/production/_ext/1684742680/drv_ethphy.o

.text._DRV_ETHPHY_NegRestartPhaseIdle
                0x9d023990       0x34
 .text._DRV_ETHPHY_NegRestartPhaseIdle
                0x9d023990       0x34 build/default/production/_ext/1684742680/drv_ethphy.o

.text._UDPSocketDcpt
                0x9d0239c4       0x34
 .text._UDPSocketDcpt
                0x9d0239c4       0x34 build/default/production/_ext/1406599153/udp.o

.text._UDPUpdatePacketLock
                0x9d0239f8       0x34
 .text._UDPUpdatePacketLock
                0x9d0239f8       0x34 build/default/production/_ext/1406599153/udp.o

.text.TCPIP_STACK_IndexToNet
                0x9d023a2c       0x34
 .text.TCPIP_STACK_IndexToNet
                0x9d023a2c       0x34 build/default/production/_ext/1406599153/tcpip_manager.o
                0x9d023a2c                TCPIP_STACK_IndexToNet

.text.TCPIP_STACK_NetAddressBcast
                0x9d023a60       0x34
 .text.TCPIP_STACK_NetAddressBcast
                0x9d023a60       0x34 build/default/production/_ext/1406599153/tcpip_manager.o
                0x9d023a60                TCPIP_STACK_NetAddressBcast

.text.TCPIP_STACK_DNSServiceSelect
                0x9d023a94       0x34
 .text.TCPIP_STACK_DNSServiceSelect
                0x9d023a94       0x34 build/default/production/_ext/1406599153/tcpip_manager.o
                0x9d023a94                TCPIP_STACK_DNSServiceSelect

.text.TCPIP_STACK_AddressServiceSelect
                0x9d023ac8       0x34
 .text.TCPIP_STACK_AddressServiceSelect
                0x9d023ac8       0x34 build/default/production/_ext/1406599153/tcpip_manager.o
                0x9d023ac8                TCPIP_STACK_AddressServiceSelect

.text._TCPIPStackHandleToNetLinked
                0x9d023afc       0x34
 .text._TCPIPStackHandleToNetLinked
                0x9d023afc       0x34 build/default/production/_ext/1406599153/tcpip_manager.o
                0x9d023afc                _TCPIPStackHandleToNetLinked

.text.TCPIP_STACK_NetIsReady
                0x9d023b30       0x34
 .text.TCPIP_STACK_NetIsReady
                0x9d023b30       0x34 build/default/production/_ext/1406599153/tcpip_manager.o
                0x9d023b30                TCPIP_STACK_NetIsReady

.text.SYS_INT_SourceRestore
                0x9d023b64       0x34
 .text.SYS_INT_SourceRestore
                0x9d023b64       0x34 build/default/production/_ext/1688732426/system_interrupt.o
                0x9d023b64                SYS_INT_SourceRestore

.text._MacCallocCallback
                0x9d023b98       0x30
 .text._MacCallocCallback
                0x9d023b98       0x30 build/default/production/_ext/508588874/drv_ethmac.o

.text.DRV_ETHMAC_PIC32MACDeinitialize
                0x9d023bc8       0x30
 .text.DRV_ETHMAC_PIC32MACDeinitialize
                0x9d023bc8       0x30 build/default/production/_ext/508588874/drv_ethmac.o
                0x9d023bc8                DRV_ETHMAC_PIC32MACDeinitialize

.text.DRV_ETHMAC_SingleListTailAdd
                0x9d023bf8       0x30
 .text.DRV_ETHMAC_SingleListTailAdd
                0x9d023bf8       0x30 build/default/production/_ext/508588874/drv_ethmac_lib.o
                0x9d023bf8                DRV_ETHMAC_SingleListTailAdd

.text.DRV_ETHPHY_VendorDataGet
                0x9d023c28       0x30
 .text.DRV_ETHPHY_VendorDataGet
                0x9d023c28       0x30 build/default/production/_ext/1684742680/drv_ethphy.o
                0x9d023c28                DRV_ETHPHY_VendorDataGet

.text.SYS_CMDIO_GET_HANDLE
                0x9d023c58       0x30
 .text.SYS_CMDIO_GET_HANDLE
                0x9d023c58       0x30 build/default/production/_ext/1333902316/sys_command.o
                0x9d023c58                SYS_CMDIO_GET_HANDLE

.text.popQueue  0x9d023c88       0x30
 .text.popQueue
                0x9d023c88       0x30 build/default/production/_ext/877190136/sys_console_uart.o

.text.SYS_DEBUG_Initialize
                0x9d023cb8       0x30
 .text.SYS_DEBUG_Initialize
                0x9d023cb8       0x30 build/default/production/_ext/996864500/sys_debug.o
                0x9d023cb8                SYS_DEBUG_Initialize

.text._TCPIP_HEAP_FreeSize
                0x9d023ce8       0x30
 .text._TCPIP_HEAP_FreeSize
                0x9d023ce8       0x30 build/default/production/_ext/1406599153/tcpip_heap_internal.o

.text._DHCPSocketRxSignalHandler
                0x9d023d18       0x30
 .text._DHCPSocketRxSignalHandler
                0x9d023d18       0x30 build/default/production/_ext/1406599153/dhcp.o

.text._DNSSocketRxSignalHandler
                0x9d023d48       0x30
 .text._DNSSocketRxSignalHandler
                0x9d023d48       0x30 build/default/production/_ext/1406599153/dns.o

.text.NBNSSocketRxSignalHandler
                0x9d023d78       0x30
 .text.NBNSSocketRxSignalHandler
                0x9d023d78       0x30 build/default/production/_ext/1406599153/nbns.o

.text._TCPIP_AnnounceSocketRxSignalHandler
                0x9d023da8       0x30
 .text._TCPIP_AnnounceSocketRxSignalHandler
                0x9d023da8       0x30 build/default/production/_ext/1406599153/tcpip_announce.o

.text.TCPIP_OAHASH_EntryRemove
                0x9d023dd8       0x30
 .text.TCPIP_OAHASH_EntryRemove
                0x9d023dd8       0x30 build/default/production/_ext/1406599153/oahash.o
                0x9d023dd8                TCPIP_OAHASH_EntryRemove

.text.TCPIP_Helper_SingleListTailAdd
                0x9d023e08       0x30
 .text.TCPIP_Helper_SingleListTailAdd
                0x9d023e08       0x30 build/default/production/_ext/1406599153/tcpip_helpers.o
                0x9d023e08                TCPIP_Helper_SingleListTailAdd

.text.TCPIP_STACK_NetAddressGet
                0x9d023e38       0x30
 .text.TCPIP_STACK_NetAddressGet
                0x9d023e38       0x30 build/default/production/_ext/1406599153/tcpip_manager.o
                0x9d023e38                TCPIP_STACK_NetAddressGet

.text.TCPIP_STACK_NetMaskGet
                0x9d023e68       0x30
 .text.TCPIP_STACK_NetMaskGet
                0x9d023e68       0x30 build/default/production/_ext/1406599153/tcpip_manager.o
                0x9d023e68                TCPIP_STACK_NetMaskGet

.text.TCPIP_STACK_NetworkIsLinked
                0x9d023e98       0x30
 .text.TCPIP_STACK_NetworkIsLinked
                0x9d023e98       0x30 build/default/production/_ext/1406599153/tcpip_manager.o
                0x9d023e98                TCPIP_STACK_NetworkIsLinked

.text._TCPIPStackModuleRxExtract
                0x9d023ec8       0x30
 .text._TCPIPStackModuleRxExtract
                0x9d023ec8       0x30 build/default/production/_ext/1406599153/tcpip_manager.o
                0x9d023ec8                _TCPIPStackModuleRxExtract

.rodata         0x9d023ef8       0x30
 .rodata        0x9d023ef8       0x30 build/default/production/_ext/1406599153/ipv4.o

.text.free      0x9d023f28       0x30
 .text.free     0x9d023f28       0x30 c:/program files (x86)/microchip/xc32/v1.43/bin/bin/../../lib/gcc/pic32mx/4.8.3/../../../../pic32mx/lib\libc.a(malloc.o)
                0x9d023f28                free

.text.DRV_ETHPHY_Reinitialize
                0x9d023f58       0x2c
 .text.DRV_ETHPHY_Reinitialize
                0x9d023f58       0x2c build/default/production/_ext/1684742680/drv_ethphy.o
                0x9d023f58                DRV_ETHPHY_Reinitialize

.text.DRV_USART_BufferEventHandlerSet
                0x9d023f84       0x2c
 .text.DRV_USART_BufferEventHandlerSet
                0x9d023f84       0x2c build/default/production/_ext/1601094287/drv_usart_buffer_queue.o
                0x9d023f84                DRV_USART_BufferEventHandlerSet

.text._SYS_TMR_AlarmCallback
                0x9d023fb0       0x2c
 .text._SYS_TMR_AlarmCallback
                0x9d023fb0       0x2c build/default/production/_ext/837595974/sys_tmr.o

.text.TCPIP_OAHASH_EntryGet
                0x9d023fdc       0x2c
 .text.TCPIP_OAHASH_EntryGet
                0x9d023fdc       0x2c build/default/production/_ext/1406599153/oahash.o
                0x9d023fdc                TCPIP_OAHASH_EntryGet

.text.TCPIP_Notification_Deinitialize
                0x9d024008       0x2c
 .text.TCPIP_Notification_Deinitialize
                0x9d024008       0x2c build/default/production/_ext/1406599153/tcpip_notify.o
                0x9d024008                TCPIP_Notification_Deinitialize

.text._stub_sbd_memlayout
                0x9d024034       0x2c
 .text._stub_sbd_memlayout
                0x9d024034       0x2c c:/program files (x86)/microchip/xc32/v1.43/bin/bin/../../lib/gcc/pic32mx/4.8.3/../../../../pic32mx/lib\libpic32.a(sbrk.o)
                0x9d024034                _sbd_memlayout
                0x9d024034                _stub_sbd_memlayout

.text._MacTxFreeCallback
                0x9d024060       0x28
 .text._MacTxFreeCallback
                0x9d024060       0x28 build/default/production/_ext/508588874/drv_ethmac.o

.text._DRV_USART_DriverHandleValidate
                0x9d024088       0x28
 .text._DRV_USART_DriverHandleValidate
                0x9d024088       0x28 build/default/production/_ext/1601094287/drv_usart.o
                0x9d024088                _DRV_USART_DriverHandleValidate

.text.Console_UART_RegisterCallback
                0x9d0240b0       0x28
 .text.Console_UART_RegisterCallback
                0x9d0240b0       0x28 build/default/production/_ext/877190136/sys_console_uart.o
                0x9d0240b0                Console_UART_RegisterCallback

.text.SYS_TMR_TickCountGet
                0x9d0240d8       0x28
 .text.SYS_TMR_TickCountGet
                0x9d0240d8       0x28 build/default/production/_ext/837595974/sys_tmr.o
                0x9d0240d8                SYS_TMR_TickCountGet

.text._TCPIP_HEAP_Size
                0x9d024100       0x28
 .text._TCPIP_HEAP_Size
                0x9d024100       0x28 build/default/production/_ext/1406599153/tcpip_heap_internal.o

.text._TCPIP_HEAP_LastError
                0x9d024128       0x28
 .text._TCPIP_HEAP_LastError
                0x9d024128       0x28 build/default/production/_ext/1406599153/tcpip_heap_internal.o

.text.TCPIP_STACK_NetMACAddressGet
                0x9d024150       0x28
 .text.TCPIP_STACK_NetMACAddressGet
                0x9d024150       0x28 build/default/production/_ext/1406599153/tcpip_manager.o
                0x9d024150                TCPIP_STACK_NetMACAddressGet

.text._TCPIPStackSignalHandlerDeregister
                0x9d024178       0x28
 .text._TCPIPStackSignalHandlerDeregister
                0x9d024178       0x28 build/default/production/_ext/1406599153/tcpip_manager.o
                0x9d024178                _TCPIPStackSignalHandlerDeregister

.text.PLIB_ETH_MACSetMaxFrame
                0x9d0241a0       0x28
 .text.PLIB_ETH_MACSetMaxFrame
                0x9d0241a0       0x28 ..\..\..\..\..\microchip\harmony\v1_07\bin\framework\peripheral\PIC32MZ2048ECG064_peripherals.a(plib_eth_lib.o)
                0x9d0241a0                PLIB_ETH_MACSetMaxFrame

.text.DRV_ETHMAC_PIC32MACClose
                0x9d0241c8       0x24
 .text.DRV_ETHMAC_PIC32MACClose
                0x9d0241c8       0x24 build/default/production/_ext/508588874/drv_ethmac.o
                0x9d0241c8                DRV_ETHMAC_PIC32MACClose

.text.IsCommandReady
                0x9d0241ec       0x24
 .text.IsCommandReady
                0x9d0241ec       0x24 build/default/production/_ext/1333902316/sys_command.o

.text.SYS_TMR_TickCounterFrequencyGet
                0x9d024210       0x24
 .text.SYS_TMR_TickCounterFrequencyGet
                0x9d024210       0x24 build/default/production/_ext/837595974/sys_tmr.o
                0x9d024210                SYS_TMR_TickCounterFrequencyGet

.text.SYS_TMR_SystemCountFrequencyGet
                0x9d024234       0x24
 .text.SYS_TMR_SystemCountFrequencyGet
                0x9d024234       0x24 build/default/production/_ext/837595974/sys_tmr.o
                0x9d024234                SYS_TMR_SystemCountFrequencyGet

.text.TCPIP_UDP_Put
                0x9d024258       0x24
 .text.TCPIP_UDP_Put
                0x9d024258       0x24 build/default/production/_ext/1406599153/udp.o
                0x9d024258                TCPIP_UDP_Put

.text._DHCPOptionWriteEnd
                0x9d02427c       0x24
 .text._DHCPOptionWriteEnd
                0x9d02427c       0x24 build/default/production/_ext/1406599153/dhcp.o

.text._TCPIPSignalEntrySetNotify
                0x9d0242a0       0x24
 .text._TCPIPSignalEntrySetNotify
                0x9d0242a0       0x24 build/default/production/_ext/1406599153/tcpip_manager.o

.text.DRV_ETHMAC_PIC32MACStatus
                0x9d0242c4       0x20
 .text.DRV_ETHMAC_PIC32MACStatus
                0x9d0242c4       0x20 build/default/production/_ext/508588874/drv_ethmac.o
                0x9d0242c4                DRV_ETHMAC_PIC32MACStatus

.text._DRV_ETHMAC_GetFrmTxOk
                0x9d0242e4       0x20
 .text._DRV_ETHMAC_GetFrmTxOk
                0x9d0242e4       0x20 build/default/production/_ext/508588874/drv_ethmac.o

.text._DRV_ETHMAC_GetFrmRxOk
                0x9d024304       0x20
 .text._DRV_ETHMAC_GetFrmRxOk
                0x9d024304       0x20 build/default/production/_ext/508588874/drv_ethmac.o

.text._DRV_ETHMAC_GetFrmPktCount
                0x9d024324       0x20
 .text._DRV_ETHMAC_GetFrmPktCount
                0x9d024324       0x20 build/default/production/_ext/508588874/drv_ethmac.o

.text._DRV_ETHMAC_GetFrmRxOvflow
                0x9d024344       0x20
 .text._DRV_ETHMAC_GetFrmRxOvflow
                0x9d024344       0x20 build/default/production/_ext/508588874/drv_ethmac.o

.text._DRV_ETHMAC_GetFrmFcsError
                0x9d024364       0x20
 .text._DRV_ETHMAC_GetFrmFcsError
                0x9d024364       0x20 build/default/production/_ext/508588874/drv_ethmac.o

.text._DRV_ETHMAC_GetAlignError
                0x9d024384       0x20
 .text._DRV_ETHMAC_GetAlignError
                0x9d024384       0x20 build/default/production/_ext/508588874/drv_ethmac.o

.text._DRV_ETHMAC_GetSCollisionCount
                0x9d0243a4       0x20
 .text._DRV_ETHMAC_GetSCollisionCount
                0x9d0243a4       0x20 build/default/production/_ext/508588874/drv_ethmac.o

.text._DRV_ETHMAC_GetMCollisionCount
                0x9d0243c4       0x20
 .text._DRV_ETHMAC_GetMCollisionCount
                0x9d0243c4       0x20 build/default/production/_ext/508588874/drv_ethmac.o

.text.DRV_ETHPHY_Close
                0x9d0243e4       0x20
 .text.DRV_ETHPHY_Close
                0x9d0243e4       0x20 build/default/production/_ext/1684742680/drv_ethphy.o
                0x9d0243e4                DRV_ETHPHY_Close

.text._DRV_ETHPHY_ClientObjectAllocate
                0x9d024404       0x20
 .text._DRV_ETHPHY_ClientObjectAllocate
                0x9d024404       0x20 build/default/production/_ext/1684742680/drv_ethphy.o
                0x9d024404                _DRV_ETHPHY_ClientObjectAllocate

.text.SYS_CMD_MESSAGE
                0x9d024424       0x20
 .text.SYS_CMD_MESSAGE
                0x9d024424       0x20 build/default/production/_ext/1333902316/sys_command.o
                0x9d024424                SYS_CMD_MESSAGE

.text.TCPIP_HEAP_Malloc
                0x9d024444       0x20
 .text.TCPIP_HEAP_Malloc
                0x9d024444       0x20 build/default/production/_ext/1406599153/tcpip_heap_alloc.o
                0x9d024444                TCPIP_HEAP_Malloc

.text.TCPIP_HEAP_Calloc
                0x9d024464       0x20
 .text.TCPIP_HEAP_Calloc
                0x9d024464       0x20 build/default/production/_ext/1406599153/tcpip_heap_alloc.o
                0x9d024464                TCPIP_HEAP_Calloc

.text.TCPIP_HEAP_Free
                0x9d024484       0x20
 .text.TCPIP_HEAP_Free
                0x9d024484       0x20 build/default/production/_ext/1406599153/tcpip_heap_alloc.o
                0x9d024484                TCPIP_HEAP_Free

.text.TCPIP_DNS_OAHASH_KeyCompare
                0x9d0244a4       0x20
 .text.TCPIP_DNS_OAHASH_KeyCompare
                0x9d0244a4       0x20 build/default/production/_ext/1406599153/dns.o

.rodata         0x9d0244c4       0x20
 .rodata        0x9d0244c4       0x20 build/default/production/_ext/1406599153/tcpip_packet.o

.text.main      0x9d0244e4       0x20
 .text.main     0x9d0244e4       0x20 build/default/production/_ext/1360937237/main.o
                0x9d0244e4                main

.text.PLIB_ETH_EventsGet
                0x9d024504       0x20
 .text.PLIB_ETH_EventsGet
                0x9d024504       0x20 ..\..\..\..\..\microchip\harmony\v1_07\bin\framework\peripheral\PIC32MZ2048ECG064_peripherals.a(plib_eth_lib.o)
                0x9d024504                PLIB_ETH_EventsGet

.text._DRV_ETHPHY_ClientOpSmiScan
                0x9d024524       0x1c
 .text._DRV_ETHPHY_ClientOpSmiScan
                0x9d024524       0x1c build/default/production/_ext/1684742680/drv_ethphy.o

.text.DRV_ETHPHY_VendorDataSet
                0x9d024540       0x1c
 .text.DRV_ETHPHY_VendorDataSet
                0x9d024540       0x1c build/default/production/_ext/1684742680/drv_ethphy.o
                0x9d024540                DRV_ETHPHY_VendorDataSet

.rodata         0x9d02455c       0x1c
 .rodata        0x9d02455c       0x1c build/default/production/_ext/1895062557/drv_tmr.o

.text.SYS_RANDOM_PseudoGet
                0x9d024578       0x1c
 .text.SYS_RANDOM_PseudoGet
                0x9d024578       0x1c build/default/production/_ext/1457815988/sys_random.o
                0x9d024578                SYS_RANDOM_PseudoGet

.text.SYS_TMR_CallbackStop
                0x9d024594       0x1c
 .text.SYS_TMR_CallbackStop
                0x9d024594       0x1c build/default/production/_ext/837595974/sys_tmr.o
                0x9d024594                SYS_TMR_CallbackStop

.text.SYS_TMR_CallbackPeriodic
                0x9d0245b0       0x1c
 .text.SYS_TMR_CallbackPeriodic
                0x9d0245b0       0x1c build/default/production/_ext/837595974/sys_tmr.o
                0x9d0245b0                SYS_TMR_CallbackPeriodic

.text.TCPIP_UDP_ServerOpen
                0x9d0245cc       0x1c
 .text.TCPIP_UDP_ServerOpen
                0x9d0245cc       0x1c build/default/production/_ext/1406599153/udp.o
                0x9d0245cc                TCPIP_UDP_ServerOpen

.text.TCPIP_UDP_ClientOpen
                0x9d0245e8       0x1c
 .text.TCPIP_UDP_ClientOpen
                0x9d0245e8       0x1c build/default/production/_ext/1406599153/udp.o
                0x9d0245e8                TCPIP_UDP_ClientOpen

.text.TCPIP_UDP_TxPutIsReady
                0x9d024604       0x1c
 .text.TCPIP_UDP_TxPutIsReady
                0x9d024604       0x1c build/default/production/_ext/1406599153/udp.o
                0x9d024604                TCPIP_UDP_TxPutIsReady

.text.TCPIP_UDP_Get
                0x9d024620       0x1c
 .text.TCPIP_UDP_Get
                0x9d024620       0x1c build/default/production/_ext/1406599153/udp.o
                0x9d024620                TCPIP_UDP_Get

.text.TCPIP_Helper_ChecksumFold
                0x9d02463c       0x1c
 .text.TCPIP_Helper_ChecksumFold
                0x9d02463c       0x1c build/default/production/_ext/1406599153/tcpip_helpers.o
                0x9d02463c                TCPIP_Helper_ChecksumFold

.text.TCPIP_Notification_Initialize
                0x9d024658       0x1c
 .text.TCPIP_Notification_Initialize
                0x9d024658       0x1c build/default/production/_ext/1406599153/tcpip_notify.o
                0x9d024658                TCPIP_Notification_Initialize

.text.PLIB_ETH_RxFiltersSet
                0x9d024674       0x1c
 .text.PLIB_ETH_RxFiltersSet
                0x9d024674       0x1c ..\..\..\..\..\microchip\harmony\v1_07\bin\framework\peripheral\PIC32MZ2048ECG064_peripherals.a(plib_eth_lib.o)
                0x9d024674                PLIB_ETH_RxFiltersSet

.text.PLIB_ETH_RxFiltersClr
                0x9d024690       0x1c
 .text.PLIB_ETH_RxFiltersClr
                0x9d024690       0x1c ..\..\..\..\..\microchip\harmony\v1_07\bin\framework\peripheral\PIC32MZ2048ECG064_peripherals.a(plib_eth_lib.o)
                0x9d024690                PLIB_ETH_RxFiltersClr

.text.PLIB_ETH_RxFiltersHTSet
                0x9d0246ac       0x1c
 .text.PLIB_ETH_RxFiltersHTSet
                0x9d0246ac       0x1c ..\..\..\..\..\microchip\harmony\v1_07\bin\framework\peripheral\PIC32MZ2048ECG064_peripherals.a(plib_eth_lib.o)
                0x9d0246ac                PLIB_ETH_RxFiltersHTSet

.text.srand     0x9d0246c8       0x1c
 .text.srand    0x9d0246c8       0x1c c:/program files (x86)/microchip/xc32/v1.43/bin/bin/../../lib/gcc/pic32mx/4.8.3/../../../../pic32mx/lib\libc.a(rand.o)
                0x9d0246c8                srand

.text.DRV_ETHPHY_Deinitialize
                0x9d0246e4       0x18
 .text.DRV_ETHPHY_Deinitialize
                0x9d0246e4       0x18 build/default/production/_ext/1684742680/drv_ethphy.o
                0x9d0246e4                DRV_ETHPHY_Deinitialize

.text.DRV_ETHPHY_Status
                0x9d0246fc       0x18
 .text.DRV_ETHPHY_Status
                0x9d0246fc       0x18 build/default/production/_ext/1684742680/drv_ethphy.o
                0x9d0246fc                DRV_ETHPHY_Status

.text.DRV_ETHPHY_ClientStatus
                0x9d024714       0x18
 .text.DRV_ETHPHY_ClientStatus
                0x9d024714       0x18 build/default/production/_ext/1684742680/drv_ethphy.o
                0x9d024714                DRV_ETHPHY_ClientStatus

.text.DRV_ETHPHY_ClientOperationResult
                0x9d02472c       0x18
 .text.DRV_ETHPHY_ClientOperationResult
                0x9d02472c       0x18 build/default/production/_ext/1684742680/drv_ethphy.o
                0x9d02472c                DRV_ETHPHY_ClientOperationResult

.text.SYS_INT_Initialize
                0x9d024744       0x18
 .text.SYS_INT_Initialize
                0x9d024744       0x18 build/default/production/_ext/1979725680/sys_int_pic32.o
                0x9d024744                SYS_INT_Initialize

.text.SYS_TMR_ModuleStatusGet
                0x9d02475c       0x18
 .text.SYS_TMR_ModuleStatusGet
                0x9d02475c       0x18 build/default/production/_ext/837595974/sys_tmr.o
                0x9d02475c                SYS_TMR_ModuleStatusGet

.text.TCPIP_ARP_HashKeyCompare
                0x9d024774       0x18
 .text.TCPIP_ARP_HashKeyCompare
                0x9d024774       0x18 build/default/production/_ext/1406599153/arp.o
                0x9d024774                TCPIP_ARP_HashKeyCompare

.text.TCPIP_STACK_NetIxGet
                0x9d02478c       0x18
 .text.TCPIP_STACK_NetIxGet
                0x9d02478c       0x18 build/default/production/_ext/1406599153/tcpip_manager.o
                0x9d02478c                TCPIP_STACK_NetIxGet

.text.TCPIP_STACK_GatewayAddressSet
                0x9d0247a4       0x18
 .text.TCPIP_STACK_GatewayAddressSet
                0x9d0247a4       0x18 build/default/production/_ext/1406599153/tcpip_manager.o
                0x9d0247a4                TCPIP_STACK_GatewayAddressSet

.text.TCPIP_STACK_PrimaryDNSAddressSet
                0x9d0247bc       0x18
 .text.TCPIP_STACK_PrimaryDNSAddressSet
                0x9d0247bc       0x18 build/default/production/_ext/1406599153/tcpip_manager.o
                0x9d0247bc                TCPIP_STACK_PrimaryDNSAddressSet

.text.TCPIP_STACK_SecondaryDNSAddressSet
                0x9d0247d4       0x18
 .text.TCPIP_STACK_SecondaryDNSAddressSet
                0x9d0247d4       0x18 build/default/production/_ext/1406599153/tcpip_manager.o
                0x9d0247d4                TCPIP_STACK_SecondaryDNSAddressSet

.text.APP_Tasks
                0x9d0247ec       0x18
 .text.APP_Tasks
                0x9d0247ec       0x18 build/default/production/_ext/1360937237/app.o
                0x9d0247ec                APP_Tasks

.text.PLIB_ETH_EventsEnableSet
                0x9d024804       0x18
 .text.PLIB_ETH_EventsEnableSet
                0x9d024804       0x18 ..\..\..\..\..\microchip\harmony\v1_07\bin\framework\peripheral\PIC32MZ2048ECG064_peripherals.a(plib_eth_lib.o)
                0x9d024804                PLIB_ETH_EventsEnableSet

.text.PLIB_ETH_EventsEnableClr
                0x9d02481c       0x18
 .text.PLIB_ETH_EventsEnableClr
                0x9d02481c       0x18 ..\..\..\..\..\microchip\harmony\v1_07\bin\framework\peripheral\PIC32MZ2048ECG064_peripherals.a(plib_eth_lib.o)
                0x9d02481c                PLIB_ETH_EventsEnableClr

.text.PLIB_ETH_EventsClr
                0x9d024834       0x18
 .text.PLIB_ETH_EventsClr
                0x9d024834       0x18 ..\..\..\..\..\microchip\harmony\v1_07\bin\framework\peripheral\PIC32MZ2048ECG064_peripherals.a(plib_eth_lib.o)
                0x9d024834                PLIB_ETH_EventsClr

.text           0x9d02484c       0x18
 .text          0x9d02484c       0x18 c:/program files (x86)/microchip/xc32/v1.43/bin/bin/../../lib/gcc/pic32mx/4.8.3/../../../../pic32mx/lib\libpic32.a(default-nmi-handler.o)
                0x9d02484c                _nmi_handler

.text.SYS_DEVCON_Initialize
                0x9d024864       0x14
 .text.SYS_DEVCON_Initialize
                0x9d024864       0x14 build/default/production/_ext/1470476842/sys_devcon.o
                0x9d024864                SYS_DEVCON_Initialize

.rodata         0x9d024878       0x10
 .rodata        0x9d024878       0x10 build/default/production/_ext/1684742680/drv_extphy_smsc8740.o
                0x9d024878                DRV_ETHPHY_OBJECT_SMSC_LAN8740

.text.TCPIP_ARP_HashKeyCopy
                0x9d024888       0x10
 .text.TCPIP_ARP_HashKeyCopy
                0x9d024888       0x10 build/default/production/_ext/1406599153/arp.o
                0x9d024888                TCPIP_ARP_HashKeyCopy

.text.TCPIP_Helper_SingleListInitialize
                0x9d024898       0x10
 .text.TCPIP_Helper_SingleListInitialize
                0x9d024898       0x10 build/default/production/_ext/1406599153/tcpip_helpers.o
                0x9d024898                TCPIP_Helper_SingleListInitialize

.text.DRV_ETHMAC_PIC32MACEventPendingGet
                0x9d0248a8        0xc
 .text.DRV_ETHMAC_PIC32MACEventPendingGet
                0x9d0248a8        0xc build/default/production/_ext/508588874/drv_ethmac.o
                0x9d0248a8                DRV_ETHMAC_PIC32MACEventPendingGet

.text.DRV_EXTPHY_SMIClockGet
                0x9d0248b4        0xc
 .text.DRV_EXTPHY_SMIClockGet
                0x9d0248b4        0xc build/default/production/_ext/1684742680/drv_extphy_smsc8740.o

.text.TCPIP_STACK_NumberOfNetworksGet
                0x9d0248c0        0xc
 .text.TCPIP_STACK_NumberOfNetworksGet
                0x9d0248c0        0xc build/default/production/_ext/1406599153/tcpip_manager.o
                0x9d0248c0                TCPIP_STACK_NumberOfNetworksGet

.text.TCPIP_STACK_NetBIOSName
                0x9d0248cc        0xc
 .text.TCPIP_STACK_NetBIOSName
                0x9d0248cc        0xc build/default/production/_ext/1406599153/tcpip_manager.o
                0x9d0248cc                TCPIP_STACK_NetBIOSName

.text.SYS_CLK_SystemFrequencyGet
                0x9d0248d8        0xc
 .text.SYS_CLK_SystemFrequencyGet
                0x9d0248d8        0xc build/default/production/_ext/639803181/sys_clk_static.o
                0x9d0248d8                SYS_CLK_SystemFrequencyGet

.text.DRV_ETHMAC_PIC32MACReinitialize
                0x9d0248e4        0x8
 .text.DRV_ETHMAC_PIC32MACReinitialize
                0x9d0248e4        0x8 build/default/production/_ext/508588874/drv_ethmac.o
                0x9d0248e4                DRV_ETHMAC_PIC32MACReinitialize

.text.DRV_ETHMAC_PIC32MACPowerMode
                0x9d0248ec        0x8
 .text.DRV_ETHMAC_PIC32MACPowerMode
                0x9d0248ec        0x8 build/default/production/_ext/508588874/drv_ethmac.o
                0x9d0248ec                DRV_ETHMAC_PIC32MACPowerMode

.text._DRV_ETHPHY_ClientOpNone
                0x9d0248f4        0x8
 .text._DRV_ETHPHY_ClientOpNone
                0x9d0248f4        0x8 build/default/production/_ext/1684742680/drv_ethphy.o

.text.GetCommandCharacter
                0x9d0248fc        0x8
 .text.GetCommandCharacter
                0x9d0248fc        0x8 build/default/production/_ext/1333902316/sys_command.o

.text.SYS_DEBUG_ErrorLevelGet
                0x9d024904        0x8
 .text.SYS_DEBUG_ErrorLevelGet
                0x9d024904        0x8 build/default/production/_ext/996864500/sys_debug.o
                0x9d024904                SYS_DEBUG_ErrorLevelGet

.text.SYS_DEVCON_Tasks
                0x9d02490c        0x8
 .text.SYS_DEVCON_Tasks
                0x9d02490c        0x8 build/default/production/_ext/1470476842/sys_devcon.o
                0x9d02490c                SYS_DEVCON_Tasks

.text._DHCPOptionProcessEnd
                0x9d024914        0x8
 .text._DHCPOptionProcessEnd
                0x9d024914        0x8 build/default/production/_ext/1406599153/dhcp.o

.text.TCPIP_STACK_NetDefaultGet
                0x9d02491c        0x8
 .text.TCPIP_STACK_NetDefaultGet
                0x9d02491c        0x8 build/default/production/_ext/1406599153/tcpip_manager.o
                0x9d02491c                TCPIP_STACK_NetDefaultGet

.text.TCPIP_PKT_Deinitialize
                0x9d024924        0x8
 .text.TCPIP_PKT_Deinitialize
                0x9d024924        0x8 build/default/production/_ext/1406599153/tcpip_packet.o
                0x9d024924                TCPIP_PKT_Deinitialize

.text.APP_Initialize
                0x9d02492c        0x8
 .text.APP_Initialize
                0x9d02492c        0x8 build/default/production/_ext/1360937237/app.o
                0x9d02492c                APP_Initialize

.text._on_reset
                0x9d024934        0x8
 .text._on_reset
                0x9d024934        0x8 c:/program files (x86)/microchip/xc32/v1.43/bin/bin/../../lib/gcc/pic32mx/4.8.3/../../../../pic32mx/lib\libpic32.a(default-on-reset.o)
                0x9d024934                _on_reset

.text._on_bootstrap
                0x9d02493c        0x8
 .text._on_bootstrap
                0x9d02493c        0x8 c:/program files (x86)/microchip/xc32/v1.43/bin/bin/../../lib/gcc/pic32mx/4.8.3/../../../../pic32mx/lib\libpic32.a(default-on-bootstrap.o)
                0x9d02493c                _on_bootstrap

.rodata         0x9d024948        0x8
 .rodata        0x9d024948        0x8 c:/program files (x86)/microchip/xc32/v1.43/bin/bin/../../lib/gcc/pic32mx/4.8.3\libgcc.a(floatunsidf.o)

.rodata         0x9d01b93c        0x4
 .rodata        0x9d01b93c        0x4 build/default/production/_ext/1406599153/tcpip_announce.o
